

Microchip MPLAB XC8 Assembler V3.00 build 20241204225717 
                                                                                               Mon Mar 24 20:01:36 2025

Microchip MPLAB XC8 C Compiler v3.00 (Free license) build 20241204225717 Og1 
     1                           	processor	16F877A
     2                           	pagewidth 120
     3                           	opt	flic
     4                           	psect	idataBANK1,global,class=CODE,space=0,delta=2,noexec
     5                           	psect	idataBANK3,global,class=CODE,space=0,delta=2,noexec
     6                           	psect	strings,global,class=STRING,space=0,delta=2,noexec
     7                           	psect	stringtext,global,reloc=256,class=STRCODE,space=0,delta=2,noexec
     8                           	psect	cinit,global,class=CODE,space=0,merge=1,delta=2
     9                           	psect	bssCOMMON,global,class=COMMON,space=1,delta=1,noexec
    10                           	psect	bssBANK0,global,class=BANK0,space=1,delta=1,noexec
    11                           	psect	bssBANK1,global,class=BANK1,space=1,delta=1,noexec
    12                           	psect	dataBANK1,global,class=BANK1,space=1,delta=1,noexec
    13                           	psect	bssBANK3,global,class=BANK3,space=1,delta=1,noexec
    14                           	psect	dataBANK3,global,class=BANK3,space=1,delta=1,noexec
    15                           	psect	inittext,global,class=CODE,space=0,delta=2
    16                           	psect	clrtext,global,class=CODE,space=0,delta=2
    17                           	psect	cstackBANK3,global,class=BANK3,space=1,delta=1,noexec
    18                           	psect	cstackCOMMON,global,class=COMMON,space=1,delta=1,noexec
    19                           	psect	cstackBANK0,global,class=BANK0,space=1,delta=1,noexec
    20                           	psect	maintext,global,class=CODE,space=0,split=1,delta=2
    21                           	psect	text1,local,class=CODE,space=0,merge=1,delta=2
    22                           	psect	text2,local,class=CODE,space=0,merge=1,delta=2,group=2
    23                           	psect	text3,local,class=CODE,space=0,merge=1,delta=2
    24                           	psect	text4,local,class=CODE,space=0,merge=1,delta=2
    25                           	psect	text5,local,class=CODE,space=0,merge=1,delta=2
    26                           	psect	text6,local,class=CODE,space=0,merge=1,delta=2
    27                           	psect	text7,local,class=CODE,space=0,merge=1,delta=2
    28                           	psect	text8,local,class=CODE,space=0,merge=1,delta=2
    29                           	psect	text9,local,class=CODE,space=0,merge=1,delta=2
    30                           	psect	text10,local,class=CODE,space=0,merge=1,delta=2,group=2
    31                           	psect	text11,local,class=CODE,space=0,merge=1,delta=2
    32                           	psect	text12,local,class=CODE,space=0,merge=1,delta=2
    33                           	psect	text13,local,class=CODE,space=0,merge=1,delta=2
    34                           	psect	text14,local,class=CODE,space=0,merge=1,delta=2
    35                           	psect	text15,local,class=CODE,space=0,merge=1,delta=2
    36                           	psect	text16,local,class=CODE,space=0,merge=1,delta=2,group=1
    37                           	psect	text17,local,class=CODE,space=0,merge=1,delta=2
    38                           	psect	text18,local,class=CODE,space=0,merge=1,delta=2
    39                           	psect	text19,local,class=CODE,space=0,merge=1,delta=2
    40                           	psect	text20,local,class=CODE,space=0,merge=1,delta=2
    41                           	psect	text21,local,class=CODE,space=0,merge=1,delta=2
    42                           	psect	text22,local,class=CODE,space=0,merge=1,delta=2
    43                           	psect	text23,local,class=CODE,space=0,merge=1,delta=2
    44                           	psect	text24,local,class=CODE,space=0,merge=1,delta=2
    45                           	psect	text25,local,class=CODE,space=0,merge=1,delta=2
    46                           	psect	text26,local,class=CODE,space=0,merge=1,delta=2
    47                           	psect	text27,local,class=CODE,space=0,merge=1,delta=2
    48                           	psect	text28,local,class=CODE,space=0,merge=1,delta=2,group=1
    49                           	psect	text29,local,class=CODE,space=0,merge=1,delta=2
    50                           	psect	text30,local,class=CODE,space=0,merge=1,delta=2
    51                           	psect	text31,local,class=CODE,space=0,merge=1,delta=2
    52                           	psect	text32,local,class=CODE,space=0,merge=1,delta=2
    53                           	psect	text33,local,class=CODE,space=0,merge=1,delta=2
    54                           	psect	text34,local,class=CODE,space=0,merge=1,delta=2
    55                           	psect	text35,local,class=CODE,space=0,merge=1,delta=2,group=1
    56                           	psect	text36,local,class=CODE,space=0,merge=1,delta=2,group=1
    57                           	psect	text37,local,class=CODE,space=0,merge=1,delta=2
    58                           	psect	text38,local,class=CODE,space=0,merge=1,delta=2
    59                           	psect	text39,local,class=CODE,space=0,merge=1,delta=2,group=2
    60                           	psect	text40,local,class=CODE,space=0,merge=1,delta=2
    61                           	psect	text41,local,class=CODE,space=0,merge=1,delta=2
    62                           	psect	text42,local,class=CODE,space=0,merge=1,delta=2
    63                           	psect	text43,local,class=CODE,space=0,merge=1,delta=2
    64                           	psect	text44,local,class=CODE,space=0,merge=1,delta=2
    65                           	psect	text45,local,class=CODE,space=0,merge=1,delta=2
    66                           	psect	text46,local,class=CODE,space=0,merge=1,delta=2
    67                           	psect	text47,local,class=CODE,space=0,merge=1,delta=2
    68                           	psect	text48,local,class=CODE,space=0,merge=1,delta=2
    69                           	psect	text49,local,class=CODE,space=0,merge=1,delta=2
    70                           	psect	text50,local,class=CODE,space=0,merge=1,delta=2,group=1
    71                           	psect	text51,local,class=CODE,space=0,merge=1,delta=2,group=1
    72                           	psect	text52,local,class=CODE,space=0,merge=1,delta=2,group=1
    73                           	psect	text53,local,class=CODE,space=0,merge=1,delta=2
    74                           	psect	intentry,global,class=CODE,space=0,delta=2
    75                           	psect	idloc,global,abs,ovrld,class=IDLOC,space=5,delta=2,noexec
    76                           	psect	config,global,abs,ovrld,class=CONFIG,space=4,delta=2,noexec
    77                           	dabs	1,0x7E,2
    78     0000                     
    79                           ; Version 2.40
    80                           ; Generated 17/11/2021 GMT
    81                           ; 
    82                           ; Copyright © 2021, Microchip Technology Inc. and its subsidiaries ("Microchip")
    83                           ; All rights reserved.
    84                           ; 
    85                           ; This software is developed by Microchip Technology Inc. and its subsidiaries ("Microch
      +                          ip").
    86                           ; 
    87                           ; Redistribution and use in source and binary forms, with or without modification, are
    88                           ; permitted provided that the following conditions are met:
    89                           ; 
    90                           ;     1. Redistributions of source code must retain the above copyright notice, this lis
      +                          t of
    91                           ;        conditions and the following disclaimer.
    92                           ; 
    93                           ;     2. Redistributions in binary form must reproduce the above copyright notice, this 
      +                          list
    94                           ;        of conditions and the following disclaimer in the documentation and/or other
    95                           ;        materials provided with the distribution. Publication is not required when
    96                           ;        this file is used in an embedded application.
    97                           ; 
    98                           ;     3. Microchip's name may not be used to endorse or promote products derived from th
      +                          is
    99                           ;        software without specific prior written permission.
   100                           ; 
   101                           ; THIS SOFTWARE IS PROVIDED BY MICROCHIP "AS IS" AND ANY EXPRESS OR IMPLIED WARRANTIES,
   102                           ; INCLUDING, BUT NOT LIMITED TO, THE IMPLIED WARRANTIES OF MERCHANTABILITY AND FITNESS F
      +                          OR
   103                           ; PURPOSE ARE DISCLAIMED.  IN NO EVENT SHALL MICROCHIP BE LIABLE FOR ANY DIRECT, INDIREC
      +                          T,
   104                           ; INCIDENTAL, SPECIAL, EXEMPLARY, OR CONSEQUENTIAL DAMAGES (INCLUDING BUT NOT LIMITED TO
   105                           ; PROCUREMENT OF SUBSTITUTE GOODS OR SERVICES; LOSS OF USE, DATA OR PROFITS; OR BUSINESS
   106                           ; INTERRUPTION) HOWSOEVER CAUSED AND ON ANY THEORY OF LIABILITY, WHETHER IN CONTRACT, ST
      +                          RICT
   107                           ; LIABILITY, OR TORT (INCLUDING NEGLIGENCE OR OTHERWISE) ARISING IN ANY WAY OUT OF THE U
      +                          SE OF
   108                           ; THIS SOFTWARE, EVEN IF ADVISED OF THE POSSIBILITY OF SUCH DAMAGE.
   109                           ; 
   110                           ; 
   111                           ; Code-generator required, PIC16F877A Definitions
   112                           ; 
   113                           ; SFR Addresses
   114     0004                     fsr             equ	4
   115     0004                     fsr0            equ	4
   116     0000                     indf            equ	0
   117     0000                     indf0           equ	0
   118     0002                     pc              equ	2
   119     0002                     pcl             equ	2
   120     000A                     pclath          equ	10
   121     0003                     status          equ	3
   122     0000                     INDF            equ	0	;# 
   123     0001                     TMR0            equ	1	;# 
   124     0002                     PCL             equ	2	;# 
   125     0003                     STATUS          equ	3	;# 
   126     0004                     FSR             equ	4	;# 
   127     0005                     PORTA           equ	5	;# 
   128     0006                     PORTB           equ	6	;# 
   129     0007                     PORTC           equ	7	;# 
   130     0008                     PORTD           equ	8	;# 
   131     0009                     PORTE           equ	9	;# 
   132     000A                     PCLATH          equ	10	;# 
   133     000B                     INTCON          equ	11	;# 
   134     000C                     PIR1            equ	12	;# 
   135     000D                     PIR2            equ	13	;# 
   136     000E                     TMR1            equ	14	;# 
   137     000E                     TMR1L           equ	14	;# 
   138     000F                     TMR1H           equ	15	;# 
   139     0010                     T1CON           equ	16	;# 
   140     0011                     TMR2            equ	17	;# 
   141     0012                     T2CON           equ	18	;# 
   142     0013                     SSPBUF          equ	19	;# 
   143     0014                     SSPCON          equ	20	;# 
   144     0015                     CCPR1           equ	21	;# 
   145     0015                     CCPR1L          equ	21	;# 
   146     0016                     CCPR1H          equ	22	;# 
   147     0017                     CCP1CON         equ	23	;# 
   148     0018                     RCSTA           equ	24	;# 
   149     0019                     TXREG           equ	25	;# 
   150     001A                     RCREG           equ	26	;# 
   151     001B                     CCPR2           equ	27	;# 
   152     001B                     CCPR2L          equ	27	;# 
   153     001C                     CCPR2H          equ	28	;# 
   154     001D                     CCP2CON         equ	29	;# 
   155     001E                     ADRESH          equ	30	;# 
   156     001F                     ADCON0          equ	31	;# 
   157     0081                     OPTION_REG      equ	129	;# 
   158     0085                     TRISA           equ	133	;# 
   159     0086                     TRISB           equ	134	;# 
   160     0087                     TRISC           equ	135	;# 
   161     0088                     TRISD           equ	136	;# 
   162     0089                     TRISE           equ	137	;# 
   163     008C                     PIE1            equ	140	;# 
   164     008D                     PIE2            equ	141	;# 
   165     008E                     PCON            equ	142	;# 
   166     0091                     SSPCON2         equ	145	;# 
   167     0092                     PR2             equ	146	;# 
   168     0093                     SSPADD          equ	147	;# 
   169     0094                     SSPSTAT         equ	148	;# 
   170     0098                     TXSTA           equ	152	;# 
   171     0099                     SPBRG           equ	153	;# 
   172     009C                     CMCON           equ	156	;# 
   173     009D                     CVRCON          equ	157	;# 
   174     009E                     ADRESL          equ	158	;# 
   175     009F                     ADCON1          equ	159	;# 
   176     010C                     EEDATA          equ	268	;# 
   177     010D                     EEADR           equ	269	;# 
   178     010E                     EEDATH          equ	270	;# 
   179     010F                     EEADRH          equ	271	;# 
   180     018C                     EECON1          equ	396	;# 
   181     018D                     EECON2          equ	397	;# 
   182     0000                     INDF            equ	0	;# 
   183     0001                     TMR0            equ	1	;# 
   184     0002                     PCL             equ	2	;# 
   185     0003                     STATUS          equ	3	;# 
   186     0004                     FSR             equ	4	;# 
   187     0005                     PORTA           equ	5	;# 
   188     0006                     PORTB           equ	6	;# 
   189     0007                     PORTC           equ	7	;# 
   190     0008                     PORTD           equ	8	;# 
   191     0009                     PORTE           equ	9	;# 
   192     000A                     PCLATH          equ	10	;# 
   193     000B                     INTCON          equ	11	;# 
   194     000C                     PIR1            equ	12	;# 
   195     000D                     PIR2            equ	13	;# 
   196     000E                     TMR1            equ	14	;# 
   197     000E                     TMR1L           equ	14	;# 
   198     000F                     TMR1H           equ	15	;# 
   199     0010                     T1CON           equ	16	;# 
   200     0011                     TMR2            equ	17	;# 
   201     0012                     T2CON           equ	18	;# 
   202     0013                     SSPBUF          equ	19	;# 
   203     0014                     SSPCON          equ	20	;# 
   204     0015                     CCPR1           equ	21	;# 
   205     0015                     CCPR1L          equ	21	;# 
   206     0016                     CCPR1H          equ	22	;# 
   207     0017                     CCP1CON         equ	23	;# 
   208     0018                     RCSTA           equ	24	;# 
   209     0019                     TXREG           equ	25	;# 
   210     001A                     RCREG           equ	26	;# 
   211     001B                     CCPR2           equ	27	;# 
   212     001B                     CCPR2L          equ	27	;# 
   213     001C                     CCPR2H          equ	28	;# 
   214     001D                     CCP2CON         equ	29	;# 
   215     001E                     ADRESH          equ	30	;# 
   216     001F                     ADCON0          equ	31	;# 
   217     0081                     OPTION_REG      equ	129	;# 
   218     0085                     TRISA           equ	133	;# 
   219     0086                     TRISB           equ	134	;# 
   220     0087                     TRISC           equ	135	;# 
   221     0088                     TRISD           equ	136	;# 
   222     0089                     TRISE           equ	137	;# 
   223     008C                     PIE1            equ	140	;# 
   224     008D                     PIE2            equ	141	;# 
   225     008E                     PCON            equ	142	;# 
   226     0091                     SSPCON2         equ	145	;# 
   227     0092                     PR2             equ	146	;# 
   228     0093                     SSPADD          equ	147	;# 
   229     0094                     SSPSTAT         equ	148	;# 
   230     0098                     TXSTA           equ	152	;# 
   231     0099                     SPBRG           equ	153	;# 
   232     009C                     CMCON           equ	156	;# 
   233     009D                     CVRCON          equ	157	;# 
   234     009E                     ADRESL          equ	158	;# 
   235     009F                     ADCON1          equ	159	;# 
   236     010C                     EEDATA          equ	268	;# 
   237     010D                     EEADR           equ	269	;# 
   238     010E                     EEDATH          equ	270	;# 
   239     010F                     EEADRH          equ	271	;# 
   240     018C                     EECON1          equ	396	;# 
   241     018D                     EECON2          equ	397	;# 
   242     0000                     INDF            equ	0	;# 
   243     0001                     TMR0            equ	1	;# 
   244     0002                     PCL             equ	2	;# 
   245     0003                     STATUS          equ	3	;# 
   246     0004                     FSR             equ	4	;# 
   247     0005                     PORTA           equ	5	;# 
   248     0006                     PORTB           equ	6	;# 
   249     0007                     PORTC           equ	7	;# 
   250     0008                     PORTD           equ	8	;# 
   251     0009                     PORTE           equ	9	;# 
   252     000A                     PCLATH          equ	10	;# 
   253     000B                     INTCON          equ	11	;# 
   254     000C                     PIR1            equ	12	;# 
   255     000D                     PIR2            equ	13	;# 
   256     000E                     TMR1            equ	14	;# 
   257     000E                     TMR1L           equ	14	;# 
   258     000F                     TMR1H           equ	15	;# 
   259     0010                     T1CON           equ	16	;# 
   260     0011                     TMR2            equ	17	;# 
   261     0012                     T2CON           equ	18	;# 
   262     0013                     SSPBUF          equ	19	;# 
   263     0014                     SSPCON          equ	20	;# 
   264     0015                     CCPR1           equ	21	;# 
   265     0015                     CCPR1L          equ	21	;# 
   266     0016                     CCPR1H          equ	22	;# 
   267     0017                     CCP1CON         equ	23	;# 
   268     0018                     RCSTA           equ	24	;# 
   269     0019                     TXREG           equ	25	;# 
   270     001A                     RCREG           equ	26	;# 
   271     001B                     CCPR2           equ	27	;# 
   272     001B                     CCPR2L          equ	27	;# 
   273     001C                     CCPR2H          equ	28	;# 
   274     001D                     CCP2CON         equ	29	;# 
   275     001E                     ADRESH          equ	30	;# 
   276     001F                     ADCON0          equ	31	;# 
   277     0081                     OPTION_REG      equ	129	;# 
   278     0085                     TRISA           equ	133	;# 
   279     0086                     TRISB           equ	134	;# 
   280     0087                     TRISC           equ	135	;# 
   281     0088                     TRISD           equ	136	;# 
   282     0089                     TRISE           equ	137	;# 
   283     008C                     PIE1            equ	140	;# 
   284     008D                     PIE2            equ	141	;# 
   285     008E                     PCON            equ	142	;# 
   286     0091                     SSPCON2         equ	145	;# 
   287     0092                     PR2             equ	146	;# 
   288     0093                     SSPADD          equ	147	;# 
   289     0094                     SSPSTAT         equ	148	;# 
   290     0098                     TXSTA           equ	152	;# 
   291     0099                     SPBRG           equ	153	;# 
   292     009C                     CMCON           equ	156	;# 
   293     009D                     CVRCON          equ	157	;# 
   294     009E                     ADRESL          equ	158	;# 
   295     009F                     ADCON1          equ	159	;# 
   296     010C                     EEDATA          equ	268	;# 
   297     010D                     EEADR           equ	269	;# 
   298     010E                     EEDATH          equ	270	;# 
   299     010F                     EEADRH          equ	271	;# 
   300     018C                     EECON1          equ	396	;# 
   301     018D                     EECON2          equ	397	;# 
   302     0000                     INDF            equ	0	;# 
   303     0001                     TMR0            equ	1	;# 
   304     0002                     PCL             equ	2	;# 
   305     0003                     STATUS          equ	3	;# 
   306     0004                     FSR             equ	4	;# 
   307     0005                     PORTA           equ	5	;# 
   308     0006                     PORTB           equ	6	;# 
   309     0007                     PORTC           equ	7	;# 
   310     0008                     PORTD           equ	8	;# 
   311     0009                     PORTE           equ	9	;# 
   312     000A                     PCLATH          equ	10	;# 
   313     000B                     INTCON          equ	11	;# 
   314     000C                     PIR1            equ	12	;# 
   315     000D                     PIR2            equ	13	;# 
   316     000E                     TMR1            equ	14	;# 
   317     000E                     TMR1L           equ	14	;# 
   318     000F                     TMR1H           equ	15	;# 
   319     0010                     T1CON           equ	16	;# 
   320     0011                     TMR2            equ	17	;# 
   321     0012                     T2CON           equ	18	;# 
   322     0013                     SSPBUF          equ	19	;# 
   323     0014                     SSPCON          equ	20	;# 
   324     0015                     CCPR1           equ	21	;# 
   325     0015                     CCPR1L          equ	21	;# 
   326     0016                     CCPR1H          equ	22	;# 
   327     0017                     CCP1CON         equ	23	;# 
   328     0018                     RCSTA           equ	24	;# 
   329     0019                     TXREG           equ	25	;# 
   330     001A                     RCREG           equ	26	;# 
   331     001B                     CCPR2           equ	27	;# 
   332     001B                     CCPR2L          equ	27	;# 
   333     001C                     CCPR2H          equ	28	;# 
   334     001D                     CCP2CON         equ	29	;# 
   335     001E                     ADRESH          equ	30	;# 
   336     001F                     ADCON0          equ	31	;# 
   337     0081                     OPTION_REG      equ	129	;# 
   338     0085                     TRISA           equ	133	;# 
   339     0086                     TRISB           equ	134	;# 
   340     0087                     TRISC           equ	135	;# 
   341     0088                     TRISD           equ	136	;# 
   342     0089                     TRISE           equ	137	;# 
   343     008C                     PIE1            equ	140	;# 
   344     008D                     PIE2            equ	141	;# 
   345     008E                     PCON            equ	142	;# 
   346     0091                     SSPCON2         equ	145	;# 
   347     0092                     PR2             equ	146	;# 
   348     0093                     SSPADD          equ	147	;# 
   349     0094                     SSPSTAT         equ	148	;# 
   350     0098                     TXSTA           equ	152	;# 
   351     0099                     SPBRG           equ	153	;# 
   352     009C                     CMCON           equ	156	;# 
   353     009D                     CVRCON          equ	157	;# 
   354     009E                     ADRESL          equ	158	;# 
   355     009F                     ADCON1          equ	159	;# 
   356     010C                     EEDATA          equ	268	;# 
   357     010D                     EEADR           equ	269	;# 
   358     010E                     EEDATH          equ	270	;# 
   359     010F                     EEADRH          equ	271	;# 
   360     018C                     EECON1          equ	396	;# 
   361     018D                     EECON2          equ	397	;# 
   362     0000                     INDF            equ	0	;# 
   363     0001                     TMR0            equ	1	;# 
   364     0002                     PCL             equ	2	;# 
   365     0003                     STATUS          equ	3	;# 
   366     0004                     FSR             equ	4	;# 
   367     0005                     PORTA           equ	5	;# 
   368     0006                     PORTB           equ	6	;# 
   369     0007                     PORTC           equ	7	;# 
   370     0008                     PORTD           equ	8	;# 
   371     0009                     PORTE           equ	9	;# 
   372     000A                     PCLATH          equ	10	;# 
   373     000B                     INTCON          equ	11	;# 
   374     000C                     PIR1            equ	12	;# 
   375     000D                     PIR2            equ	13	;# 
   376     000E                     TMR1            equ	14	;# 
   377     000E                     TMR1L           equ	14	;# 
   378     000F                     TMR1H           equ	15	;# 
   379     0010                     T1CON           equ	16	;# 
   380     0011                     TMR2            equ	17	;# 
   381     0012                     T2CON           equ	18	;# 
   382     0013                     SSPBUF          equ	19	;# 
   383     0014                     SSPCON          equ	20	;# 
   384     0015                     CCPR1           equ	21	;# 
   385     0015                     CCPR1L          equ	21	;# 
   386     0016                     CCPR1H          equ	22	;# 
   387     0017                     CCP1CON         equ	23	;# 
   388     0018                     RCSTA           equ	24	;# 
   389     0019                     TXREG           equ	25	;# 
   390     001A                     RCREG           equ	26	;# 
   391     001B                     CCPR2           equ	27	;# 
   392     001B                     CCPR2L          equ	27	;# 
   393     001C                     CCPR2H          equ	28	;# 
   394     001D                     CCP2CON         equ	29	;# 
   395     001E                     ADRESH          equ	30	;# 
   396     001F                     ADCON0          equ	31	;# 
   397     0081                     OPTION_REG      equ	129	;# 
   398     0085                     TRISA           equ	133	;# 
   399     0086                     TRISB           equ	134	;# 
   400     0087                     TRISC           equ	135	;# 
   401     0088                     TRISD           equ	136	;# 
   402     0089                     TRISE           equ	137	;# 
   403     008C                     PIE1            equ	140	;# 
   404     008D                     PIE2            equ	141	;# 
   405     008E                     PCON            equ	142	;# 
   406     0091                     SSPCON2         equ	145	;# 
   407     0092                     PR2             equ	146	;# 
   408     0093                     SSPADD          equ	147	;# 
   409     0094                     SSPSTAT         equ	148	;# 
   410     0098                     TXSTA           equ	152	;# 
   411     0099                     SPBRG           equ	153	;# 
   412     009C                     CMCON           equ	156	;# 
   413     009D                     CVRCON          equ	157	;# 
   414     009E                     ADRESL          equ	158	;# 
   415     009F                     ADCON1          equ	159	;# 
   416     010C                     EEDATA          equ	268	;# 
   417     010D                     EEADR           equ	269	;# 
   418     010E                     EEDATH          equ	270	;# 
   419     010F                     EEADRH          equ	271	;# 
   420     018C                     EECON1          equ	396	;# 
   421     018D                     EECON2          equ	397	;# 
   422     0000                     INDF            equ	0	;# 
   423     0001                     TMR0            equ	1	;# 
   424     0002                     PCL             equ	2	;# 
   425     0003                     STATUS          equ	3	;# 
   426     0004                     FSR             equ	4	;# 
   427     0005                     PORTA           equ	5	;# 
   428     0006                     PORTB           equ	6	;# 
   429     0007                     PORTC           equ	7	;# 
   430     0008                     PORTD           equ	8	;# 
   431     0009                     PORTE           equ	9	;# 
   432     000A                     PCLATH          equ	10	;# 
   433     000B                     INTCON          equ	11	;# 
   434     000C                     PIR1            equ	12	;# 
   435     000D                     PIR2            equ	13	;# 
   436     000E                     TMR1            equ	14	;# 
   437     000E                     TMR1L           equ	14	;# 
   438     000F                     TMR1H           equ	15	;# 
   439     0010                     T1CON           equ	16	;# 
   440     0011                     TMR2            equ	17	;# 
   441     0012                     T2CON           equ	18	;# 
   442     0013                     SSPBUF          equ	19	;# 
   443     0014                     SSPCON          equ	20	;# 
   444     0015                     CCPR1           equ	21	;# 
   445     0015                     CCPR1L          equ	21	;# 
   446     0016                     CCPR1H          equ	22	;# 
   447     0017                     CCP1CON         equ	23	;# 
   448     0018                     RCSTA           equ	24	;# 
   449     0019                     TXREG           equ	25	;# 
   450     001A                     RCREG           equ	26	;# 
   451     001B                     CCPR2           equ	27	;# 
   452     001B                     CCPR2L          equ	27	;# 
   453     001C                     CCPR2H          equ	28	;# 
   454     001D                     CCP2CON         equ	29	;# 
   455     001E                     ADRESH          equ	30	;# 
   456     001F                     ADCON0          equ	31	;# 
   457     0081                     OPTION_REG      equ	129	;# 
   458     0085                     TRISA           equ	133	;# 
   459     0086                     TRISB           equ	134	;# 
   460     0087                     TRISC           equ	135	;# 
   461     0088                     TRISD           equ	136	;# 
   462     0089                     TRISE           equ	137	;# 
   463     008C                     PIE1            equ	140	;# 
   464     008D                     PIE2            equ	141	;# 
   465     008E                     PCON            equ	142	;# 
   466     0091                     SSPCON2         equ	145	;# 
   467     0092                     PR2             equ	146	;# 
   468     0093                     SSPADD          equ	147	;# 
   469     0094                     SSPSTAT         equ	148	;# 
   470     0098                     TXSTA           equ	152	;# 
   471     0099                     SPBRG           equ	153	;# 
   472     009C                     CMCON           equ	156	;# 
   473     009D                     CVRCON          equ	157	;# 
   474     009E                     ADRESL          equ	158	;# 
   475     009F                     ADCON1          equ	159	;# 
   476     010C                     EEDATA          equ	268	;# 
   477     010D                     EEADR           equ	269	;# 
   478     010E                     EEDATH          equ	270	;# 
   479     010F                     EEADRH          equ	271	;# 
   480     018C                     EECON1          equ	396	;# 
   481     018D                     EECON2          equ	397	;# 
   482     0000                     INDF            equ	0	;# 
   483     0001                     TMR0            equ	1	;# 
   484     0002                     PCL             equ	2	;# 
   485     0003                     STATUS          equ	3	;# 
   486     0004                     FSR             equ	4	;# 
   487     0005                     PORTA           equ	5	;# 
   488     0006                     PORTB           equ	6	;# 
   489     0007                     PORTC           equ	7	;# 
   490     0008                     PORTD           equ	8	;# 
   491     0009                     PORTE           equ	9	;# 
   492     000A                     PCLATH          equ	10	;# 
   493     000B                     INTCON          equ	11	;# 
   494     000C                     PIR1            equ	12	;# 
   495     000D                     PIR2            equ	13	;# 
   496     000E                     TMR1            equ	14	;# 
   497     000E                     TMR1L           equ	14	;# 
   498     000F                     TMR1H           equ	15	;# 
   499     0010                     T1CON           equ	16	;# 
   500     0011                     TMR2            equ	17	;# 
   501     0012                     T2CON           equ	18	;# 
   502     0013                     SSPBUF          equ	19	;# 
   503     0014                     SSPCON          equ	20	;# 
   504     0015                     CCPR1           equ	21	;# 
   505     0015                     CCPR1L          equ	21	;# 
   506     0016                     CCPR1H          equ	22	;# 
   507     0017                     CCP1CON         equ	23	;# 
   508     0018                     RCSTA           equ	24	;# 
   509     0019                     TXREG           equ	25	;# 
   510     001A                     RCREG           equ	26	;# 
   511     001B                     CCPR2           equ	27	;# 
   512     001B                     CCPR2L          equ	27	;# 
   513     001C                     CCPR2H          equ	28	;# 
   514     001D                     CCP2CON         equ	29	;# 
   515     001E                     ADRESH          equ	30	;# 
   516     001F                     ADCON0          equ	31	;# 
   517     0081                     OPTION_REG      equ	129	;# 
   518     0085                     TRISA           equ	133	;# 
   519     0086                     TRISB           equ	134	;# 
   520     0087                     TRISC           equ	135	;# 
   521     0088                     TRISD           equ	136	;# 
   522     0089                     TRISE           equ	137	;# 
   523     008C                     PIE1            equ	140	;# 
   524     008D                     PIE2            equ	141	;# 
   525     008E                     PCON            equ	142	;# 
   526     0091                     SSPCON2         equ	145	;# 
   527     0092                     PR2             equ	146	;# 
   528     0093                     SSPADD          equ	147	;# 
   529     0094                     SSPSTAT         equ	148	;# 
   530     0098                     TXSTA           equ	152	;# 
   531     0099                     SPBRG           equ	153	;# 
   532     009C                     CMCON           equ	156	;# 
   533     009D                     CVRCON          equ	157	;# 
   534     009E                     ADRESL          equ	158	;# 
   535     009F                     ADCON1          equ	159	;# 
   536     010C                     EEDATA          equ	268	;# 
   537     010D                     EEADR           equ	269	;# 
   538     010E                     EEDATH          equ	270	;# 
   539     010F                     EEADRH          equ	271	;# 
   540     018C                     EECON1          equ	396	;# 
   541     018D                     EECON2          equ	397	;# 
   542     0000                     INDF            equ	0	;# 
   543     0001                     TMR0            equ	1	;# 
   544     0002                     PCL             equ	2	;# 
   545     0003                     STATUS          equ	3	;# 
   546     0004                     FSR             equ	4	;# 
   547     0005                     PORTA           equ	5	;# 
   548     0006                     PORTB           equ	6	;# 
   549     0007                     PORTC           equ	7	;# 
   550     0008                     PORTD           equ	8	;# 
   551     0009                     PORTE           equ	9	;# 
   552     000A                     PCLATH          equ	10	;# 
   553     000B                     INTCON          equ	11	;# 
   554     000C                     PIR1            equ	12	;# 
   555     000D                     PIR2            equ	13	;# 
   556     000E                     TMR1            equ	14	;# 
   557     000E                     TMR1L           equ	14	;# 
   558     000F                     TMR1H           equ	15	;# 
   559     0010                     T1CON           equ	16	;# 
   560     0011                     TMR2            equ	17	;# 
   561     0012                     T2CON           equ	18	;# 
   562     0013                     SSPBUF          equ	19	;# 
   563     0014                     SSPCON          equ	20	;# 
   564     0015                     CCPR1           equ	21	;# 
   565     0015                     CCPR1L          equ	21	;# 
   566     0016                     CCPR1H          equ	22	;# 
   567     0017                     CCP1CON         equ	23	;# 
   568     0018                     RCSTA           equ	24	;# 
   569     0019                     TXREG           equ	25	;# 
   570     001A                     RCREG           equ	26	;# 
   571     001B                     CCPR2           equ	27	;# 
   572     001B                     CCPR2L          equ	27	;# 
   573     001C                     CCPR2H          equ	28	;# 
   574     001D                     CCP2CON         equ	29	;# 
   575     001E                     ADRESH          equ	30	;# 
   576     001F                     ADCON0          equ	31	;# 
   577     0081                     OPTION_REG      equ	129	;# 
   578     0085                     TRISA           equ	133	;# 
   579     0086                     TRISB           equ	134	;# 
   580     0087                     TRISC           equ	135	;# 
   581     0088                     TRISD           equ	136	;# 
   582     0089                     TRISE           equ	137	;# 
   583     008C                     PIE1            equ	140	;# 
   584     008D                     PIE2            equ	141	;# 
   585     008E                     PCON            equ	142	;# 
   586     0091                     SSPCON2         equ	145	;# 
   587     0092                     PR2             equ	146	;# 
   588     0093                     SSPADD          equ	147	;# 
   589     0094                     SSPSTAT         equ	148	;# 
   590     0098                     TXSTA           equ	152	;# 
   591     0099                     SPBRG           equ	153	;# 
   592     009C                     CMCON           equ	156	;# 
   593     009D                     CVRCON          equ	157	;# 
   594     009E                     ADRESL          equ	158	;# 
   595     009F                     ADCON1          equ	159	;# 
   596     010C                     EEDATA          equ	268	;# 
   597     010D                     EEADR           equ	269	;# 
   598     010E                     EEDATH          equ	270	;# 
   599     010F                     EEADRH          equ	271	;# 
   600     018C                     EECON1          equ	396	;# 
   601     018D                     EECON2          equ	397	;# 
   602     0000                     INDF            equ	0	;# 
   603     0001                     TMR0            equ	1	;# 
   604     0002                     PCL             equ	2	;# 
   605     0003                     STATUS          equ	3	;# 
   606     0004                     FSR             equ	4	;# 
   607     0005                     PORTA           equ	5	;# 
   608     0006                     PORTB           equ	6	;# 
   609     0007                     PORTC           equ	7	;# 
   610     0008                     PORTD           equ	8	;# 
   611     0009                     PORTE           equ	9	;# 
   612     000A                     PCLATH          equ	10	;# 
   613     000B                     INTCON          equ	11	;# 
   614     000C                     PIR1            equ	12	;# 
   615     000D                     PIR2            equ	13	;# 
   616     000E                     TMR1            equ	14	;# 
   617     000E                     TMR1L           equ	14	;# 
   618     000F                     TMR1H           equ	15	;# 
   619     0010                     T1CON           equ	16	;# 
   620     0011                     TMR2            equ	17	;# 
   621     0012                     T2CON           equ	18	;# 
   622     0013                     SSPBUF          equ	19	;# 
   623     0014                     SSPCON          equ	20	;# 
   624     0015                     CCPR1           equ	21	;# 
   625     0015                     CCPR1L          equ	21	;# 
   626     0016                     CCPR1H          equ	22	;# 
   627     0017                     CCP1CON         equ	23	;# 
   628     0018                     RCSTA           equ	24	;# 
   629     0019                     TXREG           equ	25	;# 
   630     001A                     RCREG           equ	26	;# 
   631     001B                     CCPR2           equ	27	;# 
   632     001B                     CCPR2L          equ	27	;# 
   633     001C                     CCPR2H          equ	28	;# 
   634     001D                     CCP2CON         equ	29	;# 
   635     001E                     ADRESH          equ	30	;# 
   636     001F                     ADCON0          equ	31	;# 
   637     0081                     OPTION_REG      equ	129	;# 
   638     0085                     TRISA           equ	133	;# 
   639     0086                     TRISB           equ	134	;# 
   640     0087                     TRISC           equ	135	;# 
   641     0088                     TRISD           equ	136	;# 
   642     0089                     TRISE           equ	137	;# 
   643     008C                     PIE1            equ	140	;# 
   644     008D                     PIE2            equ	141	;# 
   645     008E                     PCON            equ	142	;# 
   646     0091                     SSPCON2         equ	145	;# 
   647     0092                     PR2             equ	146	;# 
   648     0093                     SSPADD          equ	147	;# 
   649     0094                     SSPSTAT         equ	148	;# 
   650     0098                     TXSTA           equ	152	;# 
   651     0099                     SPBRG           equ	153	;# 
   652     009C                     CMCON           equ	156	;# 
   653     009D                     CVRCON          equ	157	;# 
   654     009E                     ADRESL          equ	158	;# 
   655     009F                     ADCON1          equ	159	;# 
   656     010C                     EEDATA          equ	268	;# 
   657     010D                     EEADR           equ	269	;# 
   658     010E                     EEDATH          equ	270	;# 
   659     010F                     EEADRH          equ	271	;# 
   660     018C                     EECON1          equ	396	;# 
   661     018D                     EECON2          equ	397	;# 
   662     0000                     INDF            equ	0	;# 
   663     0001                     TMR0            equ	1	;# 
   664     0002                     PCL             equ	2	;# 
   665     0003                     STATUS          equ	3	;# 
   666     0004                     FSR             equ	4	;# 
   667     0005                     PORTA           equ	5	;# 
   668     0006                     PORTB           equ	6	;# 
   669     0007                     PORTC           equ	7	;# 
   670     0008                     PORTD           equ	8	;# 
   671     0009                     PORTE           equ	9	;# 
   672     000A                     PCLATH          equ	10	;# 
   673     000B                     INTCON          equ	11	;# 
   674     000C                     PIR1            equ	12	;# 
   675     000D                     PIR2            equ	13	;# 
   676     000E                     TMR1            equ	14	;# 
   677     000E                     TMR1L           equ	14	;# 
   678     000F                     TMR1H           equ	15	;# 
   679     0010                     T1CON           equ	16	;# 
   680     0011                     TMR2            equ	17	;# 
   681     0012                     T2CON           equ	18	;# 
   682     0013                     SSPBUF          equ	19	;# 
   683     0014                     SSPCON          equ	20	;# 
   684     0015                     CCPR1           equ	21	;# 
   685     0015                     CCPR1L          equ	21	;# 
   686     0016                     CCPR1H          equ	22	;# 
   687     0017                     CCP1CON         equ	23	;# 
   688     0018                     RCSTA           equ	24	;# 
   689     0019                     TXREG           equ	25	;# 
   690     001A                     RCREG           equ	26	;# 
   691     001B                     CCPR2           equ	27	;# 
   692     001B                     CCPR2L          equ	27	;# 
   693     001C                     CCPR2H          equ	28	;# 
   694     001D                     CCP2CON         equ	29	;# 
   695     001E                     ADRESH          equ	30	;# 
   696     001F                     ADCON0          equ	31	;# 
   697     0081                     OPTION_REG      equ	129	;# 
   698     0085                     TRISA           equ	133	;# 
   699     0086                     TRISB           equ	134	;# 
   700     0087                     TRISC           equ	135	;# 
   701     0088                     TRISD           equ	136	;# 
   702     0089                     TRISE           equ	137	;# 
   703     008C                     PIE1            equ	140	;# 
   704     008D                     PIE2            equ	141	;# 
   705     008E                     PCON            equ	142	;# 
   706     0091                     SSPCON2         equ	145	;# 
   707     0092                     PR2             equ	146	;# 
   708     0093                     SSPADD          equ	147	;# 
   709     0094                     SSPSTAT         equ	148	;# 
   710     0098                     TXSTA           equ	152	;# 
   711     0099                     SPBRG           equ	153	;# 
   712     009C                     CMCON           equ	156	;# 
   713     009D                     CVRCON          equ	157	;# 
   714     009E                     ADRESL          equ	158	;# 
   715     009F                     ADCON1          equ	159	;# 
   716     010C                     EEDATA          equ	268	;# 
   717     010D                     EEADR           equ	269	;# 
   718     010E                     EEDATH          equ	270	;# 
   719     010F                     EEADRH          equ	271	;# 
   720     018C                     EECON1          equ	396	;# 
   721     018D                     EECON2          equ	397	;# 
   722     0000                     INDF            equ	0	;# 
   723     0001                     TMR0            equ	1	;# 
   724     0002                     PCL             equ	2	;# 
   725     0003                     STATUS          equ	3	;# 
   726     0004                     FSR             equ	4	;# 
   727     0005                     PORTA           equ	5	;# 
   728     0006                     PORTB           equ	6	;# 
   729     0007                     PORTC           equ	7	;# 
   730     0008                     PORTD           equ	8	;# 
   731     0009                     PORTE           equ	9	;# 
   732     000A                     PCLATH          equ	10	;# 
   733     000B                     INTCON          equ	11	;# 
   734     000C                     PIR1            equ	12	;# 
   735     000D                     PIR2            equ	13	;# 
   736     000E                     TMR1            equ	14	;# 
   737     000E                     TMR1L           equ	14	;# 
   738     000F                     TMR1H           equ	15	;# 
   739     0010                     T1CON           equ	16	;# 
   740     0011                     TMR2            equ	17	;# 
   741     0012                     T2CON           equ	18	;# 
   742     0013                     SSPBUF          equ	19	;# 
   743     0014                     SSPCON          equ	20	;# 
   744     0015                     CCPR1           equ	21	;# 
   745     0015                     CCPR1L          equ	21	;# 
   746     0016                     CCPR1H          equ	22	;# 
   747     0017                     CCP1CON         equ	23	;# 
   748     0018                     RCSTA           equ	24	;# 
   749     0019                     TXREG           equ	25	;# 
   750     001A                     RCREG           equ	26	;# 
   751     001B                     CCPR2           equ	27	;# 
   752     001B                     CCPR2L          equ	27	;# 
   753     001C                     CCPR2H          equ	28	;# 
   754     001D                     CCP2CON         equ	29	;# 
   755     001E                     ADRESH          equ	30	;# 
   756     001F                     ADCON0          equ	31	;# 
   757     0081                     OPTION_REG      equ	129	;# 
   758     0085                     TRISA           equ	133	;# 
   759     0086                     TRISB           equ	134	;# 
   760     0087                     TRISC           equ	135	;# 
   761     0088                     TRISD           equ	136	;# 
   762     0089                     TRISE           equ	137	;# 
   763     008C                     PIE1            equ	140	;# 
   764     008D                     PIE2            equ	141	;# 
   765     008E                     PCON            equ	142	;# 
   766     0091                     SSPCON2         equ	145	;# 
   767     0092                     PR2             equ	146	;# 
   768     0093                     SSPADD          equ	147	;# 
   769     0094                     SSPSTAT         equ	148	;# 
   770     0098                     TXSTA           equ	152	;# 
   771     0099                     SPBRG           equ	153	;# 
   772     009C                     CMCON           equ	156	;# 
   773     009D                     CVRCON          equ	157	;# 
   774     009E                     ADRESL          equ	158	;# 
   775     009F                     ADCON1          equ	159	;# 
   776     010C                     EEDATA          equ	268	;# 
   777     010D                     EEADR           equ	269	;# 
   778     010E                     EEDATH          equ	270	;# 
   779     010F                     EEADRH          equ	271	;# 
   780     018C                     EECON1          equ	396	;# 
   781     018D                     EECON2          equ	397	;# 
   782                           
   783                           	psect	idataBANK1
   784     1F9C                     __pidataBANK1:
   785                           
   786                           ;initializer for _menu
   787     1F9C  3423               	retlw	low (STR_13| (0+32768))
   788     1F9D  3491               	retlw	high (STR_13| (0+32768))
   789     1F9E  3410               	retlw	low (STR_14| (0+32768))
   790     1F9F  3491               	retlw	high (STR_14| (0+32768))
   791     1FA0  34E0               	retlw	low (STR_15| (0+32768))
   792     1FA1  3490               	retlw	high (STR_15| (0+32768))
   793     1FA2  341A               	retlw	low (STR_16| (0+32768))
   794     1FA3  3491               	retlw	high (STR_16| (0+32768))
   795     1FA4  34D3               	retlw	low (STR_17| (0+32768))
   796     1FA5  3490               	retlw	high (STR_17| (0+32768))
   797                           
   798                           ;initializer for main@F1253
   799     1FA6  344F               	retlw	79
   800     1FA7  344E               	retlw	78
   801     1FA8  3400               	retlw	0
   802                           
   803                           ;initializer for clear_log@F1289
   804     1FA9  34FF               	retlw	255
   805     1FAA  3400               	retlw	0
   806                           
   807                           ;initializer for _log_pos
   808     1FAB  34FF               	retlw	255
   809     1FAC  34FF               	retlw	255
   810                           
   811                           ;initializer for set_time@field
   812     1FAD  3402               	retlw	2
   813                           
   814                           ;initializer for read_digital_keypad@once
   815     1FAE  3401               	retlw	1
   816                           
   817                           	psect	idataBANK3
   818     1F33                     __pidataBANK3:
   819                           
   820                           ;initializer for main@F1256
   821     1F33  3463               	retlw	low (STR_1| (0+32768))
   822     1F34  3491               	retlw	high (STR_1| (0+32768))
   823     1F35  3469               	retlw	low (STR_2| (0+32768))
   824     1F36  3491               	retlw	high (STR_2| (0+32768))
   825     1F37  3454               	retlw	low (STR_3| (0+32768))
   826     1F38  3491               	retlw	high (STR_3| (0+32768))
   827     1F39  3457               	retlw	low (STR_4| (0+32768))
   828     1F3A  3491               	retlw	high (STR_4| (0+32768))
   829     1F3B  345A               	retlw	low (STR_5| (0+32768))
   830     1F3C  3491               	retlw	high (STR_5| (0+32768))
   831     1F3D  345D               	retlw	low (STR_6| (0+32768))
   832     1F3E  3491               	retlw	high (STR_6| (0+32768))
   833     1F3F  3460               	retlw	low (STR_7| (0+32768))
   834     1F40  3491               	retlw	high (STR_7| (0+32768))
   835     0019                     _TXREG          set	25
   836     0001                     _TMR0           set	1
   837     0006                     _PORTB          set	6
   838     0013                     _SSPBUF         set	19
   839     001E                     _ADRESH         set	30
   840     0008                     _PORTD          set	8
   841     0064                     _TXIF           set	100
   842     00C4                     _CREN           set	196
   843     00C7                     _SPEN           set	199
   844     0061                     _TMR2IF         set	97
   845     0091                     _T2CKPS1        set	145
   846     0090                     _T2CKPS0        set	144
   847     005D                     _TMR0IE         set	93
   848     00A5                     _SSPEN          set	165
   849     00A3                     _SSPM3          set	163
   850     00FA                     _nDONE          set	250
   851     00FA                     _GO             set	250
   852     00F8                     _ADON           set	248
   853     0049                     _RE1            set	73
   854     004A                     _RE2            set	74
   855     0092                     _TMR2ON         set	146
   856     005F                     _GIE            set	95
   857     005E                     _PEIE           set	94
   858     0099                     _SPBRG          set	153
   859     0092                     _PR2            set	146
   860     0086                     _TRISB          set	134
   861     0091                     _SSPCON2        set	145
   862     0093                     _SSPADD         set	147
   863     009E                     _ADRESL         set	158
   864     0088                     _TRISD          set	136
   865     04C2                     _BRGH           set	1218
   866     0461                     _TMR2IE         set	1121
   867     040B                     _PSA            set	1035
   868     040D                     _T0CS           set	1037
   869     048E                     _ACKSTAT        set	1166
   870     048C                     _ACKEN          set	1164
   871     048D                     _ACKDT          set	1165
   872     048B                     _RCEN           set	1163
   873     048A                     _PEN            set	1162
   874     0488                     _SEN            set	1160
   875     04A2                     _R_nW           set	1186
   876     04FF                     _ADFM           set	1279
   877     0449                     _TRISE1         set	1097
   878     044A                     _TRISE2         set	1098
   879                           
   880                           	psect	strings
   881     07EE                     __pstrings:
   882     07EE                     stringtab:
   883     07EE                     __stringtab:
   884                           
   885                           ;	String table - string pointers are 2 bytes each
   886     07EE  1BFF               	btfsc	btemp+1,7
   887     07EF  2FF8               	ljmp	stringcode
   888     07F0  1383               	bcf	3,7
   889     07F1  187F               	btfsc	btemp+1,0
   890     07F2  1783               	bsf	3,7
   891     07F3  0800               	movf	0,w
   892     07F4  0A84               	incf	4,f
   893     07F5  1903               	skipnz
   894     07F6  0AFF               	incf	btemp+1,f
   895     07F7  0008               	return
   896     07F8                     stringcode:
   897     07F8  087F               	movf	btemp+1,w
   898     07F9  397F               	andlw	127
   899     07FA  008A               	movwf	10
   900     07FB  0804               	movf	4,w
   901     07FC  0A84               	incf	4,f
   902     07FD  1903               	skipnz
   903     07FE  0AFF               	incf	btemp+1,f
   904     07FF  0082               	movwf	2
   905     0800                     __stringbase:
   906     0800                     __end_of__stringtab:
   907                           
   908                           	psect	stringtext
   909     1000                     __pstringtext:
   910     1000                     STR_26:
   911     1000  344C               	retlw	76	;'L'
   912     1001  3420               	retlw	32	;' '
   913     1002  3454               	retlw	84	;'T'
   914     1003  3449               	retlw	73	;'I'
   915     1004  344D               	retlw	77	;'M'
   916     1005  3445               	retlw	69	;'E'
   917     1006  3420               	retlw	32	;' '
   918     1007  3420               	retlw	32	;' '
   919     1008  3420               	retlw	32	;' '
   920     1009  3420               	retlw	32	;' '
   921     100A  3420               	retlw	32	;' '
   922     100B  3445               	retlw	69	;'E'
   923     100C  3420               	retlw	32	;' '
   924     100D  3420               	retlw	32	;' '
   925     100E  3453               	retlw	83	;'S'
   926     100F  3450               	retlw	80	;'P'
   927     1010  3400               	retlw	0
   928     1011                     STR_11:
   929     1011  3444               	retlw	68	;'D'
   930     1012  344F               	retlw	79	;'O'
   931     1013  3457               	retlw	87	;'W'
   932     1014  344E               	retlw	78	;'N'
   933     1015  344C               	retlw	76	;'L'
   934     1016  344F               	retlw	79	;'O'
   935     1017  3441               	retlw	65	;'A'
   936     1018  3444               	retlw	68	;'D'
   937     1019  3449               	retlw	73	;'I'
   938     101A  344E               	retlw	78	;'N'
   939     101B  3447               	retlw	71	;'G'
   940     101C  342E               	retlw	46	;'.'
   941     101D  342E               	retlw	46	;'.'
   942     101E  342E               	retlw	46	;'.'
   943     101F  342E               	retlw	46	;'.'
   944     1020  342E               	retlw	46	;'.'
   945     1021  3400               	retlw	0
   946     1022                     STR_12:
   947     1022  3445               	retlw	69	;'E'
   948     1023  344E               	retlw	78	;'N'
   949     1024  3454               	retlw	84	;'T'
   950     1025  3445               	retlw	69	;'E'
   951     1026  3452               	retlw	82	;'R'
   952     1027  3420               	retlw	32	;' '
   953     1028  344E               	retlw	78	;'N'
   954     1029  3445               	retlw	69	;'E'
   955     102A  3457               	retlw	87	;'W'
   956     102B  3420               	retlw	32	;' '
   957     102C  3450               	retlw	80	;'P'
   958     102D  3441               	retlw	65	;'A'
   959     102E  3453               	retlw	83	;'S'
   960     102F  3453               	retlw	83	;'S'
   961     1030  3420               	retlw	32	;' '
   962     1031  343A               	retlw	58	;':'
   963     1032  3400               	retlw	0
   964     1033                     STR_36:
   965     1033  3452               	retlw	82	;'R'
   966     1034  3445               	retlw	69	;'E'
   967     1035  342D               	retlw	45	;'-'
   968     1036  3445               	retlw	69	;'E'
   969     1037  344E               	retlw	78	;'N'
   970     1038  3454               	retlw	84	;'T'
   971     1039  3445               	retlw	69	;'E'
   972     103A  3452               	retlw	82	;'R'
   973     103B  3420               	retlw	32	;' '
   974     103C  3450               	retlw	80	;'P'
   975     103D  3441               	retlw	65	;'A'
   976     103E  3453               	retlw	83	;'S'
   977     103F  3453               	retlw	83	;'S'
   978     1040  3420               	retlw	32	;' '
   979     1041  343A               	retlw	58	;':'
   980     1042  3400               	retlw	0
   981     1043                     STR_20:
   982     1043  3459               	retlw	89	;'Y'
   983     1044  346F               	retlw	111	;'o'
   984     1045  3475               	retlw	117	;'u'
   985     1046  3420               	retlw	32	;' '
   986     1047  3461               	retlw	97	;'a'
   987     1048  3472               	retlw	114	;'r'
   988     1049  3465               	retlw	101	;'e'
   989     104A  3420               	retlw	32	;' '
   990     104B  3442               	retlw	66	;'B'
   991     104C  344C               	retlw	76	;'L'
   992     104D  344F               	retlw	79	;'O'
   993     104E  3443               	retlw	67	;'C'
   994     104F  344B               	retlw	75	;'K'
   995     1050  3445               	retlw	69	;'E'
   996     1051  3444               	retlw	68	;'D'
   997     1052  3400               	retlw	0
   998     1053                     STR_37:
   999     1053  3450               	retlw	80	;'P'
  1000     1054  3461               	retlw	97	;'a'
  1001     1055  3473               	retlw	115	;'s'
  1002     1056  3473               	retlw	115	;'s'
  1003     1057  3477               	retlw	119	;'w'
  1004     1058  346F               	retlw	111	;'o'
  1005     1059  3472               	retlw	114	;'r'
  1006     105A  3464               	retlw	100	;'d'
  1007     105B  3420               	retlw	32	;' '
  1008     105C  3463               	retlw	99	;'c'
  1009     105D  3468               	retlw	104	;'h'
  1010     105E  3461               	retlw	97	;'a'
  1011     105F  346E               	retlw	110	;'n'
  1012     1060  3467               	retlw	103	;'g'
  1013     1061  3465               	retlw	101	;'e'
  1014     1062  3400               	retlw	0
  1015     1063                     STR_23:
  1016     1063  3457               	retlw	87	;'W'
  1017     1064  3472               	retlw	114	;'r'
  1018     1065  346F               	retlw	111	;'o'
  1019     1066  346E               	retlw	110	;'n'
  1020     1067  3467               	retlw	103	;'g'
  1021     1068  3420               	retlw	32	;' '
  1022     1069  3450               	retlw	80	;'P'
  1023     106A  3461               	retlw	97	;'a'
  1024     106B  3473               	retlw	115	;'s'
  1025     106C  3473               	retlw	115	;'s'
  1026     106D  3477               	retlw	119	;'w'
  1027     106E  346F               	retlw	111	;'o'
  1028     106F  3472               	retlw	114	;'r'
  1029     1070  3464               	retlw	100	;'d'
  1030     1071  3400               	retlw	0
  1031     1072                     STR_10:
  1032     1072  3445               	retlw	69	;'E'
  1033     1073  346E               	retlw	110	;'n'
  1034     1074  3474               	retlw	116	;'t'
  1035     1075  3465               	retlw	101	;'e'
  1036     1076  3472               	retlw	114	;'r'
  1037     1077  3420               	retlw	32	;' '
  1038     1078  3450               	retlw	80	;'P'
  1039     1079  3461               	retlw	97	;'a'
  1040     107A  3473               	retlw	115	;'s'
  1041     107B  3473               	retlw	115	;'s'
  1042     107C  3477               	retlw	119	;'w'
  1043     107D  346F               	retlw	111	;'o'
  1044     107E  3472               	retlw	114	;'r'
  1045     107F  3464               	retlw	100	;'d'
  1046     1080  3400               	retlw	0
  1047     1081                     STR_39:
  1048     1081  344E               	retlw	78	;'N'
  1049     1082  344F               	retlw	79	;'O'
  1050     1083  3454               	retlw	84	;'T'
  1051     1084  3420               	retlw	32	;' '
  1052     1085  344D               	retlw	77	;'M'
  1053     1086  3441               	retlw	65	;'A'
  1054     1087  3454               	retlw	84	;'T'
  1055     1088  3443               	retlw	67	;'C'
  1056     1089  3448               	retlw	72	;'H'
  1057     108A  3445               	retlw	69	;'E'
  1058     108B  3444               	retlw	68	;'D'
  1059     108C  342E               	retlw	46	;'.'
  1060     108D  342E               	retlw	46	;'.'
  1061     108E  3400               	retlw	0
  1062     108F                     STR_19:
  1063     108F  344C               	retlw	76	;'L'
  1064     1090  344F               	retlw	79	;'O'
  1065     1091  3447               	retlw	71	;'G'
  1066     1092  3449               	retlw	73	;'I'
  1067     1093  344E               	retlw	78	;'N'
  1068     1094  3420               	retlw	32	;' '
  1069     1095  3453               	retlw	83	;'S'
  1070     1096  3455               	retlw	85	;'U'
  1071     1097  3443               	retlw	67	;'C'
  1072     1098  3443               	retlw	67	;'C'
  1073     1099  3445               	retlw	69	;'E'
  1074     109A  3453               	retlw	83	;'S'
  1075     109B  3453               	retlw	83	;'S'
  1076     109C  3400               	retlw	0
  1077     109D                     STR_27:
  1078     109D  344E               	retlw	78	;'N'
  1079     109E  346F               	retlw	111	;'o'
  1080     109F  3420               	retlw	32	;' '
  1081     10A0  346C               	retlw	108	;'l'
  1082     10A1  346F               	retlw	111	;'o'
  1083     10A2  3467               	retlw	103	;'g'
  1084     10A3  3473               	retlw	115	;'s'
  1085     10A4  3420               	retlw	32	;' '
  1086     10A5  3466               	retlw	102	;'f'
  1087     10A6  346F               	retlw	111	;'o'
  1088     10A7  3475               	retlw	117	;'u'
  1089     10A8  346E               	retlw	110	;'n'
  1090     10A9  3464               	retlw	100	;'d'
  1091     10AA  3400               	retlw	0
  1092     10AB                     STR_24:
  1093     10AB  3461               	retlw	97	;'a'
  1094     10AC  3474               	retlw	116	;'t'
  1095     10AD  3474               	retlw	116	;'t'
  1096     10AE  3465               	retlw	101	;'e'
  1097     10AF  346D               	retlw	109	;'m'
  1098     10B0  3470               	retlw	112	;'p'
  1099     10B1  3474               	retlw	116	;'t'
  1100     10B2  3473               	retlw	115	;'s'
  1101     10B3  3420               	retlw	32	;' '
  1102     10B4  346C               	retlw	108	;'l'
  1103     10B5  3465               	retlw	101	;'e'
  1104     10B6  3466               	retlw	102	;'f'
  1105     10B7  3474               	retlw	116	;'t'
  1106     10B8  3400               	retlw	0
  1107     10B9                     STR_38:
  1108     10B9  3473               	retlw	115	;'s'
  1109     10BA  3475               	retlw	117	;'u'
  1110     10BB  3463               	retlw	99	;'c'
  1111     10BC  3463               	retlw	99	;'c'
  1112     10BD  3465               	retlw	101	;'e'
  1113     10BE  3473               	retlw	115	;'s'
  1114     10BF  3473               	retlw	115	;'s'
  1115     10C0  3466               	retlw	102	;'f'
  1116     10C1  3475               	retlw	117	;'u'
  1117     10C2  346C               	retlw	108	;'l'
  1118     10C3  342E               	retlw	46	;'.'
  1119     10C4  342E               	retlw	46	;'.'
  1120     10C5  3400               	retlw	0
  1121     10C6                     STR_28:
  1122     10C6  344C               	retlw	76	;'L'
  1123     10C7  346F               	retlw	111	;'o'
  1124     10C8  3467               	retlw	103	;'g'
  1125     10C9  3473               	retlw	115	;'s'
  1126     10CA  3420               	retlw	32	;' '
  1127     10CB  3443               	retlw	67	;'C'
  1128     10CC  346C               	retlw	108	;'l'
  1129     10CD  3465               	retlw	101	;'e'
  1130     10CE  3461               	retlw	97	;'a'
  1131     10CF  3472               	retlw	114	;'r'
  1132     10D0  3465               	retlw	101	;'e'
  1133     10D1  3464               	retlw	100	;'d'
  1134     10D2  3400               	retlw	0
  1135     10D3                     STR_17:
  1136     10D3  3443               	retlw	67	;'C'
  1137     10D4  3468               	retlw	104	;'h'
  1138     10D5  3461               	retlw	97	;'a'
  1139     10D6  346E               	retlw	110	;'n'
  1140     10D7  3467               	retlw	103	;'g'
  1141     10D8  3465               	retlw	101	;'e'
  1142     10D9  3420               	retlw	32	;' '
  1143     10DA  3450               	retlw	80	;'P'
  1144     10DB  3461               	retlw	97	;'a'
  1145     10DC  3473               	retlw	115	;'s'
  1146     10DD  3477               	retlw	119	;'w'
  1147     10DE  3464               	retlw	100	;'d'
  1148     10DF  3400               	retlw	0
  1149     10E0                     STR_15:
  1150     10E0  3444               	retlw	68	;'D'
  1151     10E1  346F               	retlw	111	;'o'
  1152     10E2  3477               	retlw	119	;'w'
  1153     10E3  346E               	retlw	110	;'n'
  1154     10E4  346C               	retlw	108	;'l'
  1155     10E5  346F               	retlw	111	;'o'
  1156     10E6  3461               	retlw	97	;'a'
  1157     10E7  3464               	retlw	100	;'d'
  1158     10E8  3420               	retlw	32	;' '
  1159     10E9  344C               	retlw	76	;'L'
  1160     10EA  346F               	retlw	111	;'o'
  1161     10EB  3467               	retlw	103	;'g'
  1162     10EC  3400               	retlw	0
  1163     10ED                     STR_29:
  1164     10ED  3453               	retlw	83	;'S'
  1165     10EE  3475               	retlw	117	;'u'
  1166     10EF  3463               	retlw	99	;'c'
  1167     10F0  3463               	retlw	99	;'c'
  1168     10F1  3465               	retlw	101	;'e'
  1169     10F2  3473               	retlw	115	;'s'
  1170     10F3  3473               	retlw	115	;'s'
  1171     10F4  3466               	retlw	102	;'f'
  1172     10F5  3475               	retlw	117	;'u'
  1173     10F6  346C               	retlw	108	;'l'
  1174     10F7  346C               	retlw	108	;'l'
  1175     10F8  3479               	retlw	121	;'y'
  1176     10F9  3400               	retlw	0
  1177     10FA                     STR_35:
  1178     10FA  3454               	retlw	84	;'T'
  1179     10FB  3469               	retlw	105	;'i'
  1180     10FC  346D               	retlw	109	;'m'
  1181     10FD  3465               	retlw	101	;'e'
  1182     10FE  3420               	retlw	32	;' '
  1183     10FF  3453               	retlw	83	;'S'
  1184     1100  3461               	retlw	97	;'a'
  1185     1101  3476               	retlw	118	;'v'
  1186     1102  3465               	retlw	101	;'e'
  1187     1103  3464               	retlw	100	;'d'
  1188     1104  3421               	retlw	33	;'!'
  1189     1105  3400               	retlw	0
  1190     1106                     STR_34:
  1191     1106  3453               	retlw	83	;'S'
  1192     1107  3445               	retlw	69	;'E'
  1193     1108  3454               	retlw	84	;'T'
  1194     1109  3420               	retlw	32	;' '
  1195     110A  3454               	retlw	84	;'T'
  1196     110B  3449               	retlw	73	;'I'
  1197     110C  344D               	retlw	77	;'M'
  1198     110D  3445               	retlw	69	;'E'
  1199     110E  343A               	retlw	58	;':'
  1200     110F  3400               	retlw	0
  1201     1110                     STR_14:
  1202     1110  3443               	retlw	67	;'C'
  1203     1111  346C               	retlw	108	;'l'
  1204     1112  3465               	retlw	101	;'e'
  1205     1113  3461               	retlw	97	;'a'
  1206     1114  3472               	retlw	114	;'r'
  1207     1115  3420               	retlw	32	;' '
  1208     1116  344C               	retlw	76	;'L'
  1209     1117  346F               	retlw	111	;'o'
  1210     1118  3467               	retlw	103	;'g'
  1211     1119  3400               	retlw	0
  1212     111A                     STR_16:
  1213     111A  3453               	retlw	83	;'S'
  1214     111B  3465               	retlw	101	;'e'
  1215     111C  3474               	retlw	116	;'t'
  1216     111D  3420               	retlw	32	;' '
  1217     111E  3454               	retlw	84	;'T'
  1218     111F  3469               	retlw	105	;'i'
  1219     1120  346D               	retlw	109	;'m'
  1220     1121  3465               	retlw	101	;'e'
  1221     1122  3400               	retlw	0
  1222     1123                     STR_13:
  1223     1123  3456               	retlw	86	;'V'
  1224     1124  3469               	retlw	105	;'i'
  1225     1125  3465               	retlw	101	;'e'
  1226     1126  3477               	retlw	119	;'w'
  1227     1127  3420               	retlw	32	;' '
  1228     1128  344C               	retlw	76	;'L'
  1229     1129  346F               	retlw	111	;'o'
  1230     112A  3467               	retlw	103	;'g'
  1231     112B  3400               	retlw	0
  1232     112C                     STR_21:
  1233     112C  3457               	retlw	87	;'W'
  1234     112D  3461               	retlw	97	;'a'
  1235     112E  3469               	retlw	105	;'i'
  1236     112F  3474               	retlw	116	;'t'
  1237     1130  3420               	retlw	32	;' '
  1238     1131  3466               	retlw	102	;'f'
  1239     1132  346F               	retlw	111	;'o'
  1240     1133  3472               	retlw	114	;'r'
  1241     1134  3400               	retlw	0
  1242     1135                     STR_30:
  1243     1135  344E               	retlw	78	;'N'
  1244     1136  344F               	retlw	79	;'O'
  1245     1137  3420               	retlw	32	;' '
  1246     1138  344C               	retlw	76	;'L'
  1247     1139  344F               	retlw	79	;'O'
  1248     113A  3447               	retlw	71	;'G'
  1249     113B  3453               	retlw	83	;'S'
  1250     113C  3400               	retlw	0
  1251     113D                     STR_32:
  1252     113D  344C               	retlw	76	;'L'
  1253     113E  346F               	retlw	111	;'o'
  1254     113F  3467               	retlw	103	;'g'
  1255     1140  343A               	retlw	58	;':'
  1256     1141  3420               	retlw	32	;' '
  1257     1142  340A               	retlw	10
  1258     1143  3400               	retlw	0
  1259     1144                     STR_31:
  1260     1144  3446               	retlw	70	;'F'
  1261     1145  344F               	retlw	79	;'O'
  1262     1146  3455               	retlw	85	;'U'
  1263     1147  344E               	retlw	78	;'N'
  1264     1148  3444               	retlw	68	;'D'
  1265     1149  3400               	retlw	0
  1266     114A                     STR_22:
  1267     114A  3473               	retlw	115	;'s'
  1268     114B  3465               	retlw	101	;'e'
  1269     114C  3463               	retlw	99	;'c'
  1270     114D  3473               	retlw	115	;'s'
  1271     114E  3400               	retlw	0
  1272     114F                     STR_8:
  1273     114F  3431               	retlw	49	;'1'
  1274     1150  3430               	retlw	48	;'0'
  1275     1151  3431               	retlw	49	;'1'
  1276     1152  3430               	retlw	48	;'0'
  1277     1153  3400               	retlw	0
  1278     1154                     STR_3:
  1279     1154  3447               	retlw	71	;'G'
  1280     1155  3431               	retlw	49	;'1'
  1281     1156  3400               	retlw	0
  1282     1157                     STR_4:
  1283     1157  3447               	retlw	71	;'G'
  1284     1158  3432               	retlw	50	;'2'
  1285     1159  3400               	retlw	0
  1286     115A                     STR_5:
  1287     115A  3447               	retlw	71	;'G'
  1288     115B  3433               	retlw	51	;'3'
  1289     115C  3400               	retlw	0
  1290     115D                     STR_6:
  1291     115D  3447               	retlw	71	;'G'
  1292     115E  3434               	retlw	52	;'4'
  1293     115F  3400               	retlw	0
  1294     1160                     STR_7:
  1295     1160  3447               	retlw	71	;'G'
  1296     1161  3435               	retlw	53	;'5'
  1297     1162  3400               	retlw	0
  1298     1163                     STR_1:
  1299     1163  3447               	retlw	71	;'G'
  1300     1164  344E               	retlw	78	;'N'
  1301     1165  3400               	retlw	0
  1302     1166                     STR_9:
  1303     1166  3443               	retlw	67	;'C'
  1304     1167  344F               	retlw	79	;'O'
  1305     1168  3400               	retlw	0
  1306     1169                     STR_2:
  1307     1169  3447               	retlw	71	;'G'
  1308     116A  3452               	retlw	82	;'R'
  1309     116B  3400               	retlw	0
  1310     1072                     STR_25          equ	STR_10
  1311     1002                     STR_18          equ	STR_26+2
  1312     1142                     STR_33          equ	STR_32+5
  1313                           
  1314                           	psect	cinit
  1315     000F                     start_initialization:	
  1316                           ; #config settings
  1317                           
  1318     000F                     __initialization:
  1319                           
  1320                           ; Initialize objects allocated to BANK3
  1321     000F  1783               	bsf	3,7	;select IRP bank2
  1322     0010  30BD               	movlw	low (__pdataBANK3+14)
  1323     0011  00FD               	movwf	btemp+-1
  1324     0012  301F               	movlw	high __pidataBANK3
  1325     0013  00FE               	movwf	btemp
  1326     0014  3033               	movlw	low __pidataBANK3
  1327     0015  00FF               	movwf	btemp+1
  1328     0016  30AF               	movlw	low __pdataBANK3
  1329     0017  0084               	movwf	4
  1330     0018  160A  158A  278D  120A  118A  	fcall	init_ram0
  1331                           
  1332                           ; Initialize objects allocated to BANK1
  1333     001D  1383               	bcf	3,7	;select IRP bank0
  1334     001E  30EE               	movlw	low (__pdataBANK1+19)
  1335     001F  00FD               	movwf	btemp+-1
  1336     0020  301F               	movlw	high __pidataBANK1
  1337     0021  00FE               	movwf	btemp
  1338     0022  309C               	movlw	low __pidataBANK1
  1339     0023  00FF               	movwf	btemp+1
  1340     0024  30DB               	movlw	low __pdataBANK1
  1341     0025  0084               	movwf	4
  1342     0026  160A  158A  278D  120A  118A  	fcall	init_ram0
  1343                           
  1344                           ; Clear objects allocated to BANK3
  1345     002B  1783               	bsf	3,7	;select IRP bank2
  1346     002C  30BD               	movlw	low __pbssBANK3
  1347     002D  0084               	movwf	4
  1348     002E  30C8               	movlw	low (__pbssBANK3+11)
  1349     002F  160A  158A  26D3  120A  118A  	fcall	clear_ram0
  1350                           
  1351                           ; Clear objects allocated to BANK1
  1352     0034  1383               	bcf	3,7	;select IRP bank0
  1353     0035  30A0               	movlw	low __pbssBANK1
  1354     0036  0084               	movwf	4
  1355     0037  30DB               	movlw	low (__pbssBANK1+59)
  1356     0038  160A  158A  26D3  120A  118A  	fcall	clear_ram0
  1357                           
  1358                           ; Clear objects allocated to BANK0
  1359     003D  01D2               	clrf	__pbssBANK0& (0+127)
  1360                           
  1361                           ; Clear objects allocated to COMMON
  1362     003E  01FA               	clrf	__pbssCOMMON& (0+127)
  1363     003F  01FB               	clrf	(__pbssCOMMON+1)& (0+127)
  1364     0040                     end_of_initialization:	
  1365                           ;End of C runtime variable initialization code
  1366                           
  1367     0040                     __end_of__initialization:
  1368     0040  0183               	clrf	3
  1369     0041  120A  118A  2844   	ljmp	_main	;jump to C main() function
  1370                           
  1371                           	psect	bssCOMMON
  1372     007A                     __pbssCOMMON:
  1373     007A                     login@i:
  1374     007A                     	ds	1
  1375     007B                     _menu_pos:
  1376     007B                     	ds	1
  1377                           
  1378                           	psect	bssBANK0
  1379     0052                     __pbssBANK0:
  1380     0052                     change_pwd@i:
  1381     0052                     	ds	1
  1382                           
  1383                           	psect	bssBANK1
  1384     00A0                     __pbssBANK1:
  1385     00A0                     _clock_reg:
  1386     00A0                     	ds	3
  1387     00A3                     isr@count:
  1388     00A3                     	ds	2
  1389     00A5                     _events_logged:
  1390     00A5                     	ds	2
  1391     00A7                     change_pwd@clear:
  1392     00A7                     	ds	1
  1393     00A8                     set_time@blink:
  1394     00A8                     	ds	1
  1395     00A9                     view_log@log_pos:
  1396     00A9                     	ds	1
  1397     00AA                     login@attempts_left:
  1398     00AA                     	ds	1
  1399     00AB                     _clear_flag:
  1400     00AB                     	ds	1
  1401     00AC                     _return_time:
  1402     00AC                     	ds	1
  1403     00AD                     _sec:
  1404     00AD                     	ds	1
  1405     00AE                     _get_log:
  1406     00AE                     	ds	17
  1407     00BF                     set_time@settime:
  1408     00BF                     	ds	9
  1409     00C8                     _time:
  1410     00C8                     	ds	7
  1411     00CF                     change_pwd@reenter_pwd:
  1412     00CF                     	ds	4
  1413     00D3                     change_pwd@new_pwd:
  1414     00D3                     	ds	4
  1415     00D7                     login@user_password:
  1416     00D7                     	ds	4
  1417                           
  1418                           	psect	dataBANK1
  1419     00DB                     __pdataBANK1:
  1420     00DB                     _menu:
  1421     00DB                     	ds	10
  1422     00E5                     main@F1253:
  1423     00E5                     	ds	3
  1424     00E8                     clear_log@F1289:
  1425     00E8                     	ds	2
  1426     00EA                     _log_pos:
  1427     00EA                     	ds	2
  1428     00EC                     set_time@field:
  1429     00EC                     	ds	1
  1430     00ED                     read_digital_keypad@once:
  1431     00ED                     	ds	1
  1432                           
  1433                           	psect	bssBANK3
  1434     01BD                     __pbssBANK3:
  1435     01BD                     _log:
  1436     01BD                     	ds	11
  1437                           
  1438                           	psect	dataBANK3
  1439     01AF                     __pdataBANK3:
  1440     01AF                     main@F1256:
  1441     01AF                     	ds	14
  1442                           
  1443                           	psect	inittext
  1444     1F89                     init_fetch0:	
  1445                           ;	Called with low address in FSR and high address in W
  1446                           
  1447     1F89  087E               	movf	btemp,w
  1448     1F8A  008A               	movwf	10
  1449     1F8B  087F               	movf	btemp+1,w
  1450     1F8C  0082               	movwf	2
  1451     1F8D                     init_ram0:	
  1452                           ;Called with:
  1453                           ;	high address of idata address in btemp 
  1454                           ;	low address of idata address in btemp+1 
  1455                           ;	low address of data in FSR
  1456                           ;	high address + 1 of data in btemp-1
  1457                           
  1458     1F8D  160A  158A  2789  160A  158A  	fcall	init_fetch0
  1459     1F92  0080               	movwf	0
  1460     1F93  0A84               	incf	4,f
  1461     1F94  0804               	movf	4,w
  1462     1F95  067D               	xorwf	btemp+-1,w
  1463     1F96  1903               	btfsc	3,2
  1464     1F97  3400               	retlw	0
  1465     1F98  0AFF               	incf	btemp+1,f
  1466     1F99  1903               	btfsc	3,2
  1467     1F9A  0AFE               	incf	btemp,f
  1468     1F9B  2F8D               	goto	init_ram0
  1469                           
  1470                           	psect	clrtext
  1471     1ED3                     clear_ram0:	
  1472                           ;	Called with FSR containing the base address, and
  1473                           ;	W with the last address+1
  1474                           
  1475     1ED3  0064               	clrwdt	;clear the watchdog before getting into this loop
  1476     1ED4                     clrloop0:
  1477     1ED4  0180               	clrf	0	;clear RAM location pointed to by FSR
  1478     1ED5  0A84               	incf	4,f	;increment pointer
  1479     1ED6  0604               	xorwf	4,w	;XOR with final address
  1480     1ED7  1903               	btfsc	3,2	;have we reached the end yet?
  1481     1ED8  3400               	retlw	0	;all done for this memory range, return
  1482     1ED9  0604               	xorwf	4,w	;XOR again to restore value
  1483     1EDA  2ED4               	goto	clrloop0	;do the next byte
  1484                           
  1485                           	psect	cstackBANK3
  1486     0190                     __pcstackBANK3:
  1487     0190                     main@gear:
  1488                           
  1489                           ; 14 bytes @ 0x0
  1490     0190                     	ds	14
  1491     019E                     main@menu_position:
  1492                           
  1493                           ; 1 bytes @ 0xE
  1494     019E                     	ds	1
  1495     019F                     main@stored:
  1496                           
  1497                           ; 1 bytes @ 0xF
  1498     019F                     	ds	1
  1499     01A0                     main@i:
  1500                           
  1501                           ; 2 bytes @ 0x10
  1502     01A0                     	ds	2
  1503     01A2                     main@delay:
  1504                           
  1505                           ; 4 bytes @ 0x12
  1506     01A2                     	ds	4
  1507     01A6                     main@event:
  1508                           
  1509                           ; 3 bytes @ 0x16
  1510     01A6                     	ds	3
  1511     01A9                     main@key:
  1512                           
  1513                           ; 1 bytes @ 0x19
  1514     01A9                     	ds	1
  1515     01AA                     main@gr:
  1516                           
  1517                           ; 1 bytes @ 0x1A
  1518     01AA                     	ds	1
  1519     01AB                     main@speed:
  1520                           
  1521                           ; 1 bytes @ 0x1B
  1522     01AB                     	ds	1
  1523     01AC                     main@reset_flag:
  1524                           
  1525                           ; 1 bytes @ 0x1C
  1526     01AC                     	ds	1
  1527     01AD                     main@control_flag:
  1528                           
  1529                           ; 1 bytes @ 0x1D
  1530     01AD                     	ds	1
  1531     01AE                     main@pressed_key:
  1532                           
  1533                           ; 1 bytes @ 0x1E
  1534     01AE                     	ds	1
  1535                           
  1536                           	psect	cstackCOMMON
  1537     0070                     __pcstackCOMMON:
  1538     0070                     ?_init_ds1307:
  1539     0070                     ?_init_adc:	
  1540                           ; 1 bytes @ 0x0
  1541                           
  1542     0070                     ?_init_clcd:	
  1543                           ; 1 bytes @ 0x0
  1544                           
  1545     0070                     ?_init_digital_keypad:	
  1546                           ; 1 bytes @ 0x0
  1547                           
  1548     0070                     ?_init_timer2:	
  1549                           ; 1 bytes @ 0x0
  1550                           
  1551     0070                     ?_read_digital_keypad:	
  1552                           ; 1 bytes @ 0x0
  1553                           
  1554     0070                     ?_clear_screen:	
  1555                           ; 1 bytes @ 0x0
  1556                           
  1557     0070                     ?_clear_log:	
  1558                           ; 1 bytes @ 0x0
  1559                           
  1560     0070                     ?_download_log:	
  1561                           ; 1 bytes @ 0x0
  1562                           
  1563     0070                     ?_i2c_stop:	
  1564                           ; 1 bytes @ 0x0
  1565                           
  1566     0070                     ?_read_ds1307:	
  1567                           ; 1 bytes @ 0x0
  1568                           
  1569     0070                     ?_ext_eeprom_24C02_read:	
  1570                           ; 1 bytes @ 0x0
  1571                           
  1572     0070                     ?_fetch_logs:	
  1573                           ; 1 bytes @ 0x0
  1574                           
  1575     0070                     ?_init_config:	
  1576                           ; 1 bytes @ 0x0
  1577                           
  1578     0070                     ?_main:	
  1579                           ; 1 bytes @ 0x0
  1580                           
  1581     0070                     ?_init_display_controller:	
  1582                           ; 1 bytes @ 0x0
  1583                           
  1584     0070                     ?_i2c_wait_for_idle:	
  1585                           ; 1 bytes @ 0x0
  1586                           
  1587     0070                     ?_i2c_start:	
  1588                           ; 1 bytes @ 0x0
  1589                           
  1590     0070                     ?_i2c_rep_start:	
  1591                           ; 1 bytes @ 0x0
  1592                           
  1593     0070                     ?_i2c_read:	
  1594                           ; 1 bytes @ 0x0
  1595                           
  1596     0070                     ?_get_time:	
  1597                           ; 1 bytes @ 0x0
  1598                           
  1599     0070                     ?_display_time:	
  1600                           ; 1 bytes @ 0x0
  1601                           
  1602     0070                     ?_store_event:	
  1603                           ; 1 bytes @ 0x0
  1604                           
  1605     0070                     ?_isr:	
  1606                           ; 1 bytes @ 0x0
  1607                           
  1608     0070                     ?_putchar:	
  1609                           ; 1 bytes @ 0x0
  1610                           
  1611     0070                     ?_i2c_write:	
  1612                           ; 1 bytes @ 0x0
  1613                           
  1614     0070                     clear_log@key:	
  1615                           ; 2 bytes @ 0x0
  1616                           
  1617     0070                     ??_isr:	
  1618                           ; 1 bytes @ 0x0
  1619                           
  1620                           
  1621                           ; 1 bytes @ 0x0
  1622     0070                     	ds	2
  1623     0072                     ?_strcpy:
  1624     0072                     ?_clcd_write:	
  1625                           ; 1 bytes @ 0x2
  1626                           
  1627     0072                     ?___bmul:	
  1628                           ; 1 bytes @ 0x2
  1629                           
  1630     0072                     ?_read_adc:	
  1631                           ; 1 bytes @ 0x2
  1632                           
  1633     0072                     ?_strncpy:	
  1634                           ; 2 bytes @ 0x2
  1635                           
  1636     0072                     ?_strncmp:	
  1637                           ; 2 bytes @ 0x2
  1638                           
  1639     0072                     ?___awdiv:	
  1640                           ; 2 bytes @ 0x2
  1641                           
  1642     0072                     ?___awmod:	
  1643                           ; 2 bytes @ 0x2
  1644                           
  1645     0072                     ?___lldiv:	
  1646                           ; 2 bytes @ 0x2
  1647                           
  1648     0072                     clcd_write@mode:	
  1649                           ; 4 bytes @ 0x2
  1650                           
  1651     0072                     i2c_read@ack:	
  1652                           ; 1 bytes @ 0x2
  1653                           
  1654     0072                     i2c_write@data:	
  1655                           ; 1 bytes @ 0x2
  1656                           
  1657     0072                     putchar@data:	
  1658                           ; 1 bytes @ 0x2
  1659                           
  1660     0072                     ___bmul@multiplicand:	
  1661                           ; 1 bytes @ 0x2
  1662                           
  1663     0072                     strcpy@dest:	
  1664                           ; 1 bytes @ 0x2
  1665                           
  1666     0072                     strncmp@l:	
  1667                           ; 1 bytes @ 0x2
  1668                           
  1669     0072                     ___awdiv@divisor:	
  1670                           ; 1 bytes @ 0x2
  1671                           
  1672     0072                     ___awmod@divisor:	
  1673                           ; 2 bytes @ 0x2
  1674                           
  1675     0072                     strncpy@d:	
  1676                           ; 2 bytes @ 0x2
  1677                           
  1678     0072                     ___lldiv@divisor:	
  1679                           ; 2 bytes @ 0x2
  1680                           
  1681     0072                     ??_init_adc:	
  1682                           ; 4 bytes @ 0x2
  1683                           
  1684     0072                     ??_init_digital_keypad:	
  1685                           ; 1 bytes @ 0x2
  1686                           
  1687     0072                     ??_init_timer2:	
  1688                           ; 1 bytes @ 0x2
  1689                           
  1690     0072                     ??_read_digital_keypad:	
  1691                           ; 1 bytes @ 0x2
  1692                           
  1693     0072                     ??_i2c_stop:	
  1694                           ; 1 bytes @ 0x2
  1695                           
  1696     0072                     ??_i2c_wait_for_idle:	
  1697                           ; 1 bytes @ 0x2
  1698                           
  1699     0072                     ??_i2c_start:	
  1700                           ; 1 bytes @ 0x2
  1701                           
  1702     0072                     ??_i2c_rep_start:	
  1703                           ; 1 bytes @ 0x2
  1704                           
  1705     0072                     ??_i2c_read:	
  1706                           ; 1 bytes @ 0x2
  1707                           
  1708     0072                     ??_i2c_write:	
  1709                           ; 1 bytes @ 0x2
  1710                           
  1711     0072                     ??_putchar:	
  1712                           ; 1 bytes @ 0x2
  1713                           
  1714                           
  1715                           ; 1 bytes @ 0x2
  1716     0072                     	ds	1
  1717     0073                     ?_write_ds1307:
  1718     0073                     ?_puts:	
  1719                           ; 1 bytes @ 0x3
  1720                           
  1721     0073                     ?_ext_eeprom_24C02_byte_write:	
  1722                           ; 1 bytes @ 0x3
  1723                           
  1724     0073                     i2c_read@data:	
  1725                           ; 1 bytes @ 0x3
  1726                           
  1727     0073                     write_ds1307@data:	
  1728                           ; 1 bytes @ 0x3
  1729                           
  1730     0073                     read_digital_keypad@mode:	
  1731                           ; 1 bytes @ 0x3
  1732                           
  1733     0073                     ext_eeprom_24C02_byte_write@data:	
  1734                           ; 1 bytes @ 0x3
  1735                           
  1736     0073                     ___bmul@product:	
  1737                           ; 1 bytes @ 0x3
  1738                           
  1739     0073                     strncmp@r:	
  1740                           ; 1 bytes @ 0x3
  1741                           
  1742     0073                     puts@s:	
  1743                           ; 1 bytes @ 0x3
  1744                           
  1745     0073                     strcpy@src:	
  1746                           ; 2 bytes @ 0x3
  1747                           
  1748     0073                     ??_clcd_write:	
  1749                           ; 2 bytes @ 0x3
  1750                           
  1751     0073                     ??___bmul:	
  1752                           ; 1 bytes @ 0x3
  1753                           
  1754                           
  1755                           ; 1 bytes @ 0x3
  1756     0073                     	ds	1
  1757     0074                     read_ds1307@addr:
  1758     0074                     write_ds1307@addr:	
  1759                           ; 1 bytes @ 0x4
  1760                           
  1761     0074                     ext_eeprom_24C02_read@addr:	
  1762                           ; 1 bytes @ 0x4
  1763                           
  1764     0074                     ext_eeprom_24C02_byte_write@addr:	
  1765                           ; 1 bytes @ 0x4
  1766                           
  1767     0074                     ___bmul@multiplier:	
  1768                           ; 1 bytes @ 0x4
  1769                           
  1770     0074                     read_adc@adc_reg_val:	
  1771                           ; 1 bytes @ 0x4
  1772                           
  1773     0074                     ___awdiv@dividend:	
  1774                           ; 2 bytes @ 0x4
  1775                           
  1776     0074                     ___awmod@dividend:	
  1777                           ; 2 bytes @ 0x4
  1778                           
  1779     0074                     strncmp@n:	
  1780                           ; 2 bytes @ 0x4
  1781                           
  1782     0074                     strncpy@s:	
  1783                           ; 2 bytes @ 0x4
  1784                           
  1785     0074                     ??_read_adc:	
  1786                           ; 2 bytes @ 0x4
  1787                           
  1788     0074                     ??_read_ds1307:	
  1789                           ; 1 bytes @ 0x4
  1790                           
  1791     0074                     ??_write_ds1307:	
  1792                           ; 1 bytes @ 0x4
  1793                           
  1794     0074                     ??_ext_eeprom_24C02_read:	
  1795                           ; 1 bytes @ 0x4
  1796                           
  1797     0074                     ??_ext_eeprom_24C02_byte_write:	
  1798                           ; 1 bytes @ 0x4
  1799                           
  1800                           
  1801                           ; 1 bytes @ 0x4
  1802     0074                     	ds	1
  1803     0075                     ?_ext_eeprom_24C02_str_write:
  1804     0075                     clcd_write@byte:	
  1805                           ; 1 bytes @ 0x5
  1806                           
  1807     0075                     read_ds1307@data:	
  1808                           ; 1 bytes @ 0x5
  1809                           
  1810     0075                     ext_eeprom_24C02_read@data:	
  1811                           ; 1 bytes @ 0x5
  1812                           
  1813     0075                     ext_eeprom_24C02_str_write@str:	
  1814                           ; 1 bytes @ 0x5
  1815                           
  1816     0075                     ??_strcpy:	
  1817                           ; 2 bytes @ 0x5
  1818                           
  1819     0075                     ??_puts:	
  1820                           ; 1 bytes @ 0x5
  1821                           
  1822                           
  1823                           ; 1 bytes @ 0x5
  1824     0075                     	ds	1
  1825     0076                     ?_clcd_print:
  1826     0076                     ?___xxtofl:	
  1827                           ; 1 bytes @ 0x6
  1828                           
  1829     0076                     init_ds1307@dummy:	
  1830                           ; 4 bytes @ 0x6
  1831                           
  1832     0076                     fetch_logs@i:	
  1833                           ; 1 bytes @ 0x6
  1834                           
  1835     0076                     ___awdiv@counter:	
  1836                           ; 1 bytes @ 0x6
  1837                           
  1838     0076                     ___awmod@counter:	
  1839                           ; 1 bytes @ 0x6
  1840                           
  1841     0076                     clcd_print@str:	
  1842                           ; 1 bytes @ 0x6
  1843                           
  1844     0076                     strncpy@n:	
  1845                           ; 2 bytes @ 0x6
  1846                           
  1847     0076                     ___lldiv@dividend:	
  1848                           ; 2 bytes @ 0x6
  1849                           
  1850     0076                     ___xxtofl@val:	
  1851                           ; 4 bytes @ 0x6
  1852                           
  1853     0076                     ??_init_ds1307:	
  1854                           ; 4 bytes @ 0x6
  1855                           
  1856     0076                     ??_clear_screen:	
  1857                           ; 1 bytes @ 0x6
  1858                           
  1859     0076                     ??_strncmp:	
  1860                           ; 1 bytes @ 0x6
  1861                           
  1862     0076                     ??_fetch_logs:	
  1863                           ; 1 bytes @ 0x6
  1864                           
  1865     0076                     ??_init_display_controller:	
  1866                           ; 1 bytes @ 0x6
  1867                           
  1868     0076                     ??_get_time:	
  1869                           ; 1 bytes @ 0x6
  1870                           
  1871     0076                     ??___awdiv:	
  1872                           ; 1 bytes @ 0x6
  1873                           
  1874     0076                     ??___awmod:	
  1875                           ; 1 bytes @ 0x6
  1876                           
  1877                           
  1878                           ; 1 bytes @ 0x6
  1879     0076                     	ds	1
  1880     0077                     fetch_logs@addr:
  1881     0077                     ext_eeprom_24C02_str_write@addr:	
  1882                           ; 1 bytes @ 0x7
  1883                           
  1884     0077                     ___awdiv@sign:	
  1885                           ; 1 bytes @ 0x7
  1886                           
  1887     0077                     ___awmod@sign:	
  1888                           ; 1 bytes @ 0x7
  1889                           
  1890     0077                     strcpy@d:	
  1891                           ; 1 bytes @ 0x7
  1892                           
  1893     0077                     ??_ext_eeprom_24C02_str_write:	
  1894                           ; 1 bytes @ 0x7
  1895                           
  1896                           
  1897                           ; 1 bytes @ 0x7
  1898     0077                     	ds	1
  1899     0078                     clcd_print@addr:
  1900     0078                     store_event@addr:	
  1901                           ; 1 bytes @ 0x8
  1902                           
  1903     0078                     ___awdiv@quotient:	
  1904                           ; 1 bytes @ 0x8
  1905                           
  1906     0078                     strncpy@cp:	
  1907                           ; 2 bytes @ 0x8
  1908                           
  1909     0078                     ??_init_clcd:	
  1910                           ; 2 bytes @ 0x8
  1911                           
  1912     0078                     ??_store_event:	
  1913                           ; 1 bytes @ 0x8
  1914                           
  1915                           
  1916                           ; 1 bytes @ 0x8
  1917     0078                     	ds	1
  1918     0079                     ?_view_log:
  1919     0079                     view_log@reset_flag:	
  1920                           ; 1 bytes @ 0x9
  1921                           
  1922     0079                     ??_clcd_print:	
  1923                           ; 1 bytes @ 0x9
  1924                           
  1925     0079                     ??_clear_log:	
  1926                           ; 1 bytes @ 0x9
  1927                           
  1928                           
  1929                           ; 1 bytes @ 0x9
  1930     0079                     	ds	1
  1931     007A                     ??_init_config:
  1932     007A                     ??_clcd_putch:	
  1933                           ; 1 bytes @ 0xA
  1934                           
  1935     007A                     ??_display_time:	
  1936                           ; 1 bytes @ 0xA
  1937                           
  1938                           
  1939                           	psect	cstackBANK0
  1940     0020                     __pcstackBANK0:	
  1941                           ; 1 bytes @ 0xA
  1942                           
  1943     0020                     ?_save_time:
  1944     0020                     ?_clcd_putch:	
  1945                           ; 1 bytes @ 0x0
  1946                           
  1947     0020                     clcd_putch@addr:	
  1948                           ; 1 bytes @ 0x0
  1949                           
  1950     0020                     save_time@ntime:	
  1951                           ; 1 bytes @ 0x0
  1952                           
  1953     0020                     clear_log@temp:	
  1954                           ; 1 bytes @ 0x0
  1955                           
  1956     0020                     ??_view_log:	
  1957                           ; 2 bytes @ 0x0
  1958                           
  1959     0020                     ??_download_log:	
  1960                           ; 1 bytes @ 0x0
  1961                           
  1962     0020                     ??_strncpy:	
  1963                           ; 1 bytes @ 0x0
  1964                           
  1965     0020                     ??___lldiv:	
  1966                           ; 1 bytes @ 0x0
  1967                           
  1968     0020                     ??___xxtofl:	
  1969                           ; 1 bytes @ 0x0
  1970                           
  1971                           
  1972                           ; 1 bytes @ 0x0
  1973     0020                     	ds	1
  1974     0021                     clcd_putch@data:
  1975     0021                     ___lldiv@quotient:	
  1976                           ; 1 bytes @ 0x1
  1977                           
  1978     0021                     ??_save_time:	
  1979                           ; 4 bytes @ 0x1
  1980                           
  1981                           
  1982                           ; 1 bytes @ 0x1
  1983     0021                     	ds	1
  1984     0022                     ?_display_dashboard:
  1985     0022                     ?_login:	
  1986                           ; 1 bytes @ 0x2
  1987                           
  1988     0022                     ?_menu_screen:	
  1989                           ; 1 bytes @ 0x2
  1990                           
  1991     0022                     ?_change_pwd:	
  1992                           ; 1 bytes @ 0x2
  1993                           
  1994     0022                     display_dashboard@event:	
  1995                           ; 1 bytes @ 0x2
  1996                           
  1997     0022                     login@reset_flag:	
  1998                           ; 1 bytes @ 0x2
  1999                           
  2000     0022                     menu_screen@reset_flag:	
  2001                           ; 1 bytes @ 0x2
  2002                           
  2003     0022                     clear_log@i:	
  2004                           ; 1 bytes @ 0x2
  2005                           
  2006     0022                     change_pwd@reset_flag:	
  2007                           ; 1 bytes @ 0x2
  2008                           
  2009                           
  2010                           ; 1 bytes @ 0x2
  2011     0022                     	ds	1
  2012     0023                     display_dashboard@speed:
  2013     0023                     view_log@key:	
  2014                           ; 1 bytes @ 0x3
  2015                           
  2016     0023                     download_log@i:	
  2017                           ; 1 bytes @ 0x3
  2018                           
  2019     0023                     ??_login:	
  2020                           ; 2 bytes @ 0x3
  2021                           
  2022     0023                     ??_menu_screen:	
  2023                           ; 1 bytes @ 0x3
  2024                           
  2025     0023                     ??_change_pwd:	
  2026                           ; 1 bytes @ 0x3
  2027                           
  2028                           
  2029                           ; 1 bytes @ 0x3
  2030     0023                     	ds	1
  2031     0024                     ?_log_event:
  2032     0024                     log_event@event:	
  2033                           ; 1 bytes @ 0x4
  2034                           
  2035     0024                     ___xxtofl@sign:	
  2036                           ; 1 bytes @ 0x4
  2037                           
  2038     0024                     ??_display_dashboard:	
  2039                           ; 1 bytes @ 0x4
  2040                           
  2041                           
  2042                           ; 1 bytes @ 0x4
  2043     0024                     	ds	1
  2044     0025                     log_event@speed:
  2045     0025                     menu_screen@key:	
  2046                           ; 1 bytes @ 0x5
  2047                           
  2048     0025                     ___lldiv@counter:	
  2049                           ; 1 bytes @ 0x5
  2050                           
  2051     0025                     ___xxtofl@exp:	
  2052                           ; 1 bytes @ 0x5
  2053                           
  2054                           
  2055                           ; 1 bytes @ 0x5
  2056     0025                     	ds	1
  2057     0026                     ?_init_i2c:
  2058     0026                     ?_init_uart:	
  2059                           ; 1 bytes @ 0x6
  2060                           
  2061     0026                     change_pwd@key:	
  2062                           ; 1 bytes @ 0x6
  2063                           
  2064     0026                     init_i2c@baud:	
  2065                           ; 1 bytes @ 0x6
  2066                           
  2067     0026                     login@stored_pwd:	
  2068                           ; 4 bytes @ 0x6
  2069                           
  2070     0026                     init_uart@baud:	
  2071                           ; 4 bytes @ 0x6
  2072                           
  2073     0026                     ___xxtofl@arg:	
  2074                           ; 4 bytes @ 0x6
  2075                           
  2076     0026                     ??_log_event:	
  2077                           ; 4 bytes @ 0x6
  2078                           
  2079                           
  2080                           ; 1 bytes @ 0x6
  2081     0026                     	ds	1
  2082     0027                     change_pwd@i_420:
  2083                           
  2084                           ; 2 bytes @ 0x7
  2085     0027                     	ds	1
  2086     0028                     save_time@bcdh:
  2087                           
  2088                           ; 1 bytes @ 0x8
  2089     0028                     	ds	1
  2090     0029                     save_time@bcdm:
  2091     0029                     change_pwd@i_422:	
  2092                           ; 1 bytes @ 0x9
  2093                           
  2094                           
  2095                           ; 2 bytes @ 0x9
  2096     0029                     	ds	1
  2097     002A                     ?___fldiv:
  2098     002A                     login@key:	
  2099                           ; 4 bytes @ 0xA
  2100                           
  2101     002A                     save_time@bcds:	
  2102                           ; 1 bytes @ 0xA
  2103                           
  2104     002A                     ___fldiv@a:	
  2105                           ; 1 bytes @ 0xA
  2106                           
  2107     002A                     ??_init_i2c:	
  2108                           ; 4 bytes @ 0xA
  2109                           
  2110     002A                     ??_init_uart:	
  2111                           ; 1 bytes @ 0xA
  2112                           
  2113                           
  2114                           ; 1 bytes @ 0xA
  2115     002A                     	ds	1
  2116     002B                     save_time@hour:
  2117     002B                     login@j:	
  2118                           ; 1 bytes @ 0xB
  2119                           
  2120                           
  2121                           ; 2 bytes @ 0xB
  2122     002B                     	ds	1
  2123     002C                     save_time@minute:
  2124                           
  2125                           ; 1 bytes @ 0xC
  2126     002C                     	ds	1
  2127     002D                     save_time@second:
  2128                           
  2129                           ; 1 bytes @ 0xD
  2130     002D                     	ds	1
  2131     002E                     ?_set_time:
  2132     002E                     set_time@reset_flag:	
  2133                           ; 1 bytes @ 0xE
  2134                           
  2135     002E                     ___fldiv@b:	
  2136                           ; 1 bytes @ 0xE
  2137                           
  2138                           
  2139                           ; 4 bytes @ 0xE
  2140     002E                     	ds	1
  2141     002F                     ??_set_time:
  2142                           
  2143                           ; 1 bytes @ 0xF
  2144     002F                     	ds	3
  2145     0032                     set_time@sec_high:
  2146     0032                     ??___fldiv:	
  2147                           ; 1 bytes @ 0x12
  2148                           
  2149                           
  2150                           ; 1 bytes @ 0x12
  2151     0032                     	ds	1
  2152     0033                     set_time@sec_low:
  2153                           
  2154                           ; 1 bytes @ 0x13
  2155     0033                     	ds	1
  2156     0034                     set_time@min_high:
  2157                           
  2158                           ; 1 bytes @ 0x14
  2159     0034                     	ds	1
  2160     0035                     set_time@min_low:
  2161                           
  2162                           ; 1 bytes @ 0x15
  2163     0035                     	ds	1
  2164     0036                     set_time@hour_high:
  2165                           
  2166                           ; 1 bytes @ 0x16
  2167     0036                     	ds	1
  2168     0037                     set_time@hour_low:
  2169     0037                     ___fldiv@rem:	
  2170                           ; 1 bytes @ 0x17
  2171                           
  2172                           
  2173                           ; 4 bytes @ 0x17
  2174     0037                     	ds	1
  2175     0038                     set_time@key:
  2176                           
  2177                           ; 1 bytes @ 0x18
  2178     0038                     	ds	1
  2179     0039                     set_time@sec:
  2180                           
  2181                           ; 1 bytes @ 0x19
  2182     0039                     	ds	1
  2183     003A                     set_time@min:
  2184                           
  2185                           ; 1 bytes @ 0x1A
  2186     003A                     	ds	1
  2187     003B                     set_time@hour:
  2188     003B                     ___fldiv@sign:	
  2189                           ; 1 bytes @ 0x1B
  2190                           
  2191                           
  2192                           ; 1 bytes @ 0x1B
  2193     003B                     	ds	1
  2194     003C                     set_time@i:
  2195     003C                     ___fldiv@new_exp:	
  2196                           ; 2 bytes @ 0x1C
  2197                           
  2198                           
  2199                           ; 2 bytes @ 0x1C
  2200     003C                     	ds	2
  2201     003E                     ___fldiv@grs:
  2202                           
  2203                           ; 4 bytes @ 0x1E
  2204     003E                     	ds	4
  2205     0042                     ___fldiv@bexp:
  2206                           
  2207                           ; 1 bytes @ 0x22
  2208     0042                     	ds	1
  2209     0043                     ___fldiv@aexp:
  2210                           
  2211                           ; 1 bytes @ 0x23
  2212     0043                     	ds	1
  2213     0044                     ?___fltol:
  2214     0044                     ___fltol@f1:	
  2215                           ; 4 bytes @ 0x24
  2216                           
  2217                           
  2218                           ; 4 bytes @ 0x24
  2219     0044                     	ds	4
  2220     0048                     ??___fltol:
  2221                           
  2222                           ; 1 bytes @ 0x28
  2223     0048                     	ds	4
  2224     004C                     ___fltol@sign1:
  2225                           
  2226                           ; 1 bytes @ 0x2C
  2227     004C                     	ds	1
  2228     004D                     ___fltol@exp1:
  2229                           
  2230                           ; 1 bytes @ 0x2D
  2231     004D                     	ds	1
  2232     004E                     ??_main:
  2233                           
  2234                           ; 1 bytes @ 0x2E
  2235     004E                     	ds	4
  2236                           
  2237                           	psect	maintext
  2238     0044                     __pmaintext:	
  2239 ;;
  2240 ;;Main: autosize = 0, tempsize = 4, incstack = 0, save=0
  2241 ;;
  2242 ;; *************** function _main *****************
  2243 ;; Defined at:
  2244 ;;		line 68 in file "main.c"
  2245 ;; Parameters:    Size  Location     Type
  2246 ;;		None
  2247 ;; Auto vars:     Size  Location     Type
  2248 ;;  i               2   16[BANK3 ] int 
  2249 ;;  gear           14    0[BANK3 ] PTR unsigned char [7]
  2250 ;;		 -> STR_7(3), STR_6(3), STR_5(3), STR_4(3), 
  2251 ;;		 -> STR_3(3), STR_2(3), STR_1(3), 
  2252 ;;  delay           4   18[BANK3 ] unsigned long 
  2253 ;;  event           3   22[BANK3 ] unsigned char [3]
  2254 ;;  pressed_key     1   30[BANK3 ] unsigned char 
  2255 ;;  control_flag    1   29[BANK3 ] unsigned char 
  2256 ;;  reset_flag      1   28[BANK3 ] unsigned char 
  2257 ;;  speed           1   27[BANK3 ] unsigned char 
  2258 ;;  gr              1   26[BANK3 ] unsigned char 
  2259 ;;  key             1   25[BANK3 ] unsigned char 
  2260 ;;  stored          1   15[BANK3 ] unsigned char 
  2261 ;;  menu_positio    1   14[BANK3 ] unsigned char 
  2262 ;; Return value:  Size  Location     Type
  2263 ;;                  1    wreg      void 
  2264 ;; Registers used:
  2265 ;;		wreg, fsr0l, fsr0h, status,2, status,0, btemp+1, pclath, cstack
  2266 ;; Tracked objects:
  2267 ;;		On entry : B00/0
  2268 ;;		On exit  : 0/0
  2269 ;;		Unchanged: 0/0
  2270 ;; Data sizes:     COMMON   BANK0   BANK1   BANK3   BANK2
  2271 ;;      Params:         0       0       0       0       0
  2272 ;;      Locals:         0       0       0      31       0
  2273 ;;      Temps:          0       4       0       0       0
  2274 ;;      Totals:         0       4       0      31       0
  2275 ;;Total ram usage:       35 bytes
  2276 ;; Hardware stack levels required when called: 8
  2277 ;; This function calls:
  2278 ;;		___fldiv
  2279 ;;		___fltol
  2280 ;;		___xxtofl
  2281 ;;		_change_pwd
  2282 ;;		_clcd_print
  2283 ;;		_clcd_write
  2284 ;;		_clear_log
  2285 ;;		_clear_screen
  2286 ;;		_display_dashboard
  2287 ;;		_download_log
  2288 ;;		_ext_eeprom_24C02_str_write
  2289 ;;		_init_config
  2290 ;;		_log_event
  2291 ;;		_login
  2292 ;;		_menu_screen
  2293 ;;		_read_adc
  2294 ;;		_read_digital_keypad
  2295 ;;		_set_time
  2296 ;;		_strcpy
  2297 ;;		_view_log
  2298 ;; This function is called by:
  2299 ;;		Startup code after reset
  2300 ;; This function uses a non-reentrant model
  2301 ;;
  2302                           
  2303     0044                     _main:	
  2304                           ;psect for function _main
  2305                           
  2306     0044                     l5740:	
  2307                           ;incstack = 0
  2308                           ; Regs used in _main: [wreg-fsr0h+status,2+status,0+btemp+1+pclath+cstack]
  2309                           
  2310                           
  2311                           ;main.c: 70:             {
  2312     0044  1683               	bsf	3,5	;RP0=1, select bank3
  2313     0045  1703               	bsf	3,6	;RP1=1, select bank3
  2314     0046  01AD               	clrf	main@control_flag^(0+384)
  2315     0047                     l5742:
  2316                           
  2317                           ;main.c: 71: ;main.c: 72:                 strcpy(event, gear[gr]);;main.c: 73:          
      +                                 gr++;
  2318     0047  1683               	bsf	3,5	;RP0=1, select bank1
  2319     0048  1303               	bcf	3,6	;RP1=0, select bank1
  2320     0049  0865               	movf	main@F1253^(0+128),w
  2321     004A  1683               	bsf	3,5	;RP0=1, select bank3
  2322     004B  1703               	bsf	3,6	;RP1=1, select bank3
  2323     004C  00A6               	movwf	main@event^(0+384)
  2324     004D  1683               	bsf	3,5	;RP0=1, select bank1
  2325     004E  1303               	bcf	3,6	;RP1=0, select bank1
  2326     004F  0866               	movf	(main@F1253+1)^(0+128),w
  2327     0050  1683               	bsf	3,5	;RP0=1, select bank3
  2328     0051  1703               	bsf	3,6	;RP1=1, select bank3
  2329     0052  00A7               	movwf	(main@event+1)^(0+384)
  2330     0053  1683               	bsf	3,5	;RP0=1, select bank1
  2331     0054  1303               	bcf	3,6	;RP1=0, select bank1
  2332     0055  0867               	movf	(main@F1253+2)^(0+128),w
  2333     0056  1683               	bsf	3,5	;RP0=1, select bank3
  2334     0057  1703               	bsf	3,6	;RP1=1, select bank3
  2335     0058  00A8               	movwf	(main@event+2)^(0+384)
  2336     0059                     l5744:
  2337     0059                     l5746:
  2338                           
  2339                           ;main.c: 75:             }
  2340     0059  30AF               	movlw	main@F1256& (0+255)
  2341     005A  0084               	movwf	4
  2342     005B  3090               	movlw	low main@gear
  2343     005C  1283               	bcf	3,5	;RP0=0, select bank0
  2344     005D  1303               	bcf	3,6	;RP1=0, select bank0
  2345     005E  00CE               	movwf	??_main
  2346     005F  300E               	movlw	14
  2347     0060  00CF               	movwf	??_main+1
  2348     0061                     u6740:
  2349     0061  1783               	bsf	3,7	;select IRP bank3
  2350     0062  0800               	movf	0,w
  2351     0063  00D0               	movwf	??_main+2
  2352     0064  0A04               	incf	4,w
  2353     0065  00D1               	movwf	??_main+3
  2354     0066  084E               	movf	??_main,w
  2355     0067  0084               	movwf	4
  2356     0068  0850               	movf	??_main+2,w
  2357     0069  0080               	movwf	0
  2358     006A  0A04               	incf	4,w
  2359     006B  00CE               	movwf	??_main
  2360     006C  0851               	movf	??_main+3,w
  2361     006D  0084               	movwf	4
  2362     006E  0BCF               	decfsz	??_main+1,f
  2363     006F  2861               	goto	u6740
  2364     0070                     l5748:
  2365                           
  2366                           ;main.c: 77:             {
  2367     0070  1683               	bsf	3,5	;RP0=1, select bank3
  2368     0071  1703               	bsf	3,6	;RP1=1, select bank3
  2369     0072  01AA               	clrf	main@gr^(0+384)
  2370     0073                     l5750:
  2371     0073                     l5752:
  2372     0073  303F               	movlw	63
  2373     0074  00AE               	movwf	main@pressed_key^(0+384)
  2374     0075                     l5754:
  2375                           
  2376                           ;main.c: 79:                 gr--;
  2377     0075  3000               	movlw	0
  2378     0076  00A5               	movwf	(main@delay+3)^(0+384)
  2379     0077  3000               	movlw	0
  2380     0078  00A4               	movwf	(main@delay+2)^(0+384)
  2381     0079  3000               	movlw	0
  2382     007A  00A3               	movwf	(main@delay+1)^(0+384)
  2383     007B  3000               	movlw	0
  2384     007C  00A2               	movwf	main@delay^(0+384)
  2385     007D                     l5756:
  2386                           
  2387                           ;main.c: 81:                 log_event(event,speed);
  2388     007D  120A  158A  2000  120A  118A  	fcall	_init_config
  2389     0082                     l5758:
  2390                           
  2391                           ;main.c: 83:             else if( (pressed_key == 0x37 || pressed_key == 0x2F) && contro
      +                          l_flag == 0X00 )
  2392     0082  30A6               	movlw	(low (main@event| (0+256)))& (0+255)
  2393     0083  1283               	bcf	3,5	;RP0=0, select bank0
  2394     0084  1303               	bcf	3,6	;RP1=0, select bank0
  2395     0085  00A4               	movwf	log_event@event
  2396     0086  01A5               	clrf	log_event@speed
  2397     0087  160A  118A  259B  120A  118A  	fcall	_log_event
  2398     008C                     l5760:
  2399                           
  2400                           ;main.c: 84:             {
  2401     008C  304F               	movlw	low (STR_8| (0+32768))
  2402     008D  00F5               	movwf	ext_eeprom_24C02_str_write@str
  2403     008E  3091               	movlw	high (STR_8| (0+32768))
  2404     008F  00F6               	movwf	ext_eeprom_24C02_str_write@str+1
  2405     0090  3000               	movlw	0
  2406     0091  160A  118A  21D4  120A  118A  	fcall	_ext_eeprom_24C02_str_write
  2407     0096                     l5762:
  2408                           
  2409                           ;main.c: 87:                 clcd_write(0x01,0);;main.c: 88:                 _delay((uns
      +                          igned long)((500)*(20000000/4000000.0)));
  2410     0096  160A  158A  2764  120A  118A  	fcall	_read_adc
  2411     009B  0872               	movf	?_read_adc,w
  2412     009C  1283               	bcf	3,5	;RP0=0, select bank0
  2413     009D  1303               	bcf	3,6	;RP1=0, select bank0
  2414     009E  00CE               	movwf	??_main
  2415     009F  0873               	movf	?_read_adc+1,w
  2416     00A0  00CF               	movwf	??_main+1
  2417     00A1  01D0               	clrf	??_main+2
  2418     00A2  01D1               	clrf	??_main+3
  2419     00A3  0851               	movf	??_main+3,w
  2420     00A4  00F9               	movwf	___xxtofl@val+3
  2421     00A5  0850               	movf	??_main+2,w
  2422     00A6  00F8               	movwf	___xxtofl@val+2
  2423     00A7  084F               	movf	??_main+1,w
  2424     00A8  00F7               	movwf	___xxtofl@val+1
  2425     00A9  084E               	movf	??_main,w
  2426     00AA  00F6               	movwf	___xxtofl@val
  2427     00AB  3000               	movlw	0
  2428     00AC  120A  158A  21EF  120A  118A  	fcall	___xxtofl
  2429     00B1  0879               	movf	?___xxtofl+3,w
  2430     00B2  1283               	bcf	3,5	;RP0=0, select bank0
  2431     00B3  1303               	bcf	3,6	;RP1=0, select bank0
  2432     00B4  00B1               	movwf	___fldiv@b+3
  2433     00B5  0878               	movf	?___xxtofl+2,w
  2434     00B6  00B0               	movwf	___fldiv@b+2
  2435     00B7  0877               	movf	?___xxtofl+1,w
  2436     00B8  00AF               	movwf	___fldiv@b+1
  2437     00B9  0876               	movf	?___xxtofl,w
  2438     00BA  00AE               	movwf	___fldiv@b
  2439     00BB  3041               	movlw	65
  2440     00BC  00AD               	movwf	___fldiv@a+3
  2441     00BD  3024               	movlw	36
  2442     00BE  00AC               	movwf	___fldiv@a+2
  2443     00BF  30CC               	movlw	204
  2444     00C0  00AB               	movwf	___fldiv@a+1
  2445     00C1  30CD               	movlw	205
  2446     00C2  00AA               	movwf	___fldiv@a
  2447     00C3  120A  158A  2636  120A  118A  	fcall	___fldiv
  2448     00C8  1283               	bcf	3,5	;RP0=0, select bank0
  2449     00C9  1303               	bcf	3,6	;RP1=0, select bank0
  2450     00CA  082D               	movf	?___fldiv+3,w
  2451     00CB  00C7               	movwf	___fltol@f1+3
  2452     00CC  082C               	movf	?___fldiv+2,w
  2453     00CD  00C6               	movwf	___fltol@f1+2
  2454     00CE  082B               	movf	?___fldiv+1,w
  2455     00CF  00C5               	movwf	___fltol@f1+1
  2456     00D0  082A               	movf	?___fldiv,w
  2457     00D1  00C4               	movwf	___fltol@f1
  2458     00D2  160A  118A  278A  120A  118A  	fcall	___fltol
  2459     00D7  1283               	bcf	3,5	;RP0=0, select bank0
  2460     00D8  1303               	bcf	3,6	;RP1=0, select bank0
  2461     00D9  0844               	movf	?___fltol,w
  2462     00DA  1683               	bsf	3,5	;RP0=1, select bank3
  2463     00DB  1703               	bsf	3,6	;RP1=1, select bank3
  2464     00DC  00AB               	movwf	main@speed^(0+384)
  2465     00DD                     l5764:
  2466                           
  2467                           ;main.c: 89:                 clcd_print("Enter Password", (0x80 + 1));
  2468     00DD  3041               	movlw	65
  2469     00DE  1283               	bcf	3,5	;RP0=0, select bank0
  2470     00DF  1303               	bcf	3,6	;RP1=0, select bank0
  2471     00E0  00CF               	movwf	??_main+1
  2472     00E1  30ED               	movlw	237
  2473     00E2  00CE               	movwf	??_main
  2474     00E3                     u7007:
  2475     00E3  0BCE               	decfsz	??_main,f
  2476     00E4  28E3               	goto	u7007
  2477     00E5  0BCF               	decfsz	??_main+1,f
  2478     00E6  28E3               	goto	u7007
  2479     00E7  28E8               	nop2
  2480     00E8                     l5766:
  2481                           
  2482                           ;main.c: 90: 
  2483     00E8  3000               	movlw	0
  2484     00E9  160A  118A  2284  120A  118A  	fcall	_read_digital_keypad
  2485     00EE  1683               	bsf	3,5	;RP0=1, select bank3
  2486     00EF  1703               	bsf	3,6	;RP1=1, select bank3
  2487     00F0  00A9               	movwf	main@key^(0+384)
  2488     00F1                     l5768:
  2489                           
  2490                           ;main.c: 92:                 clcd_write(0x0F, 0);
  2491     00F1  303F               	movlw	63
  2492     00F2  0629               	xorwf	main@key^(0+384),w
  2493     00F3  1903               	btfsc	3,2
  2494     00F4  28F6               	goto	u6751
  2495     00F5  28F7               	goto	u6750
  2496     00F6                     u6751:
  2497     00F6  2908               	goto	l5772
  2498     00F7                     u6750:
  2499     00F7                     l5770:
  2500                           
  2501                           ;main.c: 93:                 _delay((unsigned long)((100)*(20000000/4000000.0)));;main.c
      +                          : 94:                 reset_flag = 0x11;
  2502     00F7  0829               	movf	main@key^(0+384),w
  2503     00F8  009F               	movwf	main@stored^(0+384)
  2504                           
  2505                           ;main.c: 95:                 TMR2ON = 1;
  2506     00F9  3001               	movlw	1
  2507     00FA  07A2               	addwf	main@delay^(0+384),f
  2508     00FB  3000               	movlw	0
  2509     00FC  1803               	skipnc
  2510     00FD  3001               	movlw	1
  2511     00FE  07A3               	addwf	(main@delay+1)^(0+384),f
  2512     00FF  3000               	movlw	0
  2513     0100  1803               	skipnc
  2514     0101  3001               	movlw	1
  2515     0102  07A4               	addwf	(main@delay+2)^(0+384),f
  2516     0103  3000               	movlw	0
  2517     0104  1803               	skipnc
  2518     0105  3001               	movlw	1
  2519     0106  07A5               	addwf	(main@delay+3)^(0+384),f
  2520                           
  2521                           ;main.c: 96:             }
  2522     0107  290C               	goto	l5776
  2523     0108                     l5772:
  2524                           
  2525                           ;main.c: 98:             {;main.c: 99:                 if(control_flag == 0X02)
  2526     0108  081F               	movf	main@stored^(0+384),w
  2527     0109  00AE               	movwf	main@pressed_key^(0+384)
  2528     010A                     l5774:
  2529                           
  2530                           ;main.c: 100:                 {
  2531     010A  303F               	movlw	63
  2532     010B  009F               	movwf	main@stored^(0+384)
  2533     010C                     l5776:
  2534                           
  2535                           ;main.c: 103:                 }
  2536     010C  01A0               	clrf	main@i^(0+384)
  2537     010D  01A1               	clrf	(main@i+1)^(0+384)
  2538     010E                     l5778:
  2539     010E  0821               	movf	(main@i+1)^(0+384),w
  2540     010F  3A80               	xorlw	128
  2541     0110  00FF               	movwf	btemp+1
  2542     0111  308B               	movlw	139
  2543     0112  027F               	subwf	btemp+1,w
  2544     0113  1D03               	skipz
  2545     0114  2917               	goto	u6765
  2546     0115  30B8               	movlw	184
  2547     0116  0220               	subwf	main@i^(0+384),w
  2548     0117                     u6765:
  2549     0117  1C03               	skipc
  2550     0118  291A               	goto	u6761
  2551     0119  291B               	goto	u6760
  2552     011A                     u6761:
  2553     011A  291C               	goto	l5782
  2554     011B                     u6760:
  2555     011B  2925               	goto	l5786
  2556     011C                     l5782:
  2557     011C  3001               	movlw	1
  2558     011D  1683               	bsf	3,5	;RP0=1, select bank3
  2559     011E  1703               	bsf	3,6	;RP1=1, select bank3
  2560     011F  07A0               	addwf	main@i^(0+384),f
  2561     0120  1803               	skipnc
  2562     0121  0AA1               	incf	(main@i+1)^(0+384),f
  2563     0122  3000               	movlw	0
  2564     0123  07A1               	addwf	(main@i+1)^(0+384),f
  2565     0124  290E               	goto	l5778
  2566     0125                     l5786:
  2567                           
  2568                           ;main.c: 105:                     clear_screen();
  2569     0125  303F               	movlw	63
  2570     0126  1683               	bsf	3,5	;RP0=1, select bank3
  2571     0127  1703               	bsf	3,6	;RP1=1, select bank3
  2572     0128  0629               	xorwf	main@key^(0+384),w
  2573     0129  1D03               	btfss	3,2
  2574     012A  292C               	goto	u6771
  2575     012B  292D               	goto	u6770
  2576     012C                     u6771:
  2577     012C  2BEB               	goto	l5988
  2578     012D                     u6770:
  2579     012D                     l5788:
  2580                           
  2581                           ;main.c: 106:                     control_flag = 0X02;;main.c: 107:                     
      +                          reset_flag = 0x55;
  2582     012D  303E               	movlw	62
  2583     012E  062E               	xorwf	main@pressed_key^(0+384),w
  2584     012F  1D03               	btfss	3,2
  2585     0130  2932               	goto	u6781
  2586     0131  2933               	goto	u6780
  2587     0132                     u6781:
  2588     0132  294F               	goto	l5796
  2589     0133                     u6780:
  2590     0133                     l5790:
  2591                           
  2592                           ;main.c: 108:                 };main.c: 110:                 {
  2593     0133  01AA               	clrf	main@gr^(0+384)
  2594     0134                     l5792:
  2595                           
  2596                           ;main.c: 111:                     clear_screen();
  2597     0134  30A6               	movlw	(low (main@event| (0+256)))& (0+255)
  2598     0135  00F2               	movwf	strcpy@dest
  2599     0136  3066               	movlw	low (STR_9| (0+32768))
  2600     0137  00F3               	movwf	strcpy@src
  2601     0138  3091               	movlw	high (STR_9| (0+32768))
  2602     0139  00F4               	movwf	strcpy@src+1
  2603     013A  160A  118A  218D  120A  118A  	fcall	_strcpy
  2604     013F                     l5794:
  2605                           
  2606                           ;main.c: 112:                     control_flag = 0X00;
  2607     013F  30A6               	movlw	(low (main@event| (0+256)))& (0+255)
  2608     0140  1283               	bcf	3,5	;RP0=0, select bank0
  2609     0141  1303               	bcf	3,6	;RP1=0, select bank0
  2610     0142  00A4               	movwf	log_event@event
  2611     0143  1683               	bsf	3,5	;RP0=1, select bank3
  2612     0144  1703               	bsf	3,6	;RP1=1, select bank3
  2613     0145  082B               	movf	main@speed^(0+384),w
  2614     0146  1283               	bcf	3,5	;RP0=0, select bank0
  2615     0147  1303               	bcf	3,6	;RP1=0, select bank0
  2616     0148  00A5               	movwf	log_event@speed
  2617     0149  160A  118A  259B  120A  118A  	fcall	_log_event
  2618                           
  2619                           ;main.c: 113:                     reset_flag = 0x22;
  2620     014E  2ACD               	goto	l5904
  2621     014F                     l5796:
  2622     014F  303D               	movlw	61
  2623     0150  062E               	xorwf	main@pressed_key^(0+384),w
  2624     0151  1D03               	btfss	3,2
  2625     0152  2954               	goto	u6791
  2626     0153  2955               	goto	u6790
  2627     0154                     u6791:
  2628     0154  2975               	goto	l5806
  2629     0155                     u6790:
  2630     0155                     l5798:
  2631     0155  3007               	movlw	7
  2632     0156  022A               	subwf	main@gr^(0+384),w
  2633     0157  1803               	skipnc
  2634     0158  295A               	goto	u6801
  2635     0159  295B               	goto	u6800
  2636     015A                     u6801:
  2637     015A  2975               	goto	l5806
  2638     015B                     u6800:
  2639     015B                     l5800:
  2640                           
  2641                           ;main.c: 115:             };main.c: 117:             {
  2642     015B  30A6               	movlw	(low (main@event| (0+256)))& (0+255)
  2643     015C  00F2               	movwf	strcpy@dest
  2644     015D  082A               	movf	main@gr^(0+384),w
  2645     015E  1283               	bcf	3,5	;RP0=0, select bank0
  2646     015F  1303               	bcf	3,6	;RP1=0, select bank0
  2647     0160  00CE               	movwf	??_main
  2648     0161  074E               	addwf	??_main,w
  2649     0162  3E90               	addlw	(low (main@gear| (0+256)))& (0+255)
  2650     0163  0084               	movwf	4
  2651     0164  1783               	bsf	3,7	;select IRP bank3
  2652     0165  0800               	movf	0,w
  2653     0166  00F3               	movwf	strcpy@src
  2654     0167  0A84               	incf	4,f
  2655     0168  0800               	movf	0,w
  2656     0169  0384               	decf	4,f
  2657     016A  00F4               	movwf	strcpy@src+1
  2658     016B  160A  118A  218D  120A  118A  	fcall	_strcpy
  2659     0170                     l5802:
  2660                           
  2661                           ;main.c: 118:                     switch(menu_position)
  2662     0170  3001               	movlw	1
  2663     0171  1683               	bsf	3,5	;RP0=1, select bank3
  2664     0172  1703               	bsf	3,6	;RP1=1, select bank3
  2665     0173  07AA               	addwf	main@gr^(0+384),f
  2666     0174  293F               	goto	l5794
  2667     0175                     l5806:
  2668     0175  303B               	movlw	59
  2669     0176  062E               	xorwf	main@pressed_key^(0+384),w
  2670     0177  1D03               	btfss	3,2
  2671     0178  297A               	goto	u6811
  2672     0179  297B               	goto	u6810
  2673     017A                     u6811:
  2674     017A  2998               	goto	l5816
  2675     017B                     u6810:
  2676     017B                     l5808:
  2677     017B  082A               	movf	main@gr^(0+384),w
  2678     017C  1903               	btfsc	3,2
  2679     017D  297F               	goto	u6821
  2680     017E  2980               	goto	u6820
  2681     017F                     u6821:
  2682     017F  2998               	goto	l5816
  2683     0180                     u6820:
  2684     0180                     l5810:
  2685                           
  2686                           ;main.c: 122:                             reset_flag = 0x56;;main.c: 124:               
      +                                        break;
  2687     0180  3001               	movlw	1
  2688     0181  02AA               	subwf	main@gr^(0+384),f
  2689     0182                     l5812:
  2690                           
  2691                           ;main.c: 125:                         case 1:
  2692     0182  30A6               	movlw	(low (main@event| (0+256)))& (0+255)
  2693     0183  00F2               	movwf	strcpy@dest
  2694     0184  082A               	movf	main@gr^(0+384),w
  2695     0185  1283               	bcf	3,5	;RP0=0, select bank0
  2696     0186  1303               	bcf	3,6	;RP1=0, select bank0
  2697     0187  00CE               	movwf	??_main
  2698     0188  074E               	addwf	??_main,w
  2699     0189  3E90               	addlw	(low (main@gear| (0+256)))& (0+255)
  2700     018A  0084               	movwf	4
  2701     018B  1783               	bsf	3,7	;select IRP bank3
  2702     018C  0800               	movf	0,w
  2703     018D  00F3               	movwf	strcpy@src
  2704     018E  0A84               	incf	4,f
  2705     018F  0800               	movf	0,w
  2706     0190  0384               	decf	4,f
  2707     0191  00F4               	movwf	strcpy@src+1
  2708     0192  160A  118A  218D  120A  118A  	fcall	_strcpy
  2709     0197  293F               	goto	l5794
  2710     0198                     l5816:
  2711     0198  3037               	movlw	55
  2712     0199  062E               	xorwf	main@pressed_key^(0+384),w
  2713     019A  1903               	btfsc	3,2
  2714     019B  299D               	goto	u6831
  2715     019C  299E               	goto	u6830
  2716     019D                     u6831:
  2717     019D  29A4               	goto	l5820
  2718     019E                     u6830:
  2719     019E                     l5818:
  2720     019E  302F               	movlw	47
  2721     019F  062E               	xorwf	main@pressed_key^(0+384),w
  2722     01A0  1D03               	btfss	3,2
  2723     01A1  29A3               	goto	u6841
  2724     01A2  29A4               	goto	u6840
  2725     01A3                     u6841:
  2726     01A3  29E4               	goto	l5840
  2727     01A4                     u6840:
  2728     01A4                     l5820:
  2729     01A4  082D               	movf	main@control_flag^(0+384),w
  2730     01A5  1D03               	btfss	3,2
  2731     01A6  29A8               	goto	u6851
  2732     01A7  29A9               	goto	u6850
  2733     01A8                     u6851:
  2734     01A8  29E4               	goto	l5840
  2735     01A9                     u6850:
  2736     01A9                     l5822:
  2737                           
  2738                           ;main.c: 129:                             control_flag = 0x63;;main.c: 130:             
      +                                          clear_screen();
  2739     01A9  3001               	movlw	1
  2740     01AA  00AD               	movwf	main@control_flag^(0+384)
  2741     01AB                     l5824:
  2742                           
  2743                           ;main.c: 132:                             _delay((unsigned long)((1500)*(20000000/4000.0
      +                          )));
  2744     01AB  01F2               	clrf	clcd_write@mode
  2745     01AC  3001               	movlw	1
  2746     01AD  160A  118A  234B  120A  118A  	fcall	_clcd_write
  2747     01B2                     l5826:
  2748                           
  2749                           ;main.c: 133:                             break;
  2750     01B2  3004               	movlw	4
  2751     01B3  1283               	bcf	3,5	;RP0=0, select bank0
  2752     01B4  1303               	bcf	3,6	;RP1=0, select bank0
  2753     01B5  00CF               	movwf	??_main+1
  2754     01B6  303D               	movlw	61
  2755     01B7  00CE               	movwf	??_main
  2756     01B8                     u7017:
  2757     01B8  0BCE               	decfsz	??_main,f
  2758     01B9  29B8               	goto	u7017
  2759     01BA  0BCF               	decfsz	??_main+1,f
  2760     01BB  29B8               	goto	u7017
  2761     01BC                     l5828:
  2762                           
  2763                           ;main.c: 134:                         case 3:
  2764     01BC  3072               	movlw	low (STR_10| (0+32768))
  2765     01BD  00F6               	movwf	clcd_print@str
  2766     01BE  3090               	movlw	high (STR_10| (0+32768))
  2767     01BF  00F7               	movwf	clcd_print@str+1
  2768     01C0  3081               	movlw	129
  2769     01C1  00F8               	movwf	clcd_print@addr
  2770     01C2  160A  118A  2255  120A  118A  	fcall	_clcd_print
  2771     01C7                     l5830:
  2772                           
  2773                           ;main.c: 136:                             clear_screen();
  2774     01C7  01F2               	clrf	clcd_write@mode
  2775     01C8  30C4               	movlw	196
  2776     01C9  160A  118A  234B  120A  118A  	fcall	_clcd_write
  2777     01CE                     l5832:
  2778                           
  2779                           ;main.c: 137:                             reset_flag = 0x57;
  2780     01CE  01F2               	clrf	clcd_write@mode
  2781     01CF  300F               	movlw	15
  2782     01D0  160A  118A  234B  120A  118A  	fcall	_clcd_write
  2783     01D5                     l5834:
  2784                           
  2785                           ;main.c: 138:                             break;
  2786     01D5  30A5               	movlw	165
  2787     01D6  1283               	bcf	3,5	;RP0=0, select bank0
  2788     01D7  1303               	bcf	3,6	;RP1=0, select bank0
  2789     01D8  00CE               	movwf	??_main
  2790     01D9                     u7027:
  2791     01D9  0BCE               	decfsz	??_main,f
  2792     01DA  29D9               	goto	u7027
  2793     01DB  29DC               	nop2
  2794     01DC                     l5836:
  2795                           
  2796                           ;main.c: 139:                         case 4:
  2797     01DC  3011               	movlw	17
  2798     01DD  1683               	bsf	3,5	;RP0=1, select bank3
  2799     01DE  1703               	bsf	3,6	;RP1=1, select bank3
  2800     01DF  00AC               	movwf	main@reset_flag^(0+384)
  2801     01E0                     l5838:
  2802                           
  2803                           ;main.c: 140:                             control_flag = 0x65;
  2804     01E0  1283               	bcf	3,5	;RP0=0, select bank0
  2805     01E1  1303               	bcf	3,6	;RP1=0, select bank0
  2806     01E2  1512               	bsf	18,2	;volatile
  2807                           
  2808                           ;main.c: 141:                             clear_screen();
  2809     01E3  2ACD               	goto	l5904
  2810     01E4                     l5840:
  2811     01E4  3037               	movlw	55
  2812     01E5  062E               	xorwf	main@pressed_key^(0+384),w
  2813     01E6  1D03               	btfss	3,2
  2814     01E7  29E9               	goto	u6861
  2815     01E8  29EA               	goto	u6860
  2816     01E9                     u6861:
  2817     01E9  2A2F               	goto	l5866
  2818     01EA                     u6860:
  2819     01EA                     l5842:
  2820     01EA  0825               	movf	(main@delay+3)^(0+384),w
  2821     01EB  1D03               	btfss	3,2
  2822     01EC  29FB               	goto	u6870
  2823     01ED  0824               	movf	(main@delay+2)^(0+384),w
  2824     01EE  1D03               	btfss	3,2
  2825     01EF  29FB               	goto	u6870
  2826     01F0  0823               	movf	(main@delay+1)^(0+384),w
  2827     01F1  1D03               	btfss	3,2
  2828     01F2  29FB               	goto	u6870
  2829     01F3  3006               	movlw	6
  2830     01F4  0222               	subwf	main@delay^(0+384),w
  2831     01F5  1D03               	skipz
  2832     01F6  29F7               	goto	u6873
  2833     01F7                     u6873:
  2834     01F7  1C03               	btfss	3,0
  2835     01F8  29FA               	goto	u6871
  2836     01F9  29FB               	goto	u6870
  2837     01FA                     u6871:
  2838     01FA  2A2F               	goto	l5866
  2839     01FB                     u6870:
  2840     01FB                     l5844:
  2841                           
  2842                           ;main.c: 143:                             reset_flag = 0x58;;main.c: 144:               
      +                                        break;
  2843     01FB  3002               	movlw	2
  2844     01FC  1683               	bsf	3,5	;RP0=1, select bank3
  2845     01FD  1703               	bsf	3,6	;RP1=1, select bank3
  2846     01FE  062D               	xorwf	main@control_flag^(0+384),w
  2847     01FF  1D03               	btfss	3,2
  2848     0200  2A02               	goto	u6881
  2849     0201  2A03               	goto	u6880
  2850     0202                     u6881:
  2851     0202  2A0C               	goto	l5850
  2852     0203                     u6880:
  2853     0203                     l5846:
  2854                           
  2855                           ;main.c: 145:                     };main.c: 146:             }
  2856     0203  160A  158A  2741  120A  118A  	fcall	_clear_screen
  2857     0208                     l5848:
  2858                           
  2859                           ;main.c: 147:             else if((pressed_key == 0x2F || pressed_key == 0x37) && contro
      +                          l_flag == 0x62)
  2860     0208  1683               	bsf	3,5	;RP0=1, select bank3
  2861     0209  1703               	bsf	3,6	;RP1=1, select bank3
  2862     020A  01AD               	clrf	main@control_flag^(0+384)
  2863                           
  2864                           ;main.c: 148:             {
  2865     020B  2ACD               	goto	l5904
  2866     020C                     l5850:
  2867     020C  3061               	movlw	97
  2868     020D  062D               	xorwf	main@control_flag^(0+384),w
  2869     020E  1D03               	btfss	3,2
  2870     020F  2A11               	goto	u6891
  2871     0210  2A12               	goto	u6890
  2872     0211                     u6891:
  2873     0211  2A1E               	goto	l5858
  2874     0212                     u6890:
  2875     0212                     l5852:
  2876                           
  2877                           ;main.c: 150:                 reset_flag = 0x55;
  2878     0212  160A  158A  2741  120A  118A  	fcall	_clear_screen
  2879     0217                     l5854:
  2880                           
  2881                           ;main.c: 151:             }
  2882     0217  3002               	movlw	2
  2883     0218  1683               	bsf	3,5	;RP0=1, select bank3
  2884     0219  1703               	bsf	3,6	;RP1=1, select bank3
  2885     021A  00AD               	movwf	main@control_flag^(0+384)
  2886     021B                     l5856:
  2887                           
  2888                           ;main.c: 152:             delay = 0;
  2889     021B  3055               	movlw	85
  2890     021C  00AC               	movwf	main@reset_flag^(0+384)
  2891                           
  2892                           ;main.c: 153:         }
  2893     021D  2ACD               	goto	l5904
  2894     021E                     l5858:
  2895     021E  3064               	movlw	100
  2896     021F  062D               	xorwf	main@control_flag^(0+384),w
  2897     0220  1D03               	btfss	3,2
  2898     0221  2A23               	goto	u6901
  2899     0222  2A24               	goto	u6900
  2900     0223                     u6901:
  2901     0223  2ACD               	goto	l88
  2902     0224                     u6900:
  2903     0224                     l5860:
  2904                           
  2905                           ;main.c: 155:         switch(control_flag);main.c: 156:         {
  2906     0224  160A  158A  2741  120A  118A  	fcall	_clear_screen
  2907     0229                     l5862:
  2908                           
  2909                           ;main.c: 157:             case 0X00:
  2910     0229  1683               	bsf	3,5	;RP0=1, select bank3
  2911     022A  1703               	bsf	3,6	;RP1=1, select bank3
  2912     022B  01AD               	clrf	main@control_flag^(0+384)
  2913     022C                     l5864:
  2914                           
  2915                           ;main.c: 158:                 display_dashboard(event, speed);
  2916     022C  3022               	movlw	34
  2917     022D  00AC               	movwf	main@reset_flag^(0+384)
  2918     022E  2ACD               	goto	l5904
  2919     022F                     l5866:
  2920     022F  302F               	movlw	47
  2921     0230  1683               	bsf	3,5	;RP0=1, select bank3
  2922     0231  1703               	bsf	3,6	;RP1=1, select bank3
  2923     0232  062E               	xorwf	main@pressed_key^(0+384),w
  2924     0233  1D03               	btfss	3,2
  2925     0234  2A36               	goto	u6911
  2926     0235  2A37               	goto	u6910
  2927     0236                     u6911:
  2928     0236  2AB4               	goto	l5896
  2929     0237                     u6910:
  2930     0237                     l5868:
  2931     0237  3002               	movlw	2
  2932     0238  062D               	xorwf	main@control_flag^(0+384),w
  2933     0239  1D03               	btfss	3,2
  2934     023A  2A3C               	goto	u6921
  2935     023B  2A3D               	goto	u6920
  2936     023C                     u6921:
  2937     023C  2AB4               	goto	l5896
  2938     023D                     u6920:
  2939     023D                     l5870:
  2940     023D  0825               	movf	(main@delay+3)^(0+384),w
  2941     023E  1D03               	btfss	3,2
  2942     023F  2A4E               	goto	u6930
  2943     0240  0824               	movf	(main@delay+2)^(0+384),w
  2944     0241  1D03               	btfss	3,2
  2945     0242  2A4E               	goto	u6930
  2946     0243  0823               	movf	(main@delay+1)^(0+384),w
  2947     0244  1D03               	btfss	3,2
  2948     0245  2A4E               	goto	u6930
  2949     0246  3006               	movlw	6
  2950     0247  0222               	subwf	main@delay^(0+384),w
  2951     0248  1D03               	skipz
  2952     0249  2A4A               	goto	u6933
  2953     024A                     u6933:
  2954     024A  1C03               	btfss	3,0
  2955     024B  2A4D               	goto	u6931
  2956     024C  2A4E               	goto	u6930
  2957     024D                     u6931:
  2958     024D  2AB4               	goto	l5896
  2959     024E                     u6930:
  2960     024E  2AA1               	goto	l5894
  2961     024F                     l91:	
  2962                           ;main.c: 164:                         clear_screen();;main.c: 165:                      
      +                             control_flag = 0X00;
  2963                           
  2964                           
  2965                           ;main.c: 166:                         clcd_write(0x0C, 0);
  2966     024F  3061               	movlw	97
  2967     0250  00AD               	movwf	main@control_flag^(0+384)
  2968                           
  2969                           ;main.c: 167:                         _delay((unsigned long)((100)*(20000000/4000000.0))
      +                          );
  2970     0251  3056               	movlw	86
  2971     0252  00AC               	movwf	main@reset_flag^(0+384)
  2972     0253                     l5874:
  2973                           
  2974                           ;main.c: 168:                         TMR2ON = 0;
  2975     0253  160A  158A  2741  120A  118A  	fcall	_clear_screen
  2976                           
  2977                           ;main.c: 169:                         break;
  2978     0258  2ACD               	goto	l5904
  2979     0259                     l93:	
  2980                           ;main.c: 170:                     case 0x44:
  2981                           
  2982                           
  2983                           ;main.c: 171:                         clear_screen();
  2984     0259  3062               	movlw	98
  2985     025A  00AD               	movwf	main@control_flag^(0+384)
  2986                           
  2987                           ;main.c: 172:                         control_flag = 0X02;
  2988     025B  2ACD               	goto	l5904
  2989     025C                     l94:	
  2990                           ;main.c: 173:                         clcd_write(0x0C, 0);
  2991                           
  2992                           
  2993                           ;main.c: 174:                         _delay((unsigned long)((100)*(20000000/4000000.0))
      +                          );
  2994     025C  3063               	movlw	99
  2995     025D  00AD               	movwf	main@control_flag^(0+384)
  2996     025E                     l5876:
  2997                           
  2998                           ;main.c: 175:                         reset_flag = 0x55;
  2999     025E  160A  158A  2741  120A  118A  	fcall	_clear_screen
  3000     0263                     l5878:
  3001                           
  3002                           ;main.c: 176:                         continue;
  3003     0263  3011               	movlw	low (STR_11| (0+32768))
  3004     0264  00F6               	movwf	clcd_print@str
  3005     0265  3090               	movlw	high (STR_11| (0+32768))
  3006     0266  00F7               	movwf	clcd_print@str+1
  3007     0267  3080               	movlw	128
  3008     0268  00F8               	movwf	clcd_print@addr
  3009     0269  160A  118A  2255  120A  118A  	fcall	_clcd_print
  3010     026E                     l5880:
  3011                           
  3012                           ;main.c: 177:                 }
  3013     026E  3027               	movlw	39
  3014     026F  1283               	bcf	3,5	;RP0=0, select bank0
  3015     0270  1303               	bcf	3,6	;RP1=0, select bank0
  3016     0271  00D0               	movwf	??_main+2
  3017     0272  300D               	movlw	13
  3018     0273  00CF               	movwf	??_main+1
  3019     0274  3025               	movlw	37
  3020     0275  00CE               	movwf	??_main
  3021     0276                     u7037:
  3022     0276  0BCE               	decfsz	??_main,f
  3023     0277  2A76               	goto	u7037
  3024     0278  0BCF               	decfsz	??_main+1,f
  3025     0279  2A76               	goto	u7037
  3026     027A  0BD0               	decfsz	??_main+2,f
  3027     027B  2A76               	goto	u7037
  3028     027C  2A7D               	nop2
  3029                           
  3030                           ;main.c: 178:                 break;
  3031     027D  2ACD               	goto	l5904
  3032     027E                     l95:	
  3033                           ;main.c: 179:             case 0X02:
  3034                           
  3035                           
  3036                           ;main.c: 180:                 switch(menu_position = menu_screen(pressed_key, reset_flag
      +                          ))
  3037     027E  3064               	movlw	100
  3038     027F  00AD               	movwf	main@control_flag^(0+384)
  3039     0280                     l5882:
  3040                           
  3041                           ;main.c: 181:                 {
  3042     0280  160A  158A  2741  120A  118A  	fcall	_clear_screen
  3043     0285                     l5884:
  3044                           
  3045                           ;main.c: 182:                     case 0x33:
  3046     0285  3057               	movlw	87
  3047     0286  1683               	bsf	3,5	;RP0=1, select bank3
  3048     0287  1703               	bsf	3,6	;RP1=1, select bank3
  3049     0288  00AC               	movwf	main@reset_flag^(0+384)
  3050                           
  3051                           ;main.c: 183:                         clear_screen();
  3052     0289  2ACD               	goto	l5904
  3053     028A                     l96:	
  3054                           ;main.c: 184:                         control_flag = 0X00;
  3055                           
  3056                           
  3057                           ;main.c: 185:                         clcd_write(0x0C, 0);
  3058     028A  3065               	movlw	101
  3059     028B  00AD               	movwf	main@control_flag^(0+384)
  3060     028C                     l5886:
  3061                           
  3062                           ;main.c: 186:                         _delay((unsigned long)((100)*(20000000/4000000.0))
      +                          );
  3063     028C  160A  158A  2741  120A  118A  	fcall	_clear_screen
  3064     0291                     l5888:
  3065                           
  3066                           ;main.c: 187:                         continue;
  3067     0291  3022               	movlw	low (STR_12| (0+32768))
  3068     0292  00F6               	movwf	clcd_print@str
  3069     0293  3090               	movlw	high (STR_12| (0+32768))
  3070     0294  00F7               	movwf	clcd_print@str+1
  3071     0295  3080               	movlw	128
  3072     0296  00F8               	movwf	clcd_print@addr
  3073     0297  160A  118A  2255  120A  118A  	fcall	_clcd_print
  3074     029C                     l5890:
  3075                           
  3076                           ;main.c: 188:                 }
  3077     029C  3058               	movlw	88
  3078     029D  1683               	bsf	3,5	;RP0=1, select bank3
  3079     029E  1703               	bsf	3,6	;RP1=1, select bank3
  3080     029F  00AC               	movwf	main@reset_flag^(0+384)
  3081                           
  3082                           ;main.c: 189:                 break;
  3083     02A0  2ACD               	goto	l5904
  3084     02A1                     l5894:
  3085     02A1  1683               	bsf	3,5	;RP0=1, select bank3
  3086     02A2  1703               	bsf	3,6	;RP1=1, select bank3
  3087     02A3  081E               	movf	main@menu_position^(0+384),w
  3088                           
  3089                           ; Switch size 1, requested type "simple"
  3090                           ; Number of cases is 5, Range of values is 0 to 4
  3091                           ; switch strategies available:
  3092                           ; Name         Instructions Cycles
  3093                           ; simple_byte           16     9 (average)
  3094                           ; direct_byte           23     8 (fixed)
  3095                           ; jumptable            260     6 (fixed)
  3096                           ;	Chosen strategy is simple_byte
  3097     02A4  3A00               	xorlw	0	; case 0
  3098     02A5  1903               	skipnz
  3099     02A6  2A4F               	goto	l91
  3100     02A7  3A01               	xorlw	1	; case 1
  3101     02A8  1903               	skipnz
  3102     02A9  2A59               	goto	l93
  3103     02AA  3A03               	xorlw	3	; case 2
  3104     02AB  1903               	skipnz
  3105     02AC  2A5C               	goto	l94
  3106     02AD  3A01               	xorlw	1	; case 3
  3107     02AE  1903               	skipnz
  3108     02AF  2A7E               	goto	l95
  3109     02B0  3A07               	xorlw	7	; case 4
  3110     02B1  1903               	skipnz
  3111     02B2  2A8A               	goto	l96
  3112     02B3  2ACD               	goto	l88
  3113     02B4                     l5896:
  3114     02B4  302F               	movlw	47
  3115     02B5  1683               	bsf	3,5	;RP0=1, select bank3
  3116     02B6  1703               	bsf	3,6	;RP1=1, select bank3
  3117     02B7  062E               	xorwf	main@pressed_key^(0+384),w
  3118     02B8  1903               	btfsc	3,2
  3119     02B9  2ABB               	goto	u6941
  3120     02BA  2ABC               	goto	u6940
  3121     02BB                     u6941:
  3122     02BB  2AC2               	goto	l5900
  3123     02BC                     u6940:
  3124     02BC                     l5898:
  3125     02BC  3037               	movlw	55
  3126     02BD  062E               	xorwf	main@pressed_key^(0+384),w
  3127     02BE  1D03               	btfss	3,2
  3128     02BF  2AC1               	goto	u6951
  3129     02C0  2AC2               	goto	u6950
  3130     02C1                     u6951:
  3131     02C1  2ACD               	goto	l88
  3132     02C2                     u6950:
  3133     02C2                     l5900:
  3134     02C2  3062               	movlw	98
  3135     02C3  062D               	xorwf	main@control_flag^(0+384),w
  3136     02C4  1D03               	btfss	3,2
  3137     02C5  2AC7               	goto	u6961
  3138     02C6  2AC8               	goto	u6960
  3139     02C7                     u6961:
  3140     02C7  2ACD               	goto	l88
  3141     02C8                     u6960:
  3142     02C8                     l5902:
  3143                           
  3144                           ;main.c: 193:                     case 0x23:;main.c: 194:                         clear_
      +                          screen();
  3145     02C8  3002               	movlw	2
  3146     02C9  00AD               	movwf	main@control_flag^(0+384)
  3147                           
  3148                           ;main.c: 195:                         control_flag = 0X02;
  3149     02CA  3055               	movlw	85
  3150     02CB  00AC               	movwf	main@reset_flag^(0+384)
  3151     02CC  2ACD               	goto	l5904
  3152     02CD                     l88:
  3153     02CD                     l5904:
  3154                           
  3155                           ;main.c: 197:                         _delay((unsigned long)((100)*(20000000/4000000.0))
      +                          );
  3156     02CD  3000               	movlw	0
  3157     02CE  1683               	bsf	3,5	;RP0=1, select bank3
  3158     02CF  1703               	bsf	3,6	;RP1=1, select bank3
  3159     02D0  00A5               	movwf	(main@delay+3)^(0+384)
  3160     02D1  3000               	movlw	0
  3161     02D2  00A4               	movwf	(main@delay+2)^(0+384)
  3162     02D3  3000               	movlw	0
  3163     02D4  00A3               	movwf	(main@delay+1)^(0+384)
  3164     02D5  3000               	movlw	0
  3165     02D6  00A2               	movwf	main@delay^(0+384)
  3166     02D7  2BEB               	goto	l5988
  3167     02D8                     l5906:
  3168                           
  3169                           ;main.c: 203:                 _delay((unsigned long)((2000)*(20000000/4000.0)));
  3170     02D8  30A6               	movlw	(low (main@event| (0+256)))& (0+255)
  3171     02D9  1283               	bcf	3,5	;RP0=0, select bank0
  3172     02DA  1303               	bcf	3,6	;RP1=0, select bank0
  3173     02DB  00A2               	movwf	display_dashboard@event
  3174     02DC  1683               	bsf	3,5	;RP0=1, select bank3
  3175     02DD  1703               	bsf	3,6	;RP1=1, select bank3
  3176     02DE  082B               	movf	main@speed^(0+384),w
  3177     02DF  1283               	bcf	3,5	;RP0=0, select bank0
  3178     02E0  1303               	bcf	3,6	;RP1=0, select bank0
  3179     02E1  00A3               	movwf	display_dashboard@speed
  3180     02E2  160A  118A  24F0  120A  118A  	fcall	_display_dashboard
  3181                           
  3182                           ;main.c: 204:                 clear_screen();
  3183     02E7  2C05               	goto	l103
  3184     02E8                     l5908:
  3185                           
  3186                           ;main.c: 209:                 download_log();
  3187     02E8  160A  158A  2741  120A  118A  	fcall	_clear_screen
  3188     02ED                     l5910:
  3189                           
  3190                           ;main.c: 210:                 control_flag = 0X02;
  3191     02ED  1683               	bsf	3,5	;RP0=1, select bank3
  3192     02EE  1703               	bsf	3,6	;RP1=1, select bank3
  3193     02EF  01AD               	clrf	main@control_flag^(0+384)
  3194     02F0                     l5912:
  3195                           
  3196                           ;main.c: 211:                 reset_flag = 0x55;
  3197     02F0  01F2               	clrf	clcd_write@mode
  3198     02F1  300C               	movlw	12
  3199     02F2  160A  118A  234B  120A  118A  	fcall	_clcd_write
  3200     02F7                     l5914:
  3201                           
  3202                           ;main.c: 212:                 break;
  3203     02F7  30A5               	movlw	165
  3204     02F8  1283               	bcf	3,5	;RP0=0, select bank0
  3205     02F9  1303               	bcf	3,6	;RP1=0, select bank0
  3206     02FA  00CE               	movwf	??_main
  3207     02FB                     u7047:
  3208     02FB  0BCE               	decfsz	??_main,f
  3209     02FC  2AFB               	goto	u7047
  3210     02FD  2AFE               	nop2
  3211     02FE                     l5916:
  3212                           
  3213                           ;main.c: 213:             case 0x64:
  3214     02FE  1283               	bcf	3,5	;RP0=0, select bank0
  3215     02FF  1303               	bcf	3,6	;RP1=0, select bank0
  3216     0300  1112               	bcf	18,2	;volatile
  3217                           
  3218                           ;main.c: 214:                 clear_screen();
  3219     0301  2C05               	goto	l103
  3220     0302                     l5918:
  3221                           
  3222                           ;main.c: 216:                     control_flag = 0X00;
  3223     0302  160A  158A  2741  120A  118A  	fcall	_clear_screen
  3224     0307                     l5920:
  3225                           
  3226                           ;main.c: 217:                     reset_flag = 0x22;
  3227     0307  3002               	movlw	2
  3228     0308  1683               	bsf	3,5	;RP0=1, select bank3
  3229     0309  1703               	bsf	3,6	;RP1=1, select bank3
  3230     030A  00AD               	movwf	main@control_flag^(0+384)
  3231                           
  3232                           ;main.c: 218:                 }
  3233     030B  01F2               	clrf	clcd_write@mode
  3234     030C  300C               	movlw	12
  3235     030D  160A  118A  234B  120A  118A  	fcall	_clcd_write
  3236     0312                     l5922:
  3237                           
  3238                           ;main.c: 219:                 break;
  3239     0312  30A5               	movlw	165
  3240     0313  1283               	bcf	3,5	;RP0=0, select bank0
  3241     0314  1303               	bcf	3,6	;RP1=0, select bank0
  3242     0315  00CE               	movwf	??_main
  3243     0316                     u7057:
  3244     0316  0BCE               	decfsz	??_main,f
  3245     0317  2B16               	goto	u7057
  3246     0318  2B19               	nop2
  3247     0319                     l5924:
  3248                           
  3249                           ;main.c: 220:             case 0x65:
  3250     0319  3055               	movlw	85
  3251     031A  1683               	bsf	3,5	;RP0=1, select bank3
  3252     031B  1703               	bsf	3,6	;RP1=1, select bank3
  3253     031C  00AC               	movwf	main@reset_flag^(0+384)
  3254                           
  3255                           ;main.c: 221:                 if(change_pwd(pressed_key, reset_flag) == 0x70){
  3256     031D  2896               	goto	l5762
  3257     031E                     l5928:
  3258     031E  082C               	movf	main@reset_flag^(0+384),w
  3259     031F  1283               	bcf	3,5	;RP0=0, select bank0
  3260     0320  1303               	bcf	3,6	;RP1=0, select bank0
  3261     0321  00A2               	movwf	login@reset_flag
  3262     0322  1683               	bsf	3,5	;RP0=1, select bank3
  3263     0323  1703               	bsf	3,6	;RP1=1, select bank3
  3264     0324  082E               	movf	main@pressed_key^(0+384),w
  3265     0325  120A  158A  2472  120A  118A  	fcall	_login
  3266                           
  3267                           ; Switch size 1, requested type "simple"
  3268                           ; Number of cases is 2, Range of values is 51 to 68
  3269                           ; switch strategies available:
  3270                           ; Name         Instructions Cycles
  3271                           ; simple_byte            7     4 (average)
  3272                           ; direct_byte           65    11 (fixed)
  3273                           ; jumptable            263     9 (fixed)
  3274                           ;	Chosen strategy is simple_byte
  3275     032A  3A33               	xorlw	51	; case 51
  3276     032B  1903               	skipnz
  3277     032C  2AE8               	goto	l5908
  3278     032D  3A77               	xorlw	119	; case 68
  3279     032E  1903               	skipnz
  3280     032F  2B02               	goto	l5918
  3281     0330  2C05               	goto	l103
  3282     0331                     l5930:
  3283                           
  3284                           ;main.c: 228:                 }
  3285     0331  160A  158A  2741  120A  118A  	fcall	_clear_screen
  3286     0336                     l5932:
  3287                           
  3288                           ;main.c: 229:                 break;
  3289     0336  1683               	bsf	3,5	;RP0=1, select bank3
  3290     0337  1703               	bsf	3,6	;RP1=1, select bank3
  3291     0338  01AD               	clrf	main@control_flag^(0+384)
  3292     0339                     l5934:
  3293                           
  3294                           ;main.c: 230:         }
  3295     0339  01F2               	clrf	clcd_write@mode
  3296     033A  300C               	movlw	12
  3297     033B  160A  118A  234B  120A  118A  	fcall	_clcd_write
  3298     0340                     l5936:
  3299                           
  3300                           ;main.c: 231:         reset_flag = 0x22;
  3301     0340  30A5               	movlw	165
  3302     0341  1283               	bcf	3,5	;RP0=0, select bank0
  3303     0342  1303               	bcf	3,6	;RP1=0, select bank0
  3304     0343  00CE               	movwf	??_main
  3305     0344                     u7067:
  3306     0344  0BCE               	decfsz	??_main,f
  3307     0345  2B44               	goto	u7067
  3308     0346  2B47               	nop2
  3309                           
  3310                           ;main.c: 232:     }
  3311     0347  2896               	goto	l5762
  3312     0348                     l5940:
  3313     0348  082C               	movf	main@reset_flag^(0+384),w
  3314     0349  1283               	bcf	3,5	;RP0=0, select bank0
  3315     034A  1303               	bcf	3,6	;RP1=0, select bank0
  3316     034B  00A2               	movwf	menu_screen@reset_flag
  3317     034C  1683               	bsf	3,5	;RP0=1, select bank3
  3318     034D  1703               	bsf	3,6	;RP1=1, select bank3
  3319     034E  082E               	movf	main@pressed_key^(0+384),w
  3320     034F  120A  158A  213C  120A  118A  	fcall	_menu_screen
  3321     0354  1683               	bsf	3,5	;RP0=1, select bank3
  3322     0355  1703               	bsf	3,6	;RP1=1, select bank3
  3323     0356  009E               	movwf	main@menu_position^(0+384)
  3324                           
  3325                           ; Switch size 1, requested type "simple"
  3326                           ; Number of cases is 1, Range of values is 51 to 51
  3327                           ; switch strategies available:
  3328                           ; Name         Instructions Cycles
  3329                           ; simple_byte            4     3 (average)
  3330                           ; direct_byte           14    11 (fixed)
  3331                           ; jumptable            263     9 (fixed)
  3332                           ;	Chosen strategy is simple_byte
  3333     0357  3A33               	xorlw	51	; case 51
  3334     0358  1903               	skipnz
  3335     0359  2B31               	goto	l5930
  3336     035A  2C05               	goto	l103
  3337     035B                     l5942:
  3338     035B  160A  158A  2741  120A  118A  	fcall	_clear_screen
  3339     0360                     l5944:
  3340     0360  3002               	movlw	2
  3341     0361  1683               	bsf	3,5	;RP0=1, select bank3
  3342     0362  1703               	bsf	3,6	;RP1=1, select bank3
  3343     0363  00AD               	movwf	main@control_flag^(0+384)
  3344     0364  01F2               	clrf	clcd_write@mode
  3345     0365  300C               	movlw	12
  3346     0366  160A  118A  234B  120A  118A  	fcall	_clcd_write
  3347     036B  2B40               	goto	l5936
  3348     036C                     l5950:
  3349     036C  082C               	movf	main@reset_flag^(0+384),w
  3350     036D  00F9               	movwf	view_log@reset_flag
  3351     036E  082E               	movf	main@pressed_key^(0+384),w
  3352     036F  120A  158A  22A5  120A  118A  	fcall	_view_log
  3353                           
  3354                           ; Switch size 1, requested type "simple"
  3355                           ; Number of cases is 1, Range of values is 35 to 35
  3356                           ; switch strategies available:
  3357                           ; Name         Instructions Cycles
  3358                           ; simple_byte            4     3 (average)
  3359                           ; direct_byte           14    11 (fixed)
  3360                           ; jumptable            263     9 (fixed)
  3361                           ;	Chosen strategy is simple_byte
  3362     0374  3A23               	xorlw	35	; case 35
  3363     0375  1903               	skipnz
  3364     0376  2B5B               	goto	l5942
  3365     0377  2C05               	goto	l103
  3366     0378                     l5952:
  3367     0378  082E               	movf	main@pressed_key^(0+384),w
  3368     0379  160A  118A  2409  120A  118A  	fcall	_clear_log
  3369     037E                     l5954:
  3370     037E  3033               	movlw	51
  3371     037F  1283               	bcf	3,5	;RP0=0, select bank0
  3372     0380  1303               	bcf	3,6	;RP1=0, select bank0
  3373     0381  00D0               	movwf	??_main+2
  3374     0382  30BB               	movlw	187
  3375     0383  00CF               	movwf	??_main+1
  3376     0384  30DF               	movlw	223
  3377     0385  00CE               	movwf	??_main
  3378     0386                     u7077:
  3379     0386  0BCE               	decfsz	??_main,f
  3380     0387  2B86               	goto	u7077
  3381     0388  0BCF               	decfsz	??_main+1,f
  3382     0389  2B86               	goto	u7077
  3383     038A  0BD0               	decfsz	??_main+2,f
  3384     038B  2B86               	goto	u7077
  3385     038C                     l5956:
  3386     038C  160A  158A  2741  120A  118A  	fcall	_clear_screen
  3387     0391                     l5958:
  3388     0391  3002               	movlw	2
  3389     0392  1683               	bsf	3,5	;RP0=1, select bank3
  3390     0393  1703               	bsf	3,6	;RP1=1, select bank3
  3391     0394  00AD               	movwf	main@control_flag^(0+384)
  3392     0395                     l5960:
  3393     0395  3055               	movlw	85
  3394     0396  00AC               	movwf	main@reset_flag^(0+384)
  3395     0397  2C05               	goto	l103
  3396     0398                     l5962:
  3397     0398  120A  158A  20B9  120A  118A  	fcall	_download_log
  3398     039D  2B91               	goto	l5958
  3399     039E                     l5968:
  3400     039E  160A  158A  2741  120A  118A  	fcall	_clear_screen
  3401     03A3                     l5970:
  3402     03A3  1683               	bsf	3,5	;RP0=1, select bank3
  3403     03A4  1703               	bsf	3,6	;RP1=1, select bank3
  3404     03A5  082C               	movf	main@reset_flag^(0+384),w
  3405     03A6  1283               	bcf	3,5	;RP0=0, select bank0
  3406     03A7  1303               	bcf	3,6	;RP1=0, select bank0
  3407     03A8  00AE               	movwf	set_time@reset_flag
  3408     03A9  1683               	bsf	3,5	;RP0=1, select bank3
  3409     03AA  1703               	bsf	3,6	;RP1=1, select bank3
  3410     03AB  082E               	movf	main@pressed_key^(0+384),w
  3411     03AC  120A  118A  240D  120A  118A  	fcall	_set_time
  3412     03B1  3A60               	xorlw	96
  3413     03B2  1D03               	skipz
  3414     03B3  2BB5               	goto	u6971
  3415     03B4  2BB6               	goto	u6970
  3416     03B5                     u6971:
  3417     03B5  2C05               	goto	l103
  3418     03B6                     u6970:
  3419     03B6                     l5972:
  3420     03B6  1683               	bsf	3,5	;RP0=1, select bank3
  3421     03B7  1703               	bsf	3,6	;RP1=1, select bank3
  3422     03B8  01AD               	clrf	main@control_flag^(0+384)
  3423     03B9                     l5974:
  3424     03B9  3022               	movlw	34
  3425     03BA  00AC               	movwf	main@reset_flag^(0+384)
  3426     03BB  2C05               	goto	l103
  3427     03BC                     l5976:
  3428     03BC  082C               	movf	main@reset_flag^(0+384),w
  3429     03BD  1283               	bcf	3,5	;RP0=0, select bank0
  3430     03BE  1303               	bcf	3,6	;RP1=0, select bank0
  3431     03BF  00A2               	movwf	change_pwd@reset_flag
  3432     03C0  1683               	bsf	3,5	;RP0=1, select bank3
  3433     03C1  1703               	bsf	3,6	;RP1=1, select bank3
  3434     03C2  082E               	movf	main@pressed_key^(0+384),w
  3435     03C3  120A  118A  2666  120A  118A  	fcall	_change_pwd
  3436     03C8  3A70               	xorlw	112
  3437     03C9  1D03               	skipz
  3438     03CA  2BCC               	goto	u6981
  3439     03CB  2BCD               	goto	u6980
  3440     03CC                     u6981:
  3441     03CC  2BD1               	goto	l5982
  3442     03CD                     u6980:
  3443     03CD                     l5978:
  3444     03CD  1683               	bsf	3,5	;RP0=1, select bank3
  3445     03CE  1703               	bsf	3,6	;RP1=1, select bank3
  3446     03CF  01AD               	clrf	main@control_flag^(0+384)
  3447     03D0  2B95               	goto	l5960
  3448     03D1                     l5982:
  3449     03D1  1683               	bsf	3,5	;RP0=1, select bank3
  3450     03D2  1703               	bsf	3,6	;RP1=1, select bank3
  3451     03D3  082C               	movf	main@reset_flag^(0+384),w
  3452     03D4  1283               	bcf	3,5	;RP0=0, select bank0
  3453     03D5  1303               	bcf	3,6	;RP1=0, select bank0
  3454     03D6  00A2               	movwf	change_pwd@reset_flag
  3455     03D7  1683               	bsf	3,5	;RP0=1, select bank3
  3456     03D8  1703               	bsf	3,6	;RP1=1, select bank3
  3457     03D9  082E               	movf	main@pressed_key^(0+384),w
  3458     03DA  120A  118A  2666  120A  118A  	fcall	_change_pwd
  3459     03DF  3A71               	xorlw	113
  3460     03E0  1D03               	skipz
  3461     03E1  2BE3               	goto	u6991
  3462     03E2  2BE4               	goto	u6990
  3463     03E3                     u6991:
  3464     03E3  2C05               	goto	l103
  3465     03E4                     u6990:
  3466     03E4                     l5984:
  3467     03E4  3055               	movlw	85
  3468     03E5  1683               	bsf	3,5	;RP0=1, select bank3
  3469     03E6  1703               	bsf	3,6	;RP1=1, select bank3
  3470     03E7  00AC               	movwf	main@reset_flag^(0+384)
  3471     03E8  3002               	movlw	2
  3472     03E9  00AD               	movwf	main@control_flag^(0+384)
  3473     03EA  2C05               	goto	l103
  3474     03EB                     l5988:
  3475     03EB  082D               	movf	main@control_flag^(0+384),w
  3476                           
  3477                           ; Switch size 1, requested type "simple"
  3478                           ; Number of cases is 8, Range of values is 0 to 101
  3479                           ; switch strategies available:
  3480                           ; Name         Instructions Cycles
  3481                           ; simple_byte           25    13 (average)
  3482                           ; jumptable            260     6 (fixed)
  3483                           ;	Chosen strategy is simple_byte
  3484     03EC  3A00               	xorlw	0	; case 0
  3485     03ED  1903               	skipnz
  3486     03EE  2AD8               	goto	l5906
  3487     03EF  3A01               	xorlw	1	; case 1
  3488     03F0  1903               	skipnz
  3489     03F1  2B1E               	goto	l5928
  3490     03F2  3A03               	xorlw	3	; case 2
  3491     03F3  1903               	skipnz
  3492     03F4  2B48               	goto	l5940
  3493     03F5  3A63               	xorlw	99	; case 97
  3494     03F6  1903               	skipnz
  3495     03F7  2B6C               	goto	l5950
  3496     03F8  3A03               	xorlw	3	; case 98
  3497     03F9  1903               	skipnz
  3498     03FA  2B78               	goto	l5952
  3499     03FB  3A01               	xorlw	1	; case 99
  3500     03FC  1903               	skipnz
  3501     03FD  2B98               	goto	l5962
  3502     03FE  3A07               	xorlw	7	; case 100
  3503     03FF  1903               	skipnz
  3504     0400  2B9E               	goto	l5968
  3505     0401  3A01               	xorlw	1	; case 101
  3506     0402  1903               	skipnz
  3507     0403  2BBC               	goto	l5976
  3508     0404  2C05               	goto	l103
  3509     0405                     l103:
  3510     0405  3022               	movlw	34
  3511     0406  1683               	bsf	3,5	;RP0=1, select bank3
  3512     0407  1703               	bsf	3,6	;RP1=1, select bank3
  3513     0408  00AC               	movwf	main@reset_flag^(0+384)
  3514     0409  2896               	goto	l5762
  3515     040A  120A  118A  280C   	ljmp	start
  3516     040D                     __end_of_main:
  3517                           
  3518                           	psect	text1
  3519     0AA5                     __ptext1:	
  3520 ;; *************** function _view_log *****************
  3521 ;; Defined at:
  3522 ;;		line 246 in file "car_black_box_def.c"
  3523 ;; Parameters:    Size  Location     Type
  3524 ;;  key             1    wreg     unsigned char 
  3525 ;;  reset_flag      1    9[COMMON] unsigned char 
  3526 ;; Auto vars:     Size  Location     Type
  3527 ;;  key             1    3[BANK0 ] unsigned char 
  3528 ;; Return value:  Size  Location     Type
  3529 ;;                  1    wreg      unsigned char 
  3530 ;; Registers used:
  3531 ;;		wreg, fsr0l, fsr0h, status,2, status,0, btemp+1, pclath, cstack
  3532 ;; Tracked objects:
  3533 ;;		On entry : 0/0
  3534 ;;		On exit  : 0/0
  3535 ;;		Unchanged: 0/0
  3536 ;; Data sizes:     COMMON   BANK0   BANK1   BANK3   BANK2
  3537 ;;      Params:         1       0       0       0       0
  3538 ;;      Locals:         0       1       0       0       0
  3539 ;;      Temps:          0       3       0       0       0
  3540 ;;      Totals:         1       4       0       0       0
  3541 ;;Total ram usage:        5 bytes
  3542 ;; Hardware stack levels used: 1
  3543 ;; Hardware stack levels required when called: 6
  3544 ;; This function calls:
  3545 ;;		___awmod
  3546 ;;		_clcd_print
  3547 ;;		_clear_screen
  3548 ;;		_fetch_logs
  3549 ;; This function is called by:
  3550 ;;		_main
  3551 ;; This function uses a non-reentrant model
  3552 ;;
  3553                           
  3554     0AA5                     _view_log:	
  3555                           ;psect for function _view_log
  3556                           
  3557                           
  3558                           ;incstack = 0
  3559                           ; Regs used in _view_log: [wreg-fsr0h+status,2+status,0+btemp+1+pclath+cstack]
  3560                           ;view_log@key stored from wreg
  3561     0AA5  1283               	bcf	3,5	;RP0=0, select bank0
  3562     0AA6  1303               	bcf	3,6	;RP1=0, select bank0
  3563     0AA7  00A3               	movwf	view_log@key
  3564     0AA8                     l4728:
  3565                           
  3566                           ;car_black_box_def.c: 246: unsigned char view_log(unsigned char key, unsigned char reset
      +                          _flag);car_black_box_def.c: 247: {;car_black_box_def.c: 248:     static char log_pos = 0
      +                          ;;car_black_box_def.c: 249:     if(reset_flag == 0x56)
  3567     0AA8  3056               	movlw	86
  3568     0AA9  0679               	xorwf	view_log@reset_flag,w
  3569     0AAA  1D03               	btfss	3,2
  3570     0AAB  2AAD               	goto	u5131
  3571     0AAC  2AAE               	goto	u5130
  3572     0AAD                     u5131:
  3573     0AAD  2AB3               	goto	l4734
  3574     0AAE                     u5130:
  3575     0AAE                     l4730:
  3576                           
  3577                           ;car_black_box_def.c: 250:     {;car_black_box_def.c: 251:         key = 0x3F;
  3578     0AAE  303F               	movlw	63
  3579     0AAF  00A3               	movwf	view_log@key
  3580     0AB0                     l4732:
  3581                           
  3582                           ;car_black_box_def.c: 253:         log_pos = 0;
  3583     0AB0  1683               	bsf	3,5	;RP0=1, select bank1
  3584     0AB1  1303               	bcf	3,6	;RP1=0, select bank1
  3585     0AB2  01A9               	clrf	view_log@log_pos^(0+128)
  3586     0AB3                     l4734:
  3587                           
  3588                           ;car_black_box_def.c: 256:     if(clear_flag == 0)
  3589     0AB3  1683               	bsf	3,5	;RP0=1, select bank1
  3590     0AB4  1303               	bcf	3,6	;RP1=0, select bank1
  3591     0AB5  082B               	movf	_clear_flag^(0+128),w
  3592     0AB6  1D03               	btfss	3,2
  3593     0AB7  2AB9               	goto	u5141
  3594     0AB8  2ABA               	goto	u5140
  3595     0AB9                     u5141:
  3596     0AB9  2B4C               	goto	l4764
  3597     0ABA                     u5140:
  3598     0ABA                     l4736:
  3599                           
  3600                           ;car_black_box_def.c: 257:     {;car_black_box_def.c: 258:         if(key == 0x2F && eve
      +                          nts_logged > 0)
  3601     0ABA  302F               	movlw	47
  3602     0ABB  1283               	bcf	3,5	;RP0=0, select bank0
  3603     0ABC  1303               	bcf	3,6	;RP1=0, select bank0
  3604     0ABD  0623               	xorwf	view_log@key,w
  3605     0ABE  1D03               	btfss	3,2
  3606     0ABF  2AC1               	goto	u5151
  3607     0AC0  2AC2               	goto	u5150
  3608     0AC1                     u5151:
  3609     0AC1  2AF0               	goto	l380
  3610     0AC2                     u5150:
  3611     0AC2                     l4738:
  3612     0AC2  1683               	bsf	3,5	;RP0=1, select bank1
  3613     0AC3  1303               	bcf	3,6	;RP1=0, select bank1
  3614     0AC4  0826               	movf	(_events_logged+1)^(0+128),w
  3615     0AC5  3A80               	xorlw	128
  3616     0AC6  00FF               	movwf	btemp+1
  3617     0AC7  3080               	movlw	128
  3618     0AC8  027F               	subwf	btemp+1,w
  3619     0AC9  1D03               	skipz
  3620     0ACA  2ACD               	goto	u5165
  3621     0ACB  3001               	movlw	1
  3622     0ACC  0225               	subwf	_events_logged^(0+128),w
  3623     0ACD                     u5165:
  3624     0ACD  1C03               	skipc
  3625     0ACE  2AD0               	goto	u5161
  3626     0ACF  2AD1               	goto	u5160
  3627     0AD0                     u5161:
  3628     0AD0  2AF0               	goto	l380
  3629     0AD1                     u5160:
  3630     0AD1                     l4740:
  3631                           
  3632                           ;car_black_box_def.c: 259:         {;car_black_box_def.c: 260:             clear_screen(
      +                          );
  3633     0AD1  160A  158A  2741  120A  158A  	fcall	_clear_screen
  3634     0AD6                     l4742:
  3635                           
  3636                           ;car_black_box_def.c: 261:             log_pos++;
  3637     0AD6  3001               	movlw	1
  3638     0AD7  1683               	bsf	3,5	;RP0=1, select bank1
  3639     0AD8  1303               	bcf	3,6	;RP1=0, select bank1
  3640     0AD9  07A9               	addwf	view_log@log_pos^(0+128),f
  3641     0ADA                     l4744:
  3642                           
  3643                           ;car_black_box_def.c: 262:             log_pos = log_pos%events_logged;
  3644     0ADA  0826               	movf	(_events_logged+1)^(0+128),w
  3645     0ADB  00F3               	movwf	___awmod@divisor+1
  3646     0ADC  0825               	movf	_events_logged^(0+128),w
  3647     0ADD  00F2               	movwf	___awmod@divisor
  3648     0ADE  0829               	movf	view_log@log_pos^(0+128),w
  3649     0ADF  1283               	bcf	3,5	;RP0=0, select bank0
  3650     0AE0  1303               	bcf	3,6	;RP1=0, select bank0
  3651     0AE1  00A0               	movwf	??_view_log
  3652     0AE2  01A1               	clrf	??_view_log+1
  3653     0AE3  0820               	movf	??_view_log,w
  3654     0AE4  00F4               	movwf	___awmod@dividend
  3655     0AE5  0821               	movf	??_view_log+1,w
  3656     0AE6  00F5               	movwf	___awmod@dividend+1
  3657     0AE7  160A  118A  2544  120A  158A  	fcall	___awmod
  3658     0AEC  0872               	movf	?___awmod,w
  3659     0AED  1683               	bsf	3,5	;RP0=1, select bank1
  3660     0AEE  1303               	bcf	3,6	;RP1=0, select bank1
  3661     0AEF  00A9               	movwf	view_log@log_pos^(0+128)
  3662     0AF0                     l380:	
  3663                           ;car_black_box_def.c: 263:         }
  3664                           
  3665                           
  3666                           ;car_black_box_def.c: 264:         if(key == 0x37 && events_logged <= 10)
  3667     0AF0  3037               	movlw	55
  3668     0AF1  1283               	bcf	3,5	;RP0=0, select bank0
  3669     0AF2  1303               	bcf	3,6	;RP1=0, select bank0
  3670     0AF3  0623               	xorwf	view_log@key,w
  3671     0AF4  1D03               	btfss	3,2
  3672     0AF5  2AF7               	goto	u5171
  3673     0AF6  2AF8               	goto	u5170
  3674     0AF7                     u5171:
  3675     0AF7  2B2D               	goto	l4758
  3676     0AF8                     u5170:
  3677     0AF8                     l4746:
  3678     0AF8  1683               	bsf	3,5	;RP0=1, select bank1
  3679     0AF9  1303               	bcf	3,6	;RP1=0, select bank1
  3680     0AFA  0826               	movf	(_events_logged+1)^(0+128),w
  3681     0AFB  3A80               	xorlw	128
  3682     0AFC  00FF               	movwf	btemp+1
  3683     0AFD  3080               	movlw	128
  3684     0AFE  027F               	subwf	btemp+1,w
  3685     0AFF  1D03               	skipz
  3686     0B00  2B03               	goto	u5185
  3687     0B01  300B               	movlw	11
  3688     0B02  0225               	subwf	_events_logged^(0+128),w
  3689     0B03                     u5185:
  3690     0B03  1803               	skipnc
  3691     0B04  2B06               	goto	u5181
  3692     0B05  2B07               	goto	u5180
  3693     0B06                     u5181:
  3694     0B06  2B2D               	goto	l4758
  3695     0B07                     u5180:
  3696     0B07                     l4748:
  3697                           
  3698                           ;car_black_box_def.c: 265:         {;car_black_box_def.c: 266:             clear_screen(
      +                          );
  3699     0B07  160A  158A  2741  120A  158A  	fcall	_clear_screen
  3700     0B0C                     l4750:
  3701                           
  3702                           ;car_black_box_def.c: 267:             if(log_pos == 0)
  3703     0B0C  1683               	bsf	3,5	;RP0=1, select bank1
  3704     0B0D  1303               	bcf	3,6	;RP1=0, select bank1
  3705     0B0E  0829               	movf	view_log@log_pos^(0+128),w
  3706     0B0F  1D03               	btfss	3,2
  3707     0B10  2B12               	goto	u5191
  3708     0B11  2B13               	goto	u5190
  3709     0B12                     u5191:
  3710     0B12  2B15               	goto	l4754
  3711     0B13                     u5190:
  3712     0B13                     l4752:
  3713                           
  3714                           ;car_black_box_def.c: 268:             {;car_black_box_def.c: 269:                 log_p
      +                          os = events_logged;
  3715     0B13  0825               	movf	_events_logged^(0+128),w
  3716     0B14  00A9               	movwf	view_log@log_pos^(0+128)
  3717     0B15                     l4754:
  3718                           
  3719                           ;car_black_box_def.c: 271:             log_pos--;
  3720     0B15  3001               	movlw	1
  3721     0B16  02A9               	subwf	view_log@log_pos^(0+128),f
  3722     0B17                     l4756:
  3723                           
  3724                           ;car_black_box_def.c: 272:             log_pos = log_pos%events_logged;
  3725     0B17  0826               	movf	(_events_logged+1)^(0+128),w
  3726     0B18  00F3               	movwf	___awmod@divisor+1
  3727     0B19  0825               	movf	_events_logged^(0+128),w
  3728     0B1A  00F2               	movwf	___awmod@divisor
  3729     0B1B  0829               	movf	view_log@log_pos^(0+128),w
  3730     0B1C  1283               	bcf	3,5	;RP0=0, select bank0
  3731     0B1D  1303               	bcf	3,6	;RP1=0, select bank0
  3732     0B1E  00A0               	movwf	??_view_log
  3733     0B1F  01A1               	clrf	??_view_log+1
  3734     0B20  0820               	movf	??_view_log,w
  3735     0B21  00F4               	movwf	___awmod@dividend
  3736     0B22  0821               	movf	??_view_log+1,w
  3737     0B23  00F5               	movwf	___awmod@dividend+1
  3738     0B24  160A  118A  2544  120A  158A  	fcall	___awmod
  3739     0B29  0872               	movf	?___awmod,w
  3740     0B2A  1683               	bsf	3,5	;RP0=1, select bank1
  3741     0B2B  1303               	bcf	3,6	;RP1=0, select bank1
  3742     0B2C  00A9               	movwf	view_log@log_pos^(0+128)
  3743     0B2D                     l4758:
  3744                           
  3745                           ;car_black_box_def.c: 274:         clcd_print("L TIME     E  SP", (0x80 + 0));
  3746     0B2D  3000               	movlw	low (STR_26| (0+32768))
  3747     0B2E  00F6               	movwf	clcd_print@str
  3748     0B2F  3090               	movlw	high (STR_26| (0+32768))
  3749     0B30  00F7               	movwf	clcd_print@str+1
  3750     0B31  3080               	movlw	128
  3751     0B32  00F8               	movwf	clcd_print@addr
  3752     0B33  160A  118A  2255  120A  158A  	fcall	_clcd_print
  3753     0B38                     l4760:
  3754                           
  3755                           ;car_black_box_def.c: 275:         fetch_logs(log_pos);
  3756     0B38  1683               	bsf	3,5	;RP0=1, select bank1
  3757     0B39  1303               	bcf	3,6	;RP1=0, select bank1
  3758     0B3A  0829               	movf	view_log@log_pos^(0+128),w
  3759     0B3B  120A  158A  203A  120A  158A  	fcall	_fetch_logs
  3760     0B40                     l4762:
  3761                           
  3762                           ;car_black_box_def.c: 276:         clcd_print(get_log, (0xC0 + 0));
  3763     0B40  30AE               	movlw	(low (_get_log| 0))& (0+255)
  3764     0B41  00F6               	movwf	clcd_print@str
  3765     0B42  3000               	movlw	0
  3766     0B43  00F7               	movwf	clcd_print@str+1
  3767     0B44  30C0               	movlw	192
  3768     0B45  00F8               	movwf	clcd_print@addr
  3769     0B46  160A  118A  2255  120A  158A  	fcall	_clcd_print
  3770                           
  3771                           ;car_black_box_def.c: 277:     }
  3772     0B4B  2B76               	goto	l387
  3773     0B4C                     l4764:
  3774     0B4C  032B               	decf	_clear_flag^(0+128),w
  3775     0B4D  1903               	btfsc	3,2
  3776     0B4E  2B50               	goto	u5201
  3777     0B4F  2B51               	goto	u5200
  3778     0B50                     u5201:
  3779     0B50  2B57               	goto	l4768
  3780     0B51                     u5200:
  3781     0B51                     l4766:
  3782     0B51  0825               	movf	_events_logged^(0+128),w
  3783     0B52  0426               	iorwf	(_events_logged+1)^(0+128),w
  3784     0B53  1D03               	btfss	3,2
  3785     0B54  2B56               	goto	u5211
  3786     0B55  2B57               	goto	u5210
  3787     0B56                     u5211:
  3788     0B56  2B76               	goto	l387
  3789     0B57                     u5210:
  3790     0B57                     l4768:
  3791                           
  3792                           ;car_black_box_def.c: 279:         clear_screen();
  3793     0B57  160A  158A  2741  120A  158A  	fcall	_clear_screen
  3794     0B5C                     l4770:
  3795                           
  3796                           ;car_black_box_def.c: 280:         clcd_print("No logs found", (0x80 + 1));
  3797     0B5C  309D               	movlw	low (STR_27| (0+32768))
  3798     0B5D  00F6               	movwf	clcd_print@str
  3799     0B5E  3090               	movlw	high (STR_27| (0+32768))
  3800     0B5F  00F7               	movwf	clcd_print@str+1
  3801     0B60  3081               	movlw	129
  3802     0B61  00F8               	movwf	clcd_print@addr
  3803     0B62  160A  118A  2255  120A  158A  	fcall	_clcd_print
  3804     0B67                     l4772:
  3805                           
  3806                           ;car_black_box_def.c: 281:         _delay((unsigned long)((3000)*(20000000/4000.0)));
  3807     0B67  304D               	movlw	77
  3808     0B68  1283               	bcf	3,5	;RP0=0, select bank0
  3809     0B69  1303               	bcf	3,6	;RP1=0, select bank0
  3810     0B6A  00A2               	movwf	??_view_log+2
  3811     0B6B  3019               	movlw	25
  3812     0B6C  00A1               	movwf	??_view_log+1
  3813     0B6D  304F               	movlw	79
  3814     0B6E  00A0               	movwf	??_view_log
  3815     0B6F                     u7087:
  3816     0B6F  0BA0               	decfsz	??_view_log,f
  3817     0B70  2B6F               	goto	u7087
  3818     0B71  0BA1               	decfsz	??_view_log+1,f
  3819     0B72  2B6F               	goto	u7087
  3820     0B73  0BA2               	decfsz	??_view_log+2,f
  3821     0B74  2B6F               	goto	u7087
  3822     0B75                     l4774:
  3823                           
  3824                           ;car_black_box_def.c: 282:         return 0x23;
  3825     0B75  3023               	movlw	35
  3826     0B76                     l387:
  3827     0B76  0008               	return
  3828     0B77                     __end_of_view_log:
  3829                           
  3830                           	psect	text2
  3831     118D                     __ptext2:	
  3832 ;; *************** function _strcpy *****************
  3833 ;; Defined at:
  3834 ;;		line 3 in file "C:\Program Files\Microchip\xc8\v3.00\pic\sources\c99\common\strcpy.c"
  3835 ;; Parameters:    Size  Location     Type
  3836 ;;  dest            1    2[COMMON] PTR unsigned char 
  3837 ;;		 -> main@event(3), 
  3838 ;;  src             2    3[COMMON] PTR const unsigned char 
  3839 ;;		 -> STR_9(3), STR_7(3), STR_6(3), STR_5(3), 
  3840 ;;		 -> STR_4(3), STR_3(3), STR_2(3), STR_1(3), 
  3841 ;; Auto vars:     Size  Location     Type
  3842 ;;  d               1    7[COMMON] PTR unsigned char 
  3843 ;;		 -> main@event(3), 
  3844 ;; Return value:  Size  Location     Type
  3845 ;;                  1    2[COMMON] PTR unsigned char 
  3846 ;; Registers used:
  3847 ;;		wreg, fsr0l, fsr0h, status,2, status,0, btemp+1, pclath
  3848 ;; Tracked objects:
  3849 ;;		On entry : 0/0
  3850 ;;		On exit  : 0/0
  3851 ;;		Unchanged: 0/0
  3852 ;; Data sizes:     COMMON   BANK0   BANK1   BANK3   BANK2
  3853 ;;      Params:         3       0       0       0       0
  3854 ;;      Locals:         1       0       0       0       0
  3855 ;;      Temps:          2       0       0       0       0
  3856 ;;      Totals:         6       0       0       0       0
  3857 ;;Total ram usage:        6 bytes
  3858 ;; Hardware stack levels used: 2
  3859 ;; Hardware stack levels required when called: 1
  3860 ;; This function calls:
  3861 ;;		Nothing
  3862 ;; This function is called by:
  3863 ;;		_main
  3864 ;; This function uses a non-reentrant model
  3865 ;;
  3866                           
  3867     118D                     _strcpy:	
  3868                           ;psect for function _strcpy
  3869                           
  3870     118D                     l4556:	
  3871                           ;incstack = 0
  3872                           ; Regs used in _strcpy: [wreg-fsr0h+status,2+status,0+btemp+1+pclath]
  3873                           
  3874     118D  0872               	movf	strcpy@dest,w
  3875     118E  00F7               	movwf	strcpy@d
  3876     118F                     l4558:
  3877     118F  0874               	movf	strcpy@src+1,w
  3878     1190  00F6               	movwf	??_strcpy+1
  3879     1191  0873               	movf	strcpy@src,w
  3880     1192  00F5               	movwf	??_strcpy
  3881     1193  0AF3               	incf	strcpy@src,f
  3882     1194  1903               	skipnz
  3883     1195  0AF4               	incf	strcpy@src+1,f
  3884     1196  0876               	movf	??_strcpy+1,w
  3885     1197  1283               	bcf	3,5	;RP0=0, select bank0
  3886     1198  1303               	bcf	3,6	;RP1=0, select bank0
  3887     1199  00FF               	movwf	btemp+1
  3888     119A  0875               	movf	??_strcpy,w
  3889     119B  0084               	movwf	4
  3890     119C  120A  118A  27EE  160A  118A  	fcall	stringtab
  3891     11A1  00FF               	movwf	btemp+1
  3892     11A2  0877               	movf	strcpy@d,w
  3893     11A3  0AF7               	incf	strcpy@d,f
  3894     11A4  0084               	movwf	4
  3895     11A5  087F               	movf	btemp+1,w
  3896     11A6  1783               	bsf	3,7	;select IRP bank2
  3897     11A7  0080               	movwf	0
  3898     11A8  0800               	movf	0,w
  3899     11A9  1D03               	btfss	3,2
  3900     11AA  29AC               	goto	u4941
  3901     11AB  29AD               	goto	u4940
  3902     11AC                     u4941:
  3903     11AC  298F               	goto	l4558
  3904     11AD                     u4940:
  3905     11AD                     l1109:
  3906     11AD  0008               	return
  3907     11AE                     __end_of_strcpy:
  3908                           
  3909                           	psect	text3
  3910     040D                     __ptext3:	
  3911 ;; *************** function _set_time *****************
  3912 ;; Defined at:
  3913 ;;		line 347 in file "car_black_box_def.c"
  3914 ;; Parameters:    Size  Location     Type
  3915 ;;  key             1    wreg     unsigned char 
  3916 ;;  reset_flag      1   14[BANK0 ] unsigned char 
  3917 ;; Auto vars:     Size  Location     Type
  3918 ;;  key             1   24[BANK0 ] unsigned char 
  3919 ;;  hour            1   27[BANK0 ] unsigned char 
  3920 ;;  hour_low        1   23[BANK0 ] unsigned char 
  3921 ;;  hour_high       1   22[BANK0 ] unsigned char 
  3922 ;;  min             1   26[BANK0 ] unsigned char 
  3923 ;;  min_low         1   21[BANK0 ] unsigned char 
  3924 ;;  min_high        1   20[BANK0 ] unsigned char 
  3925 ;;  sec             1   25[BANK0 ] unsigned char 
  3926 ;;  sec_low         1   19[BANK0 ] unsigned char 
  3927 ;;  sec_high        1   18[BANK0 ] unsigned char 
  3928 ;;  i               2   28[BANK0 ] int 
  3929 ;; Return value:  Size  Location     Type
  3930 ;;                  1    wreg      unsigned char 
  3931 ;; Registers used:
  3932 ;;		wreg, fsr0l, fsr0h, status,2, status,0, btemp+1, pclath, cstack
  3933 ;; Tracked objects:
  3934 ;;		On entry : 0/0
  3935 ;;		On exit  : 0/0
  3936 ;;		Unchanged: 0/0
  3937 ;; Data sizes:     COMMON   BANK0   BANK1   BANK3   BANK2
  3938 ;;      Params:         0       1       0       0       0
  3939 ;;      Locals:         0      12       0       0       0
  3940 ;;      Temps:          0       3       0       0       0
  3941 ;;      Totals:         0      16       0       0       0
  3942 ;;Total ram usage:       16 bytes
  3943 ;; Hardware stack levels used: 1
  3944 ;; Hardware stack levels required when called: 6
  3945 ;; This function calls:
  3946 ;;		___awdiv
  3947 ;;		___awmod
  3948 ;;		___bmul
  3949 ;;		_clcd_print
  3950 ;;		_clcd_putch
  3951 ;;		_clear_screen
  3952 ;;		_get_time
  3953 ;;		_save_time
  3954 ;;		_strncpy
  3955 ;; This function is called by:
  3956 ;;		_main
  3957 ;; This function uses a non-reentrant model
  3958 ;;
  3959                           
  3960     040D                     _set_time:	
  3961                           ;psect for function _set_time
  3962                           
  3963                           
  3964                           ;incstack = 0
  3965                           ; Regs used in _set_time: [wreg-fsr0h+status,2+status,0+btemp+1+pclath+cstack]
  3966                           ;set_time@key stored from wreg
  3967     040D  1283               	bcf	3,5	;RP0=0, select bank0
  3968     040E  1303               	bcf	3,6	;RP1=0, select bank0
  3969     040F  00B8               	movwf	set_time@key
  3970     0410                     l5592:
  3971                           
  3972                           ;car_black_box_def.c: 347: unsigned char set_time(unsigned char key, unsigned char reset
      +                          _flag);car_black_box_def.c: 348: {;car_black_box_def.c: 349:     static unsigned char fi
      +                          eld = 2;;car_black_box_def.c: 350:     static unsigned char blink = 0;;car_black_box_def
      +                          .c: 351:     static char settime[9];;car_black_box_def.c: 353:     if(reset_flag == 0x57
      +                          )
  3973     0410  3057               	movlw	87
  3974     0411  062E               	xorwf	set_time@reset_flag,w
  3975     0412  1D03               	btfss	3,2
  3976     0413  2C15               	goto	u6481
  3977     0414  2C16               	goto	u6480
  3978     0415                     u6481:
  3979     0415  2C3A               	goto	l5610
  3980     0416                     u6480:
  3981     0416                     l5594:
  3982                           
  3983                           ;car_black_box_def.c: 354:     {;car_black_box_def.c: 355:         get_time();
  3984     0416  160A  118A  2454  120A  118A  	fcall	_get_time
  3985     041B                     l5596:
  3986                           
  3987                           ;car_black_box_def.c: 356:         strncpy(settime, time, 6);
  3988     041B  30BF               	movlw	(low (set_time@settime| 0))& (0+255)
  3989     041C  00F2               	movwf	strncpy@d
  3990     041D  3000               	movlw	0
  3991     041E  00F3               	movwf	strncpy@d+1
  3992     041F  30C8               	movlw	(low (_time| 0))& (0+255)
  3993     0420  00F4               	movwf	strncpy@s
  3994     0421  3000               	movlw	0
  3995     0422  00F5               	movwf	strncpy@s+1
  3996     0423  3006               	movlw	6
  3997     0424  00F6               	movwf	strncpy@n
  3998     0425  3000               	movlw	0
  3999     0426  00F7               	movwf	strncpy@n+1
  4000     0427  160A  118A  24A1  120A  118A  	fcall	_strncpy
  4001     042C                     l5598:
  4002                           
  4003                           ;car_black_box_def.c: 357:         settime[2] = ':';
  4004     042C  303A               	movlw	58
  4005     042D  1683               	bsf	3,5	;RP0=1, select bank1
  4006     042E  1303               	bcf	3,6	;RP1=0, select bank1
  4007     042F  00C1               	movwf	(set_time@settime^(0+128)+2)
  4008     0430                     l5600:
  4009                           
  4010                           ;car_black_box_def.c: 358:         settime[5] = ':';
  4011     0430  303A               	movlw	58
  4012     0431  00C4               	movwf	(set_time@settime^(0+128)+5)
  4013     0432                     l5602:
  4014                           
  4015                           ;car_black_box_def.c: 359:         settime[8] = '\0';
  4016     0432  01C7               	clrf	(set_time@settime^(0+128)+8)
  4017     0433                     l5604:
  4018                           
  4019                           ;car_black_box_def.c: 360:         field = 2;
  4020     0433  3002               	movlw	2
  4021     0434  00EC               	movwf	set_time@field^(0+128)
  4022     0435                     l5606:
  4023                           
  4024                           ;car_black_box_def.c: 361:         blink = 0;
  4025     0435  01A8               	clrf	set_time@blink^(0+128)
  4026     0436                     l5608:
  4027                           
  4028                           ;car_black_box_def.c: 362:         key = 0x3F;
  4029     0436  303F               	movlw	63
  4030     0437  1283               	bcf	3,5	;RP0=0, select bank0
  4031     0438  1303               	bcf	3,6	;RP1=0, select bank0
  4032     0439  00B8               	movwf	set_time@key
  4033     043A                     l5610:
  4034                           
  4035                           ;car_black_box_def.c: 365:     blink = !blink;
  4036     043A  1683               	bsf	3,5	;RP0=1, select bank1
  4037     043B  1303               	bcf	3,6	;RP1=0, select bank1
  4038     043C  0828               	movf	set_time@blink^(0+128),w
  4039     043D  1903               	btfsc	3,2
  4040     043E  2C40               	goto	u6491
  4041     043F  2C42               	goto	u6490
  4042     0440                     u6491:
  4043     0440  3001               	movlw	1
  4044     0441  2C43               	goto	u6500
  4045     0442                     u6490:
  4046     0442  3000               	movlw	0
  4047     0443                     u6500:
  4048     0443  00A8               	movwf	set_time@blink^(0+128)
  4049     0444                     l5612:
  4050                           
  4051                           ;car_black_box_def.c: 367:     clear_screen();
  4052     0444  160A  158A  2741  120A  118A  	fcall	_clear_screen
  4053     0449                     l5614:
  4054                           
  4055                           ;car_black_box_def.c: 368:     clcd_print("SET TIME:", (0x80 + 0));
  4056     0449  3006               	movlw	low (STR_34| (0+32768))
  4057     044A  00F6               	movwf	clcd_print@str
  4058     044B  3091               	movlw	high (STR_34| (0+32768))
  4059     044C  00F7               	movwf	clcd_print@str+1
  4060     044D  3080               	movlw	128
  4061     044E  00F8               	movwf	clcd_print@addr
  4062     044F  160A  118A  2255  120A  118A  	fcall	_clcd_print
  4063     0454                     l5616:
  4064                           
  4065                           ;car_black_box_def.c: 369:     for(int i=0; i<8; i++)
  4066     0454  1283               	bcf	3,5	;RP0=0, select bank0
  4067     0455  1303               	bcf	3,6	;RP1=0, select bank0
  4068     0456  01BC               	clrf	set_time@i
  4069     0457  01BD               	clrf	set_time@i+1
  4070     0458                     l5622:
  4071                           
  4072                           ;car_black_box_def.c: 370:     {;car_black_box_def.c: 371:         if(field == 2 && i>=6
      +                           && i<=7 && blink)
  4073     0458  3002               	movlw	2
  4074     0459  1683               	bsf	3,5	;RP0=1, select bank1
  4075     045A  1303               	bcf	3,6	;RP1=0, select bank1
  4076     045B  066C               	xorwf	set_time@field^(0+128),w
  4077     045C  1D03               	btfss	3,2
  4078     045D  2C5F               	goto	u6511
  4079     045E  2C60               	goto	u6510
  4080     045F                     u6511:
  4081     045F  2C91               	goto	l5632
  4082     0460                     u6510:
  4083     0460                     l5624:
  4084     0460  1283               	bcf	3,5	;RP0=0, select bank0
  4085     0461  1303               	bcf	3,6	;RP1=0, select bank0
  4086     0462  083D               	movf	set_time@i+1,w
  4087     0463  3A80               	xorlw	128
  4088     0464  00FF               	movwf	btemp+1
  4089     0465  3080               	movlw	128
  4090     0466  027F               	subwf	btemp+1,w
  4091     0467  1D03               	skipz
  4092     0468  2C6B               	goto	u6525
  4093     0469  3006               	movlw	6
  4094     046A  023C               	subwf	set_time@i,w
  4095     046B                     u6525:
  4096     046B  1C03               	skipc
  4097     046C  2C6E               	goto	u6521
  4098     046D  2C6F               	goto	u6520
  4099     046E                     u6521:
  4100     046E  2C91               	goto	l5632
  4101     046F                     u6520:
  4102     046F                     l5626:
  4103     046F  1283               	bcf	3,5	;RP0=0, select bank0
  4104     0470  1303               	bcf	3,6	;RP1=0, select bank0
  4105     0471  083D               	movf	set_time@i+1,w
  4106     0472  3A80               	xorlw	128
  4107     0473  00FF               	movwf	btemp+1
  4108     0474  3080               	movlw	128
  4109     0475  027F               	subwf	btemp+1,w
  4110     0476  1D03               	skipz
  4111     0477  2C7A               	goto	u6535
  4112     0478  3008               	movlw	8
  4113     0479  023C               	subwf	set_time@i,w
  4114     047A                     u6535:
  4115     047A  1803               	skipnc
  4116     047B  2C7D               	goto	u6531
  4117     047C  2C7E               	goto	u6530
  4118     047D                     u6531:
  4119     047D  2C91               	goto	l5632
  4120     047E                     u6530:
  4121     047E                     l5628:
  4122     047E  1683               	bsf	3,5	;RP0=1, select bank1
  4123     047F  1303               	bcf	3,6	;RP1=0, select bank1
  4124     0480  0828               	movf	set_time@blink^(0+128),w
  4125     0481  1903               	btfsc	3,2
  4126     0482  2C84               	goto	u6541
  4127     0483  2C85               	goto	u6540
  4128     0484                     u6541:
  4129     0484  2C91               	goto	l5632
  4130     0485                     u6540:
  4131     0485                     l5630:
  4132                           
  4133                           ;car_black_box_def.c: 372:         {;car_black_box_def.c: 373:             clcd_putch(' 
      +                          ',(0xC0 + i));
  4134     0485  1283               	bcf	3,5	;RP0=0, select bank0
  4135     0486  1303               	bcf	3,6	;RP1=0, select bank0
  4136     0487  083C               	movf	set_time@i,w
  4137     0488  3EC0               	addlw	192
  4138     0489  00A0               	movwf	clcd_putch@addr
  4139     048A  3020               	movlw	32
  4140     048B  160A  158A  27AF  120A  118A  	fcall	_clcd_putch
  4141                           
  4142                           ;car_black_box_def.c: 374:         }
  4143     0490  2D05               	goto	l5654
  4144     0491                     l5632:
  4145     0491  1683               	bsf	3,5	;RP0=1, select bank1
  4146     0492  1303               	bcf	3,6	;RP1=0, select bank1
  4147     0493  036C               	decf	set_time@field^(0+128),w
  4148     0494  1D03               	btfss	3,2
  4149     0495  2C97               	goto	u6551
  4150     0496  2C98               	goto	u6550
  4151     0497                     u6551:
  4152     0497  2CC9               	goto	l5642
  4153     0498                     u6550:
  4154     0498                     l5634:
  4155     0498  1283               	bcf	3,5	;RP0=0, select bank0
  4156     0499  1303               	bcf	3,6	;RP1=0, select bank0
  4157     049A  083D               	movf	set_time@i+1,w
  4158     049B  3A80               	xorlw	128
  4159     049C  00FF               	movwf	btemp+1
  4160     049D  3080               	movlw	128
  4161     049E  027F               	subwf	btemp+1,w
  4162     049F  1D03               	skipz
  4163     04A0  2CA3               	goto	u6565
  4164     04A1  3003               	movlw	3
  4165     04A2  023C               	subwf	set_time@i,w
  4166     04A3                     u6565:
  4167     04A3  1C03               	skipc
  4168     04A4  2CA6               	goto	u6561
  4169     04A5  2CA7               	goto	u6560
  4170     04A6                     u6561:
  4171     04A6  2CC9               	goto	l5642
  4172     04A7                     u6560:
  4173     04A7                     l5636:
  4174     04A7  1283               	bcf	3,5	;RP0=0, select bank0
  4175     04A8  1303               	bcf	3,6	;RP1=0, select bank0
  4176     04A9  083D               	movf	set_time@i+1,w
  4177     04AA  3A80               	xorlw	128
  4178     04AB  00FF               	movwf	btemp+1
  4179     04AC  3080               	movlw	128
  4180     04AD  027F               	subwf	btemp+1,w
  4181     04AE  1D03               	skipz
  4182     04AF  2CB2               	goto	u6575
  4183     04B0  3005               	movlw	5
  4184     04B1  023C               	subwf	set_time@i,w
  4185     04B2                     u6575:
  4186     04B2  1803               	skipnc
  4187     04B3  2CB5               	goto	u6571
  4188     04B4  2CB6               	goto	u6570
  4189     04B5                     u6571:
  4190     04B5  2CC9               	goto	l5642
  4191     04B6                     u6570:
  4192     04B6                     l5638:
  4193     04B6  1683               	bsf	3,5	;RP0=1, select bank1
  4194     04B7  1303               	bcf	3,6	;RP1=0, select bank1
  4195     04B8  0828               	movf	set_time@blink^(0+128),w
  4196     04B9  1903               	btfsc	3,2
  4197     04BA  2CBC               	goto	u6581
  4198     04BB  2CBD               	goto	u6580
  4199     04BC                     u6581:
  4200     04BC  2CC9               	goto	l5642
  4201     04BD                     u6580:
  4202     04BD                     l5640:
  4203                           
  4204                           ;car_black_box_def.c: 376:         {;car_black_box_def.c: 377:             clcd_putch(' 
      +                          ', (0xC0 + i));
  4205     04BD  1283               	bcf	3,5	;RP0=0, select bank0
  4206     04BE  1303               	bcf	3,6	;RP1=0, select bank0
  4207     04BF  083C               	movf	set_time@i,w
  4208     04C0  3EC0               	addlw	192
  4209     04C1  00A0               	movwf	clcd_putch@addr
  4210     04C2  3020               	movlw	32
  4211     04C3  160A  158A  27AF  120A  118A  	fcall	_clcd_putch
  4212                           
  4213                           ;car_black_box_def.c: 378:         }
  4214     04C8  2D05               	goto	l5654
  4215     04C9                     l5642:
  4216     04C9  1683               	bsf	3,5	;RP0=1, select bank1
  4217     04CA  1303               	bcf	3,6	;RP1=0, select bank1
  4218     04CB  086C               	movf	set_time@field^(0+128),w
  4219     04CC  1D03               	btfss	3,2
  4220     04CD  2CCF               	goto	u6591
  4221     04CE  2CD0               	goto	u6590
  4222     04CF                     u6591:
  4223     04CF  2CF6               	goto	l5652
  4224     04D0                     u6590:
  4225     04D0                     l5644:
  4226     04D0  1283               	bcf	3,5	;RP0=0, select bank0
  4227     04D1  1303               	bcf	3,6	;RP1=0, select bank0
  4228     04D2  1BBD               	btfsc	set_time@i+1,7
  4229     04D3  2CD5               	goto	u6601
  4230     04D4  2CD6               	goto	u6600
  4231     04D5                     u6601:
  4232     04D5  2CF6               	goto	l5652
  4233     04D6                     u6600:
  4234     04D6                     l5646:
  4235     04D6  083D               	movf	set_time@i+1,w
  4236     04D7  3A80               	xorlw	128
  4237     04D8  00FF               	movwf	btemp+1
  4238     04D9  3080               	movlw	128
  4239     04DA  027F               	subwf	btemp+1,w
  4240     04DB  1D03               	skipz
  4241     04DC  2CDF               	goto	u6615
  4242     04DD  3002               	movlw	2
  4243     04DE  023C               	subwf	set_time@i,w
  4244     04DF                     u6615:
  4245     04DF  1803               	skipnc
  4246     04E0  2CE2               	goto	u6611
  4247     04E1  2CE3               	goto	u6610
  4248     04E2                     u6611:
  4249     04E2  2CF6               	goto	l5652
  4250     04E3                     u6610:
  4251     04E3                     l5648:
  4252     04E3  1683               	bsf	3,5	;RP0=1, select bank1
  4253     04E4  1303               	bcf	3,6	;RP1=0, select bank1
  4254     04E5  0828               	movf	set_time@blink^(0+128),w
  4255     04E6  1903               	btfsc	3,2
  4256     04E7  2CE9               	goto	u6621
  4257     04E8  2CEA               	goto	u6620
  4258     04E9                     u6621:
  4259     04E9  2CF6               	goto	l5652
  4260     04EA                     u6620:
  4261     04EA                     l5650:
  4262                           
  4263                           ;car_black_box_def.c: 380:         {;car_black_box_def.c: 381:             clcd_putch(' 
      +                          ', (0xC0 + i));
  4264     04EA  1283               	bcf	3,5	;RP0=0, select bank0
  4265     04EB  1303               	bcf	3,6	;RP1=0, select bank0
  4266     04EC  083C               	movf	set_time@i,w
  4267     04ED  3EC0               	addlw	192
  4268     04EE  00A0               	movwf	clcd_putch@addr
  4269     04EF  3020               	movlw	32
  4270     04F0  160A  158A  27AF  120A  118A  	fcall	_clcd_putch
  4271                           
  4272                           ;car_black_box_def.c: 382:         }
  4273     04F5  2D05               	goto	l5654
  4274     04F6                     l5652:
  4275                           
  4276                           ;car_black_box_def.c: 384:         {;car_black_box_def.c: 385:             clcd_putch(se
      +                          ttime[i], (0xC0 + i));
  4277     04F6  1283               	bcf	3,5	;RP0=0, select bank0
  4278     04F7  1303               	bcf	3,6	;RP1=0, select bank0
  4279     04F8  083C               	movf	set_time@i,w
  4280     04F9  3EC0               	addlw	192
  4281     04FA  00A0               	movwf	clcd_putch@addr
  4282     04FB  083C               	movf	set_time@i,w
  4283     04FC  3EBF               	addlw	(low (set_time@settime| 0))& (0+255)
  4284     04FD  0084               	movwf	4
  4285     04FE  1383               	bcf	3,7	;select IRP bank1
  4286     04FF  0800               	movf	0,w
  4287     0500  160A  158A  27AF  120A  118A  	fcall	_clcd_putch
  4288     0505                     l5654:
  4289                           
  4290                           ;car_black_box_def.c: 387:     }
  4291     0505  3001               	movlw	1
  4292     0506  1283               	bcf	3,5	;RP0=0, select bank0
  4293     0507  1303               	bcf	3,6	;RP1=0, select bank0
  4294     0508  07BC               	addwf	set_time@i,f
  4295     0509  1803               	skipnc
  4296     050A  0ABD               	incf	set_time@i+1,f
  4297     050B  3000               	movlw	0
  4298     050C  07BD               	addwf	set_time@i+1,f
  4299     050D                     l5656:
  4300     050D  083D               	movf	set_time@i+1,w
  4301     050E  3A80               	xorlw	128
  4302     050F  00FF               	movwf	btemp+1
  4303     0510  3080               	movlw	128
  4304     0511  027F               	subwf	btemp+1,w
  4305     0512  1D03               	skipz
  4306     0513  2D16               	goto	u6635
  4307     0514  3008               	movlw	8
  4308     0515  023C               	subwf	set_time@i,w
  4309     0516                     u6635:
  4310     0516  1C03               	skipc
  4311     0517  2D19               	goto	u6631
  4312     0518  2D1A               	goto	u6630
  4313     0519                     u6631:
  4314     0519  2C58               	goto	l5622
  4315     051A                     u6630:
  4316     051A                     l5658:
  4317                           
  4318                           ;car_black_box_def.c: 388:     if(key == 0x37)
  4319     051A  3037               	movlw	55
  4320     051B  1283               	bcf	3,5	;RP0=0, select bank0
  4321     051C  1303               	bcf	3,6	;RP1=0, select bank0
  4322     051D  0638               	xorwf	set_time@key,w
  4323     051E  1D03               	btfss	3,2
  4324     051F  2D21               	goto	u6641
  4325     0520  2D22               	goto	u6640
  4326     0521                     u6641:
  4327     0521  2E19               	goto	l5714
  4328     0522                     u6640:
  4329     0522                     l5660:
  4330                           
  4331                           ;car_black_box_def.c: 389:     {;car_black_box_def.c: 390:         if(field == 2)
  4332     0522  3002               	movlw	2
  4333     0523  1683               	bsf	3,5	;RP0=1, select bank1
  4334     0524  1303               	bcf	3,6	;RP1=0, select bank1
  4335     0525  066C               	xorwf	set_time@field^(0+128),w
  4336     0526  1D03               	btfss	3,2
  4337     0527  2D29               	goto	u6651
  4338     0528  2D2A               	goto	u6650
  4339     0529                     u6651:
  4340     0529  2D76               	goto	l5678
  4341     052A                     u6650:
  4342     052A                     l5662:
  4343                           
  4344                           ;car_black_box_def.c: 391:         {;car_black_box_def.c: 392:             unsigned char
      +                           sec_high = (settime[6]-'0')*10;
  4345     052A  300A               	movlw	10
  4346     052B  00F2               	movwf	___bmul@multiplicand
  4347     052C  0845               	movf	(set_time@settime^(0+128)+6),w
  4348     052D  3ED0               	addlw	208
  4349     052E  160A  158A  2776  120A  118A  	fcall	___bmul
  4350     0533  1283               	bcf	3,5	;RP0=0, select bank0
  4351     0534  1303               	bcf	3,6	;RP1=0, select bank0
  4352     0535  00B2               	movwf	set_time@sec_high
  4353     0536                     l5664:
  4354                           
  4355                           ;car_black_box_def.c: 393:             unsigned char sec_low = settime[7]-'0';
  4356     0536  1683               	bsf	3,5	;RP0=1, select bank1
  4357     0537  1303               	bcf	3,6	;RP1=0, select bank1
  4358     0538  0846               	movf	(set_time@settime^(0+128)+7),w
  4359     0539  3ED0               	addlw	208
  4360     053A  1283               	bcf	3,5	;RP0=0, select bank0
  4361     053B  1303               	bcf	3,6	;RP1=0, select bank0
  4362     053C  00B3               	movwf	set_time@sec_low
  4363     053D                     l5666:
  4364                           
  4365                           ;car_black_box_def.c: 394:             unsigned char sec = sec_high + sec_low;
  4366     053D  0833               	movf	set_time@sec_low,w
  4367     053E  0732               	addwf	set_time@sec_high,w
  4368     053F  00B9               	movwf	set_time@sec
  4369     0540                     l5668:
  4370                           
  4371                           ;car_black_box_def.c: 395:             sec++;
  4372     0540  3001               	movlw	1
  4373     0541  07B9               	addwf	set_time@sec,f
  4374     0542                     l5670:
  4375                           
  4376                           ;car_black_box_def.c: 396:             if(sec>59)
  4377     0542  303C               	movlw	60
  4378     0543  0239               	subwf	set_time@sec,w
  4379     0544  1C03               	skipc
  4380     0545  2D47               	goto	u6661
  4381     0546  2D48               	goto	u6660
  4382     0547                     u6661:
  4383     0547  2D49               	goto	l5674
  4384     0548                     u6660:
  4385     0548                     l5672:
  4386                           
  4387                           ;car_black_box_def.c: 397:             {;car_black_box_def.c: 398:                 sec=0
      +                          ;
  4388     0548  01B9               	clrf	set_time@sec
  4389     0549                     l5674:
  4390                           
  4391                           ;car_black_box_def.c: 400:             settime[6] = (sec/10)+'0';
  4392     0549  300A               	movlw	10
  4393     054A  00F2               	movwf	___awdiv@divisor
  4394     054B  3000               	movlw	0
  4395     054C  00F3               	movwf	___awdiv@divisor+1
  4396     054D  0839               	movf	set_time@sec,w
  4397     054E  00AF               	movwf	??_set_time
  4398     054F  01B0               	clrf	??_set_time+1
  4399     0550  082F               	movf	??_set_time,w
  4400     0551  00F4               	movwf	___awdiv@dividend
  4401     0552  0830               	movf	??_set_time+1,w
  4402     0553  00F5               	movwf	___awdiv@dividend+1
  4403     0554  160A  118A  265E  120A  118A  	fcall	___awdiv
  4404     0559  0872               	movf	?___awdiv,w
  4405     055A  3E30               	addlw	48
  4406     055B  1683               	bsf	3,5	;RP0=1, select bank1
  4407     055C  1303               	bcf	3,6	;RP1=0, select bank1
  4408     055D  00C5               	movwf	(set_time@settime^(0+128)+6)
  4409     055E                     l5676:
  4410                           
  4411                           ;car_black_box_def.c: 401:             settime[7] = (sec%10)+'0';
  4412     055E  300A               	movlw	10
  4413     055F  00F2               	movwf	___awmod@divisor
  4414     0560  3000               	movlw	0
  4415     0561  00F3               	movwf	___awmod@divisor+1
  4416     0562  1283               	bcf	3,5	;RP0=0, select bank0
  4417     0563  1303               	bcf	3,6	;RP1=0, select bank0
  4418     0564  0839               	movf	set_time@sec,w
  4419     0565  00AF               	movwf	??_set_time
  4420     0566  01B0               	clrf	??_set_time+1
  4421     0567  082F               	movf	??_set_time,w
  4422     0568  00F4               	movwf	___awmod@dividend
  4423     0569  0830               	movf	??_set_time+1,w
  4424     056A  00F5               	movwf	___awmod@dividend+1
  4425     056B  160A  118A  2544  120A  118A  	fcall	___awmod
  4426     0570  0872               	movf	?___awmod,w
  4427     0571  3E30               	addlw	48
  4428     0572  1683               	bsf	3,5	;RP0=1, select bank1
  4429     0573  1303               	bcf	3,6	;RP1=0, select bank1
  4430     0574  00C6               	movwf	(set_time@settime^(0+128)+7)
  4431                           
  4432                           ;car_black_box_def.c: 402:         }
  4433     0575  2E59               	goto	l5736
  4434     0576                     l5678:
  4435     0576  036C               	decf	set_time@field^(0+128),w
  4436     0577  1D03               	btfss	3,2
  4437     0578  2D7A               	goto	u6671
  4438     0579  2D7B               	goto	u6670
  4439     057A                     u6671:
  4440     057A  2DC7               	goto	l5696
  4441     057B                     u6670:
  4442     057B                     l5680:
  4443                           
  4444                           ;car_black_box_def.c: 404:         {;car_black_box_def.c: 405:             unsigned char
      +                           min_high = (settime[3]-'0')*10;
  4445     057B  300A               	movlw	10
  4446     057C  00F2               	movwf	___bmul@multiplicand
  4447     057D  0842               	movf	(set_time@settime^(0+128)+3),w
  4448     057E  3ED0               	addlw	208
  4449     057F  160A  158A  2776  120A  118A  	fcall	___bmul
  4450     0584  1283               	bcf	3,5	;RP0=0, select bank0
  4451     0585  1303               	bcf	3,6	;RP1=0, select bank0
  4452     0586  00B4               	movwf	set_time@min_high
  4453     0587                     l5682:
  4454                           
  4455                           ;car_black_box_def.c: 406:             unsigned char min_low = settime[4]-'0';
  4456     0587  1683               	bsf	3,5	;RP0=1, select bank1
  4457     0588  1303               	bcf	3,6	;RP1=0, select bank1
  4458     0589  0843               	movf	(set_time@settime^(0+128)+4),w
  4459     058A  3ED0               	addlw	208
  4460     058B  1283               	bcf	3,5	;RP0=0, select bank0
  4461     058C  1303               	bcf	3,6	;RP1=0, select bank0
  4462     058D  00B5               	movwf	set_time@min_low
  4463     058E                     l5684:
  4464                           
  4465                           ;car_black_box_def.c: 407:             unsigned char min = min_high+min_low;
  4466     058E  0835               	movf	set_time@min_low,w
  4467     058F  0734               	addwf	set_time@min_high,w
  4468     0590  00BA               	movwf	set_time@min
  4469     0591                     l5686:
  4470                           
  4471                           ;car_black_box_def.c: 408:             min++;
  4472     0591  3001               	movlw	1
  4473     0592  07BA               	addwf	set_time@min,f
  4474     0593                     l5688:
  4475                           
  4476                           ;car_black_box_def.c: 409:             if(min>59)
  4477     0593  303C               	movlw	60
  4478     0594  023A               	subwf	set_time@min,w
  4479     0595  1C03               	skipc
  4480     0596  2D98               	goto	u6681
  4481     0597  2D99               	goto	u6680
  4482     0598                     u6681:
  4483     0598  2D9A               	goto	l5692
  4484     0599                     u6680:
  4485     0599                     l5690:
  4486                           
  4487                           ;car_black_box_def.c: 410:             {;car_black_box_def.c: 411:                 min =
      +                           0;
  4488     0599  01BA               	clrf	set_time@min
  4489     059A                     l5692:
  4490                           
  4491                           ;car_black_box_def.c: 413:             settime[3] = (min/10)+'0';
  4492     059A  300A               	movlw	10
  4493     059B  00F2               	movwf	___awdiv@divisor
  4494     059C  3000               	movlw	0
  4495     059D  00F3               	movwf	___awdiv@divisor+1
  4496     059E  083A               	movf	set_time@min,w
  4497     059F  00AF               	movwf	??_set_time
  4498     05A0  01B0               	clrf	??_set_time+1
  4499     05A1  082F               	movf	??_set_time,w
  4500     05A2  00F4               	movwf	___awdiv@dividend
  4501     05A3  0830               	movf	??_set_time+1,w
  4502     05A4  00F5               	movwf	___awdiv@dividend+1
  4503     05A5  160A  118A  265E  120A  118A  	fcall	___awdiv
  4504     05AA  0872               	movf	?___awdiv,w
  4505     05AB  3E30               	addlw	48
  4506     05AC  1683               	bsf	3,5	;RP0=1, select bank1
  4507     05AD  1303               	bcf	3,6	;RP1=0, select bank1
  4508     05AE  00C2               	movwf	(set_time@settime^(0+128)+3)
  4509     05AF                     l5694:
  4510                           
  4511                           ;car_black_box_def.c: 414:             settime[4] = (min%10)+'0';
  4512     05AF  300A               	movlw	10
  4513     05B0  00F2               	movwf	___awmod@divisor
  4514     05B1  3000               	movlw	0
  4515     05B2  00F3               	movwf	___awmod@divisor+1
  4516     05B3  1283               	bcf	3,5	;RP0=0, select bank0
  4517     05B4  1303               	bcf	3,6	;RP1=0, select bank0
  4518     05B5  083A               	movf	set_time@min,w
  4519     05B6  00AF               	movwf	??_set_time
  4520     05B7  01B0               	clrf	??_set_time+1
  4521     05B8  082F               	movf	??_set_time,w
  4522     05B9  00F4               	movwf	___awmod@dividend
  4523     05BA  0830               	movf	??_set_time+1,w
  4524     05BB  00F5               	movwf	___awmod@dividend+1
  4525     05BC  160A  118A  2544  120A  118A  	fcall	___awmod
  4526     05C1  0872               	movf	?___awmod,w
  4527     05C2  3E30               	addlw	48
  4528     05C3  1683               	bsf	3,5	;RP0=1, select bank1
  4529     05C4  1303               	bcf	3,6	;RP1=0, select bank1
  4530     05C5  00C3               	movwf	(set_time@settime^(0+128)+4)
  4531                           
  4532                           ;car_black_box_def.c: 415:         }
  4533     05C6  2E59               	goto	l5736
  4534     05C7                     l5696:
  4535     05C7  086C               	movf	set_time@field^(0+128),w
  4536     05C8  1D03               	btfss	3,2
  4537     05C9  2DCB               	goto	u6691
  4538     05CA  2DCC               	goto	u6690
  4539     05CB                     u6691:
  4540     05CB  2E18               	goto	l428
  4541     05CC                     u6690:
  4542     05CC                     l5698:
  4543                           
  4544                           ;car_black_box_def.c: 417:         {;car_black_box_def.c: 418:            unsigned char 
      +                          hour_high = (settime[0] - '0') * 10;
  4545     05CC  300A               	movlw	10
  4546     05CD  00F2               	movwf	___bmul@multiplicand
  4547     05CE  083F               	movf	set_time@settime^(0+128),w
  4548     05CF  3ED0               	addlw	208
  4549     05D0  160A  158A  2776  120A  118A  	fcall	___bmul
  4550     05D5  1283               	bcf	3,5	;RP0=0, select bank0
  4551     05D6  1303               	bcf	3,6	;RP1=0, select bank0
  4552     05D7  00B6               	movwf	set_time@hour_high
  4553     05D8                     l5700:
  4554                           
  4555                           ;car_black_box_def.c: 419:             unsigned char hour_low = settime[1] - '0';
  4556     05D8  1683               	bsf	3,5	;RP0=1, select bank1
  4557     05D9  1303               	bcf	3,6	;RP1=0, select bank1
  4558     05DA  0840               	movf	(set_time@settime^(0+128)+1),w
  4559     05DB  3ED0               	addlw	208
  4560     05DC  1283               	bcf	3,5	;RP0=0, select bank0
  4561     05DD  1303               	bcf	3,6	;RP1=0, select bank0
  4562     05DE  00B7               	movwf	set_time@hour_low
  4563     05DF                     l5702:
  4564                           
  4565                           ;car_black_box_def.c: 420:             unsigned char hour = hour_high + hour_low;
  4566     05DF  0837               	movf	set_time@hour_low,w
  4567     05E0  0736               	addwf	set_time@hour_high,w
  4568     05E1  00BB               	movwf	set_time@hour
  4569     05E2                     l5704:
  4570                           
  4571                           ;car_black_box_def.c: 421:             hour++;
  4572     05E2  3001               	movlw	1
  4573     05E3  07BB               	addwf	set_time@hour,f
  4574     05E4                     l5706:
  4575                           
  4576                           ;car_black_box_def.c: 422:             if (hour > 23)
  4577     05E4  3018               	movlw	24
  4578     05E5  023B               	subwf	set_time@hour,w
  4579     05E6  1C03               	skipc
  4580     05E7  2DE9               	goto	u6701
  4581     05E8  2DEA               	goto	u6700
  4582     05E9                     u6701:
  4583     05E9  2DEB               	goto	l5710
  4584     05EA                     u6700:
  4585     05EA                     l5708:
  4586                           
  4587                           ;car_black_box_def.c: 423:             {;car_black_box_def.c: 424:                 hour 
      +                          = 0;
  4588     05EA  01BB               	clrf	set_time@hour
  4589     05EB                     l5710:
  4590                           
  4591                           ;car_black_box_def.c: 426:             settime[0] = (hour/10)+'0';
  4592     05EB  300A               	movlw	10
  4593     05EC  00F2               	movwf	___awdiv@divisor
  4594     05ED  3000               	movlw	0
  4595     05EE  00F3               	movwf	___awdiv@divisor+1
  4596     05EF  083B               	movf	set_time@hour,w
  4597     05F0  00AF               	movwf	??_set_time
  4598     05F1  01B0               	clrf	??_set_time+1
  4599     05F2  082F               	movf	??_set_time,w
  4600     05F3  00F4               	movwf	___awdiv@dividend
  4601     05F4  0830               	movf	??_set_time+1,w
  4602     05F5  00F5               	movwf	___awdiv@dividend+1
  4603     05F6  160A  118A  265E  120A  118A  	fcall	___awdiv
  4604     05FB  0872               	movf	?___awdiv,w
  4605     05FC  3E30               	addlw	48
  4606     05FD  1683               	bsf	3,5	;RP0=1, select bank1
  4607     05FE  1303               	bcf	3,6	;RP1=0, select bank1
  4608     05FF  00BF               	movwf	set_time@settime^(0+128)
  4609     0600                     l5712:
  4610                           
  4611                           ;car_black_box_def.c: 427:             settime[1] = (hour%10)+'0';
  4612     0600  300A               	movlw	10
  4613     0601  00F2               	movwf	___awmod@divisor
  4614     0602  3000               	movlw	0
  4615     0603  00F3               	movwf	___awmod@divisor+1
  4616     0604  1283               	bcf	3,5	;RP0=0, select bank0
  4617     0605  1303               	bcf	3,6	;RP1=0, select bank0
  4618     0606  083B               	movf	set_time@hour,w
  4619     0607  00AF               	movwf	??_set_time
  4620     0608  01B0               	clrf	??_set_time+1
  4621     0609  082F               	movf	??_set_time,w
  4622     060A  00F4               	movwf	___awmod@dividend
  4623     060B  0830               	movf	??_set_time+1,w
  4624     060C  00F5               	movwf	___awmod@dividend+1
  4625     060D  160A  118A  2544  120A  118A  	fcall	___awmod
  4626     0612  0872               	movf	?___awmod,w
  4627     0613  3E30               	addlw	48
  4628     0614  1683               	bsf	3,5	;RP0=1, select bank1
  4629     0615  1303               	bcf	3,6	;RP1=0, select bank1
  4630     0616  00C0               	movwf	(set_time@settime^(0+128)+1)
  4631     0617  2E59               	goto	l5736
  4632     0618                     l428:
  4633                           
  4634                           ;car_black_box_def.c: 429:     }
  4635     0618  2E59               	goto	l5736
  4636     0619                     l5714:
  4637     0619  302F               	movlw	47
  4638     061A  0638               	xorwf	set_time@key,w
  4639     061B  1D03               	btfss	3,2
  4640     061C  2E1E               	goto	u6711
  4641     061D  2E1F               	goto	u6710
  4642     061E                     u6711:
  4643     061E  2E2C               	goto	l5722
  4644     061F                     u6710:
  4645     061F                     l5716:
  4646                           
  4647                           ;car_black_box_def.c: 431:     {;car_black_box_def.c: 432:         field--;
  4648     061F  3001               	movlw	1
  4649     0620  1683               	bsf	3,5	;RP0=1, select bank1
  4650     0621  1303               	bcf	3,6	;RP1=0, select bank1
  4651     0622  02EC               	subwf	set_time@field^(0+128),f
  4652     0623                     l5718:
  4653                           
  4654                           ;car_black_box_def.c: 433:         if(field>2)
  4655     0623  3003               	movlw	3
  4656     0624  026C               	subwf	set_time@field^(0+128),w
  4657     0625  1C03               	skipc
  4658     0626  2E28               	goto	u6721
  4659     0627  2E29               	goto	u6720
  4660     0628                     u6721:
  4661     0628  2E59               	goto	l5736
  4662     0629                     u6720:
  4663     0629                     l5720:
  4664                           
  4665                           ;car_black_box_def.c: 434:         {;car_black_box_def.c: 435:             field = 2;
  4666     0629  3002               	movlw	2
  4667     062A  00EC               	movwf	set_time@field^(0+128)
  4668     062B  2E59               	goto	l5736
  4669     062C                     l5722:
  4670     062C  303B               	movlw	59
  4671     062D  0638               	xorwf	set_time@key,w
  4672     062E  1D03               	btfss	3,2
  4673     062F  2E31               	goto	u6731
  4674     0630  2E32               	goto	u6730
  4675     0631                     u6731:
  4676     0631  2E59               	goto	l5736
  4677     0632                     u6730:
  4678     0632                     l5724:
  4679                           
  4680                           ;car_black_box_def.c: 439:         save_time(settime);
  4681     0632  30BF               	movlw	(low (set_time@settime| 0))& (0+255)
  4682     0633  00A0               	movwf	save_time@ntime
  4683     0634  120A  158A  2377  120A  118A  	fcall	_save_time
  4684     0639                     l5726:
  4685                           
  4686                           ;car_black_box_def.c: 440:         clear_screen();
  4687     0639  160A  158A  2741  120A  118A  	fcall	_clear_screen
  4688     063E                     l5728:
  4689                           
  4690                           ;car_black_box_def.c: 441:         clcd_print("Time Saved!", (0x80 + 2));
  4691     063E  30FA               	movlw	low (STR_35| (0+32768))
  4692     063F  00F6               	movwf	clcd_print@str
  4693     0640  3090               	movlw	high (STR_35| (0+32768))
  4694     0641  00F7               	movwf	clcd_print@str+1
  4695     0642  3082               	movlw	130
  4696     0643  00F8               	movwf	clcd_print@addr
  4697     0644  160A  118A  2255  120A  118A  	fcall	_clcd_print
  4698     0649                     l5730:
  4699                           
  4700                           ;car_black_box_def.c: 442:         _delay((unsigned long)((2000)*(20000000/4000.0)));
  4701     0649  3033               	movlw	51
  4702     064A  1283               	bcf	3,5	;RP0=0, select bank0
  4703     064B  1303               	bcf	3,6	;RP1=0, select bank0
  4704     064C  00B1               	movwf	??_set_time+2
  4705     064D  30BB               	movlw	187
  4706     064E  00B0               	movwf	??_set_time+1
  4707     064F  30DF               	movlw	223
  4708     0650  00AF               	movwf	??_set_time
  4709     0651                     u7097:
  4710     0651  0BAF               	decfsz	??_set_time,f
  4711     0652  2E51               	goto	u7097
  4712     0653  0BB0               	decfsz	??_set_time+1,f
  4713     0654  2E51               	goto	u7097
  4714     0655  0BB1               	decfsz	??_set_time+2,f
  4715     0656  2E51               	goto	u7097
  4716     0657                     l5732:
  4717                           
  4718                           ;car_black_box_def.c: 443:         return 0x60;
  4719     0657  3060               	movlw	96
  4720     0658  2E65               	goto	l439
  4721     0659                     l5736:
  4722                           
  4723                           ;car_black_box_def.c: 445:     _delay((unsigned long)((10)*(20000000/4000.0)));
  4724     0659  3041               	movlw	65
  4725     065A  1283               	bcf	3,5	;RP0=0, select bank0
  4726     065B  1303               	bcf	3,6	;RP1=0, select bank0
  4727     065C  00B0               	movwf	??_set_time+1
  4728     065D  30ED               	movlw	237
  4729     065E  00AF               	movwf	??_set_time
  4730     065F                     u7107:
  4731     065F  0BAF               	decfsz	??_set_time,f
  4732     0660  2E5F               	goto	u7107
  4733     0661  0BB0               	decfsz	??_set_time+1,f
  4734     0662  2E5F               	goto	u7107
  4735     0663  2E64               	nop2
  4736                           
  4737                           ;car_black_box_def.c: 446:     return 0;
  4738     0664  3000               	movlw	0
  4739     0665                     l439:
  4740     0665  0008               	return
  4741     0666                     __end_of_set_time:
  4742                           
  4743                           	psect	text4
  4744     0B77                     __ptext4:	
  4745 ;; *************** function _save_time *****************
  4746 ;; Defined at:
  4747 ;;		line 449 in file "car_black_box_def.c"
  4748 ;; Parameters:    Size  Location     Type
  4749 ;;  ntime           1    0[BANK0 ] PTR unsigned char 
  4750 ;;		 -> set_time@settime(9), 
  4751 ;; Auto vars:     Size  Location     Type
  4752 ;;  second          1   13[BANK0 ] unsigned char 
  4753 ;;  minute          1   12[BANK0 ] unsigned char 
  4754 ;;  hour            1   11[BANK0 ] unsigned char 
  4755 ;;  bcds            1   10[BANK0 ] unsigned char 
  4756 ;;  bcdm            1    9[BANK0 ] unsigned char 
  4757 ;;  bcdh            1    8[BANK0 ] unsigned char 
  4758 ;; Return value:  Size  Location     Type
  4759 ;;                  1    wreg      void 
  4760 ;; Registers used:
  4761 ;;		wreg, fsr0l, fsr0h, status,2, status,0, pclath, cstack
  4762 ;; Tracked objects:
  4763 ;;		On entry : 0/0
  4764 ;;		On exit  : 0/0
  4765 ;;		Unchanged: 0/0
  4766 ;; Data sizes:     COMMON   BANK0   BANK1   BANK3   BANK2
  4767 ;;      Params:         0       1       0       0       0
  4768 ;;      Locals:         0       6       0       0       0
  4769 ;;      Temps:          0       7       0       0       0
  4770 ;;      Totals:         0      14       0       0       0
  4771 ;;Total ram usage:       14 bytes
  4772 ;; Hardware stack levels used: 1
  4773 ;; Hardware stack levels required when called: 4
  4774 ;; This function calls:
  4775 ;;		___awdiv
  4776 ;;		___awmod
  4777 ;;		___bmul
  4778 ;;		_write_ds1307
  4779 ;; This function is called by:
  4780 ;;		_set_time
  4781 ;; This function uses a non-reentrant model
  4782 ;;
  4783                           
  4784     0B77                     _save_time:	
  4785                           ;psect for function _save_time
  4786                           
  4787     0B77                     l4482:	
  4788                           ;incstack = 0
  4789                           ; Regs used in _save_time: [wreg-fsr0h+status,2+status,0+pclath+cstack]
  4790                           
  4791                           
  4792                           ;car_black_box_def.c: 449: void save_time(char *ntime);car_black_box_def.c: 450: {;car_b
      +                          lack_box_def.c: 451:     unsigned char hour, minute, second;;car_black_box_def.c: 452:  
      +                             hour = ((ntime[0]-'0')*10)+(ntime[1]-'0');
  4793     0B77  1283               	bcf	3,5	;RP0=0, select bank0
  4794     0B78  1303               	bcf	3,6	;RP1=0, select bank0
  4795     0B79  0A20               	incf	save_time@ntime,w
  4796     0B7A  0084               	movwf	4
  4797     0B7B  1383               	bcf	3,7	;select IRP bank0
  4798     0B7C  0800               	movf	0,w
  4799     0B7D  00A1               	movwf	??_save_time
  4800     0B7E  300A               	movlw	10
  4801     0B7F  00F2               	movwf	___bmul@multiplicand
  4802     0B80  0820               	movf	save_time@ntime,w
  4803     0B81  0084               	movwf	4
  4804     0B82  0800               	movf	0,w
  4805     0B83  160A  158A  2776  120A  158A  	fcall	___bmul
  4806     0B88  1283               	bcf	3,5	;RP0=0, select bank0
  4807     0B89  1303               	bcf	3,6	;RP1=0, select bank0
  4808     0B8A  0721               	addwf	??_save_time,w
  4809     0B8B  3EF0               	addlw	240
  4810     0B8C  00AB               	movwf	save_time@hour
  4811                           
  4812                           ;car_black_box_def.c: 453:     minute = ((ntime[3]-'0')*10)+(ntime[4]-'0');
  4813     0B8D  0820               	movf	save_time@ntime,w
  4814     0B8E  3E04               	addlw	4
  4815     0B8F  0084               	movwf	4
  4816     0B90  1383               	bcf	3,7	;select IRP bank0
  4817     0B91  0800               	movf	0,w
  4818     0B92  00A1               	movwf	??_save_time
  4819     0B93  300A               	movlw	10
  4820     0B94  00F2               	movwf	___bmul@multiplicand
  4821     0B95  0820               	movf	save_time@ntime,w
  4822     0B96  3E03               	addlw	3
  4823     0B97  0084               	movwf	4
  4824     0B98  0800               	movf	0,w
  4825     0B99  160A  158A  2776  120A  158A  	fcall	___bmul
  4826     0B9E  1283               	bcf	3,5	;RP0=0, select bank0
  4827     0B9F  1303               	bcf	3,6	;RP1=0, select bank0
  4828     0BA0  0721               	addwf	??_save_time,w
  4829     0BA1  3EF0               	addlw	240
  4830     0BA2  00AC               	movwf	save_time@minute
  4831                           
  4832                           ;car_black_box_def.c: 454:     second = ((ntime[6]-'0')*10)+(ntime[7]-'0');
  4833     0BA3  0820               	movf	save_time@ntime,w
  4834     0BA4  3E07               	addlw	7
  4835     0BA5  0084               	movwf	4
  4836     0BA6  1383               	bcf	3,7	;select IRP bank0
  4837     0BA7  0800               	movf	0,w
  4838     0BA8  00A1               	movwf	??_save_time
  4839     0BA9  300A               	movlw	10
  4840     0BAA  00F2               	movwf	___bmul@multiplicand
  4841     0BAB  0820               	movf	save_time@ntime,w
  4842     0BAC  3E06               	addlw	6
  4843     0BAD  0084               	movwf	4
  4844     0BAE  0800               	movf	0,w
  4845     0BAF  160A  158A  2776  120A  158A  	fcall	___bmul
  4846     0BB4  1283               	bcf	3,5	;RP0=0, select bank0
  4847     0BB5  1303               	bcf	3,6	;RP1=0, select bank0
  4848     0BB6  0721               	addwf	??_save_time,w
  4849     0BB7  3EF0               	addlw	240
  4850     0BB8  00AD               	movwf	save_time@second
  4851     0BB9                     l4484:
  4852                           
  4853                           ;car_black_box_def.c: 456:     unsigned char bcdh = ((hour/10)<<4)|(hour%10);
  4854     0BB9  300A               	movlw	10
  4855     0BBA  00F2               	movwf	___awmod@divisor
  4856     0BBB  3000               	movlw	0
  4857     0BBC  00F3               	movwf	___awmod@divisor+1
  4858     0BBD  082B               	movf	save_time@hour,w
  4859     0BBE  00A1               	movwf	??_save_time
  4860     0BBF  01A2               	clrf	??_save_time+1
  4861     0BC0  0821               	movf	??_save_time,w
  4862     0BC1  00F4               	movwf	___awmod@dividend
  4863     0BC2  0822               	movf	??_save_time+1,w
  4864     0BC3  00F5               	movwf	___awmod@dividend+1
  4865     0BC4  160A  118A  2544  120A  158A  	fcall	___awmod
  4866     0BC9  0872               	movf	?___awmod,w
  4867     0BCA  1283               	bcf	3,5	;RP0=0, select bank0
  4868     0BCB  1303               	bcf	3,6	;RP1=0, select bank0
  4869     0BCC  00A3               	movwf	??_save_time+2
  4870     0BCD  0873               	movf	?___awmod+1,w
  4871     0BCE  00A4               	movwf	??_save_time+3
  4872     0BCF  300A               	movlw	10
  4873     0BD0  00F2               	movwf	___awdiv@divisor
  4874     0BD1  3000               	movlw	0
  4875     0BD2  00F3               	movwf	___awdiv@divisor+1
  4876     0BD3  082B               	movf	save_time@hour,w
  4877     0BD4  00A5               	movwf	??_save_time+4
  4878     0BD5  01A6               	clrf	??_save_time+5
  4879     0BD6  0825               	movf	??_save_time+4,w
  4880     0BD7  00F4               	movwf	___awdiv@dividend
  4881     0BD8  0826               	movf	??_save_time+5,w
  4882     0BD9  00F5               	movwf	___awdiv@dividend+1
  4883     0BDA  160A  118A  265E  120A  158A  	fcall	___awdiv
  4884     0BDF  0872               	movf	?___awdiv,w
  4885     0BE0  1283               	bcf	3,5	;RP0=0, select bank0
  4886     0BE1  1303               	bcf	3,6	;RP1=0, select bank0
  4887     0BE2  00A7               	movwf	??_save_time+6
  4888     0BE3  3003               	movlw	3
  4889     0BE4                     u4865:
  4890     0BE4  1003               	clrc
  4891     0BE5  0DA7               	rlf	??_save_time+6,f
  4892     0BE6  3EFF               	addlw	-1
  4893     0BE7  1D03               	skipz
  4894     0BE8  2BE4               	goto	u4865
  4895     0BE9  1003               	clrc
  4896     0BEA  0D27               	rlf	??_save_time+6,w
  4897     0BEB  0423               	iorwf	??_save_time+2,w
  4898     0BEC  00A8               	movwf	save_time@bcdh
  4899     0BED                     l4486:
  4900                           
  4901                           ;car_black_box_def.c: 457:     unsigned char bcdm = ((minute/10)<<4)|(minute%10);
  4902     0BED  300A               	movlw	10
  4903     0BEE  00F2               	movwf	___awmod@divisor
  4904     0BEF  3000               	movlw	0
  4905     0BF0  00F3               	movwf	___awmod@divisor+1
  4906     0BF1  082C               	movf	save_time@minute,w
  4907     0BF2  00A1               	movwf	??_save_time
  4908     0BF3  01A2               	clrf	??_save_time+1
  4909     0BF4  0821               	movf	??_save_time,w
  4910     0BF5  00F4               	movwf	___awmod@dividend
  4911     0BF6  0822               	movf	??_save_time+1,w
  4912     0BF7  00F5               	movwf	___awmod@dividend+1
  4913     0BF8  160A  118A  2544  120A  158A  	fcall	___awmod
  4914     0BFD  0872               	movf	?___awmod,w
  4915     0BFE  1283               	bcf	3,5	;RP0=0, select bank0
  4916     0BFF  1303               	bcf	3,6	;RP1=0, select bank0
  4917     0C00  00A3               	movwf	??_save_time+2
  4918     0C01  0873               	movf	?___awmod+1,w
  4919     0C02  00A4               	movwf	??_save_time+3
  4920     0C03  300A               	movlw	10
  4921     0C04  00F2               	movwf	___awdiv@divisor
  4922     0C05  3000               	movlw	0
  4923     0C06  00F3               	movwf	___awdiv@divisor+1
  4924     0C07  082C               	movf	save_time@minute,w
  4925     0C08  00A5               	movwf	??_save_time+4
  4926     0C09  01A6               	clrf	??_save_time+5
  4927     0C0A  0825               	movf	??_save_time+4,w
  4928     0C0B  00F4               	movwf	___awdiv@dividend
  4929     0C0C  0826               	movf	??_save_time+5,w
  4930     0C0D  00F5               	movwf	___awdiv@dividend+1
  4931     0C0E  160A  118A  265E  120A  158A  	fcall	___awdiv
  4932     0C13  0872               	movf	?___awdiv,w
  4933     0C14  1283               	bcf	3,5	;RP0=0, select bank0
  4934     0C15  1303               	bcf	3,6	;RP1=0, select bank0
  4935     0C16  00A7               	movwf	??_save_time+6
  4936     0C17  3003               	movlw	3
  4937     0C18                     u4875:
  4938     0C18  1003               	clrc
  4939     0C19  0DA7               	rlf	??_save_time+6,f
  4940     0C1A  3EFF               	addlw	-1
  4941     0C1B  1D03               	skipz
  4942     0C1C  2C18               	goto	u4875
  4943     0C1D  1003               	clrc
  4944     0C1E  0D27               	rlf	??_save_time+6,w
  4945     0C1F  0423               	iorwf	??_save_time+2,w
  4946     0C20  00A9               	movwf	save_time@bcdm
  4947     0C21                     l4488:
  4948                           
  4949                           ;car_black_box_def.c: 458:     unsigned char bcds = ((second/10)<<4)|(second%10);
  4950     0C21  300A               	movlw	10
  4951     0C22  00F2               	movwf	___awmod@divisor
  4952     0C23  3000               	movlw	0
  4953     0C24  00F3               	movwf	___awmod@divisor+1
  4954     0C25  082D               	movf	save_time@second,w
  4955     0C26  00A1               	movwf	??_save_time
  4956     0C27  01A2               	clrf	??_save_time+1
  4957     0C28  0821               	movf	??_save_time,w
  4958     0C29  00F4               	movwf	___awmod@dividend
  4959     0C2A  0822               	movf	??_save_time+1,w
  4960     0C2B  00F5               	movwf	___awmod@dividend+1
  4961     0C2C  160A  118A  2544  120A  158A  	fcall	___awmod
  4962     0C31  0872               	movf	?___awmod,w
  4963     0C32  1283               	bcf	3,5	;RP0=0, select bank0
  4964     0C33  1303               	bcf	3,6	;RP1=0, select bank0
  4965     0C34  00A3               	movwf	??_save_time+2
  4966     0C35  0873               	movf	?___awmod+1,w
  4967     0C36  00A4               	movwf	??_save_time+3
  4968     0C37  300A               	movlw	10
  4969     0C38  00F2               	movwf	___awdiv@divisor
  4970     0C39  3000               	movlw	0
  4971     0C3A  00F3               	movwf	___awdiv@divisor+1
  4972     0C3B  082D               	movf	save_time@second,w
  4973     0C3C  00A5               	movwf	??_save_time+4
  4974     0C3D  01A6               	clrf	??_save_time+5
  4975     0C3E  0825               	movf	??_save_time+4,w
  4976     0C3F  00F4               	movwf	___awdiv@dividend
  4977     0C40  0826               	movf	??_save_time+5,w
  4978     0C41  00F5               	movwf	___awdiv@dividend+1
  4979     0C42  160A  118A  265E  120A  158A  	fcall	___awdiv
  4980     0C47  0872               	movf	?___awdiv,w
  4981     0C48  1283               	bcf	3,5	;RP0=0, select bank0
  4982     0C49  1303               	bcf	3,6	;RP1=0, select bank0
  4983     0C4A  00A7               	movwf	??_save_time+6
  4984     0C4B  3003               	movlw	3
  4985     0C4C                     u4885:
  4986     0C4C  1003               	clrc
  4987     0C4D  0DA7               	rlf	??_save_time+6,f
  4988     0C4E  3EFF               	addlw	-1
  4989     0C4F  1D03               	skipz
  4990     0C50  2C4C               	goto	u4885
  4991     0C51  1003               	clrc
  4992     0C52  0D27               	rlf	??_save_time+6,w
  4993     0C53  0423               	iorwf	??_save_time+2,w
  4994     0C54  00AA               	movwf	save_time@bcds
  4995     0C55                     l4490:
  4996                           
  4997                           ;car_black_box_def.c: 460:     write_ds1307(0x02, bcdh);
  4998     0C55  0828               	movf	save_time@bcdh,w
  4999     0C56  00F3               	movwf	write_ds1307@data
  5000     0C57  3002               	movlw	2
  5001     0C58  160A  158A  27E2  120A  158A  	fcall	_write_ds1307
  5002     0C5D                     l4492:
  5003                           
  5004                           ;car_black_box_def.c: 461:     write_ds1307(0x01, bcdm);
  5005     0C5D  1283               	bcf	3,5	;RP0=0, select bank0
  5006     0C5E  1303               	bcf	3,6	;RP1=0, select bank0
  5007     0C5F  0829               	movf	save_time@bcdm,w
  5008     0C60  00F3               	movwf	write_ds1307@data
  5009     0C61  3001               	movlw	1
  5010     0C62  160A  158A  27E2  120A  158A  	fcall	_write_ds1307
  5011     0C67                     l4494:
  5012                           
  5013                           ;car_black_box_def.c: 462:     write_ds1307(0x00, bcds);
  5014     0C67  1283               	bcf	3,5	;RP0=0, select bank0
  5015     0C68  1303               	bcf	3,6	;RP1=0, select bank0
  5016     0C69  082A               	movf	save_time@bcds,w
  5017     0C6A  00F3               	movwf	write_ds1307@data
  5018     0C6B  3000               	movlw	0
  5019     0C6C  160A  158A  27E2  120A  158A  	fcall	_write_ds1307
  5020     0C71                     l442:
  5021     0C71  0008               	return
  5022     0C72                     __end_of_save_time:
  5023                           
  5024                           	psect	text5
  5025     1284                     __ptext5:	
  5026 ;; *************** function _read_digital_keypad *****************
  5027 ;; Defined at:
  5028 ;;		line 10 in file "digital_keypad.c"
  5029 ;; Parameters:    Size  Location     Type
  5030 ;;  mode            1    wreg     unsigned char 
  5031 ;; Auto vars:     Size  Location     Type
  5032 ;;  mode            1    3[COMMON] unsigned char 
  5033 ;; Return value:  Size  Location     Type
  5034 ;;                  1    wreg      unsigned char 
  5035 ;; Registers used:
  5036 ;;		wreg, status,2, status,0
  5037 ;; Tracked objects:
  5038 ;;		On entry : 0/0
  5039 ;;		On exit  : 0/0
  5040 ;;		Unchanged: 0/0
  5041 ;; Data sizes:     COMMON   BANK0   BANK1   BANK3   BANK2
  5042 ;;      Params:         0       0       0       0       0
  5043 ;;      Locals:         1       0       0       0       0
  5044 ;;      Temps:          1       0       0       0       0
  5045 ;;      Totals:         2       0       0       0       0
  5046 ;;Total ram usage:        2 bytes
  5047 ;; Hardware stack levels used: 1
  5048 ;; Hardware stack levels required when called: 1
  5049 ;; This function calls:
  5050 ;;		Nothing
  5051 ;; This function is called by:
  5052 ;;		_main
  5053 ;; This function uses a non-reentrant model
  5054 ;;
  5055                           
  5056     1284                     _read_digital_keypad:	
  5057                           ;psect for function _read_digital_keypad
  5058                           
  5059                           
  5060                           ;incstack = 0
  5061                           ; Regs used in _read_digital_keypad: [wreg+status,2+status,0]
  5062                           ;read_digital_keypad@mode stored from wreg
  5063     1284  00F3               	movwf	read_digital_keypad@mode
  5064     1285                     l4528:
  5065                           
  5066                           ;digital_keypad.c: 10: unsigned char read_digital_keypad(unsigned char mode);digital_key
      +                          pad.c: 11: {;digital_keypad.c: 12:     static unsigned char once = 1;;digital_keypad.c: 
      +                          14:     if (mode == 0)
  5067     1285  0873               	movf	read_digital_keypad@mode,w
  5068     1286  1D03               	btfss	3,2
  5069     1287  2A89               	goto	u4901
  5070     1288  2A8A               	goto	u4900
  5071     1289                     u4901:
  5072     1289  2A8F               	goto	l4536
  5073     128A                     u4900:
  5074     128A                     l4530:
  5075                           
  5076                           ;digital_keypad.c: 15:     {;digital_keypad.c: 16:         return PORTB & 0x3F;
  5077     128A  1283               	bcf	3,5	;RP0=0, select bank0
  5078     128B  1303               	bcf	3,6	;RP1=0, select bank0
  5079     128C  0806               	movf	6,w	;volatile
  5080     128D  393F               	andlw	63
  5081     128E  2AB2               	goto	l268
  5082     128F                     l4536:
  5083                           
  5084                           ;digital_keypad.c: 19:     {;digital_keypad.c: 20:         if (((PORTB & 0x3F) != 0x3F) 
      +                          && once)
  5085     128F  303F               	movlw	63
  5086     1290  1283               	bcf	3,5	;RP0=0, select bank0
  5087     1291  1303               	bcf	3,6	;RP1=0, select bank0
  5088     1292  0506               	andwf	6,w	;volatile
  5089     1293  00F2               	movwf	??_read_digital_keypad
  5090     1294  303F               	movlw	63
  5091     1295  0672               	xorwf	??_read_digital_keypad,w
  5092     1296  1903               	btfsc	3,2
  5093     1297  2A99               	goto	u4911
  5094     1298  2A9A               	goto	u4910
  5095     1299                     u4911:
  5096     1299  2AA3               	goto	l4548
  5097     129A                     u4910:
  5098     129A                     l4538:
  5099     129A  1683               	bsf	3,5	;RP0=1, select bank1
  5100     129B  1303               	bcf	3,6	;RP1=0, select bank1
  5101     129C  086D               	movf	read_digital_keypad@once^(0+128),w
  5102     129D  1903               	btfsc	3,2
  5103     129E  2AA0               	goto	u4921
  5104     129F  2AA1               	goto	u4920
  5105     12A0                     u4921:
  5106     12A0  2AA3               	goto	l4548
  5107     12A1                     u4920:
  5108     12A1                     l4540:
  5109                           
  5110                           ;digital_keypad.c: 21:         {;digital_keypad.c: 22:             once = 0;
  5111     12A1  01ED               	clrf	read_digital_keypad@once^(0+128)
  5112     12A2  2A8A               	goto	l4530
  5113     12A3                     l4548:
  5114     12A3  303F               	movlw	63
  5115     12A4  1283               	bcf	3,5	;RP0=0, select bank0
  5116     12A5  0506               	andwf	6,w	;volatile
  5117     12A6  00F2               	movwf	??_read_digital_keypad
  5118     12A7  303F               	movlw	63
  5119     12A8  0672               	xorwf	??_read_digital_keypad,w
  5120     12A9  1D03               	btfss	3,2
  5121     12AA  2AAC               	goto	u4931
  5122     12AB  2AAD               	goto	u4930
  5123     12AC                     u4931:
  5124     12AC  2AB1               	goto	l4552
  5125     12AD                     u4930:
  5126     12AD                     l4550:
  5127                           
  5128                           ;digital_keypad.c: 27:         {;digital_keypad.c: 28:             once = 1;
  5129     12AD  3001               	movlw	1
  5130     12AE  1683               	bsf	3,5	;RP0=1, select bank1
  5131     12AF  1303               	bcf	3,6	;RP1=0, select bank1
  5132     12B0  00ED               	movwf	read_digital_keypad@once^(0+128)
  5133     12B1                     l4552:
  5134                           
  5135                           ;digital_keypad.c: 32:     return 0x3F;
  5136     12B1  303F               	movlw	63
  5137     12B2                     l268:
  5138     12B2  0008               	return
  5139     12B3                     __end_of_read_digital_keypad:
  5140                           
  5141                           	psect	text6
  5142     1F64                     __ptext6:	
  5143 ;; *************** function _read_adc *****************
  5144 ;; Defined at:
  5145 ;;		line 12 in file "adc.c"
  5146 ;; Parameters:    Size  Location     Type
  5147 ;;		None
  5148 ;; Auto vars:     Size  Location     Type
  5149 ;;  adc_reg_val     2    4[COMMON] unsigned short 
  5150 ;; Return value:  Size  Location     Type
  5151 ;;                  2    2[COMMON] unsigned short 
  5152 ;; Registers used:
  5153 ;;		wreg
  5154 ;; Tracked objects:
  5155 ;;		On entry : 0/0
  5156 ;;		On exit  : 0/0
  5157 ;;		Unchanged: 0/0
  5158 ;; Data sizes:     COMMON   BANK0   BANK1   BANK3   BANK2
  5159 ;;      Params:         2       0       0       0       0
  5160 ;;      Locals:         2       0       0       0       0
  5161 ;;      Temps:          0       0       0       0       0
  5162 ;;      Totals:         4       0       0       0       0
  5163 ;;Total ram usage:        4 bytes
  5164 ;; Hardware stack levels used: 1
  5165 ;; Hardware stack levels required when called: 1
  5166 ;; This function calls:
  5167 ;;		Nothing
  5168 ;; This function is called by:
  5169 ;;		_main
  5170 ;; This function uses a non-reentrant model
  5171 ;;
  5172                           
  5173     1F64                     _read_adc:	
  5174                           ;psect for function _read_adc
  5175                           
  5176     1F64                     l4522:	
  5177                           ;incstack = 0
  5178                           ; Regs used in _read_adc: [wreg]
  5179                           
  5180                           
  5181                           ;adc.c: 14:     unsigned short adc_reg_val;;adc.c: 17:     GO = 1;
  5182     1F64  1283               	bcf	3,5	;RP0=0, select bank0
  5183     1F65  1303               	bcf	3,6	;RP1=0, select bank0
  5184     1F66  151F               	bsf	31,2	;volatile
  5185     1F67                     l177:	
  5186                           ;adc.c: 20:     while (nDONE);
  5187                           
  5188     1F67  191F               	btfsc	31,2	;volatile
  5189     1F68  2F6A               	goto	u4891
  5190     1F69  2F6B               	goto	u4890
  5191     1F6A                     u4891:
  5192     1F6A  2F67               	goto	l177
  5193     1F6B                     u4890:
  5194     1F6B                     l4524:
  5195                           
  5196                           ;adc.c: 23:     adc_reg_val = (ADRESH << 8) | ADRESL;
  5197     1F6B  081E               	movf	30,w	;volatile
  5198     1F6C  00F5               	movwf	read_adc@adc_reg_val+1
  5199     1F6D  1683               	bsf	3,5	;RP0=1, select bank1
  5200     1F6E  1303               	bcf	3,6	;RP1=0, select bank1
  5201     1F6F  081E               	movf	30,w	;volatile
  5202     1F70  00F4               	movwf	read_adc@adc_reg_val
  5203                           
  5204                           ;adc.c: 25:     return adc_reg_val;
  5205     1F71  0875               	movf	read_adc@adc_reg_val+1,w
  5206     1F72  00F3               	movwf	?_read_adc+1
  5207     1F73  0874               	movf	read_adc@adc_reg_val,w
  5208     1F74  00F2               	movwf	?_read_adc
  5209     1F75                     l180:
  5210     1F75  0008               	return
  5211     1F76                     __end_of_read_adc:
  5212                           
  5213                           	psect	text7
  5214     093C                     __ptext7:	
  5215 ;; *************** function _menu_screen *****************
  5216 ;; Defined at:
  5217 ;;		line 205 in file "car_black_box_def.c"
  5218 ;; Parameters:    Size  Location     Type
  5219 ;;  key             1    wreg     unsigned char 
  5220 ;;  reset_flag      1    2[BANK0 ] unsigned char 
  5221 ;; Auto vars:     Size  Location     Type
  5222 ;;  key             1    5[BANK0 ] unsigned char 
  5223 ;; Return value:  Size  Location     Type
  5224 ;;                  1    wreg      unsigned char 
  5225 ;; Registers used:
  5226 ;;		wreg, fsr0l, fsr0h, status,2, status,0, btemp+1, pclath, cstack
  5227 ;; Tracked objects:
  5228 ;;		On entry : 0/0
  5229 ;;		On exit  : 0/0
  5230 ;;		Unchanged: 0/0
  5231 ;; Data sizes:     COMMON   BANK0   BANK1   BANK3   BANK2
  5232 ;;      Params:         0       1       0       0       0
  5233 ;;      Locals:         0       1       0       0       0
  5234 ;;      Temps:          0       2       0       0       0
  5235 ;;      Totals:         0       4       0       0       0
  5236 ;;Total ram usage:        4 bytes
  5237 ;; Hardware stack levels used: 1
  5238 ;; Hardware stack levels required when called: 3
  5239 ;; This function calls:
  5240 ;;		_clcd_print
  5241 ;;		_clcd_putch
  5242 ;;		_clear_screen
  5243 ;; This function is called by:
  5244 ;;		_main
  5245 ;; This function uses a non-reentrant model
  5246 ;;
  5247                           
  5248     093C                     _menu_screen:	
  5249                           ;psect for function _menu_screen
  5250                           
  5251                           
  5252                           ;incstack = 0
  5253                           ; Regs used in _menu_screen: [wreg-fsr0h+status,2+status,0+btemp+1+pclath+cstack]
  5254                           ;menu_screen@key stored from wreg
  5255     093C  1283               	bcf	3,5	;RP0=0, select bank0
  5256     093D  1303               	bcf	3,6	;RP1=0, select bank0
  5257     093E  00A5               	movwf	menu_screen@key
  5258     093F                     l4678:
  5259                           
  5260                           ;car_black_box_def.c: 205: unsigned char menu_screen(unsigned char key, unsigned char re
      +                          set_flag);car_black_box_def.c: 206: {;car_black_box_def.c: 207:     if(reset_flag == 0x5
      +                          5)
  5261     093F  3055               	movlw	85
  5262     0940  0622               	xorwf	menu_screen@reset_flag,w
  5263     0941  1D03               	btfss	3,2
  5264     0942  2944               	goto	u5061
  5265     0943  2945               	goto	u5060
  5266     0944                     u5061:
  5267     0944  294A               	goto	l4684
  5268     0945                     u5060:
  5269     0945                     l4680:
  5270                           
  5271                           ;car_black_box_def.c: 208:     {;car_black_box_def.c: 209:         menu_pos = 0;
  5272     0945  01FB               	clrf	_menu_pos
  5273     0946                     l4682:
  5274                           
  5275                           ;car_black_box_def.c: 210:         return_time = 10;
  5276     0946  300A               	movlw	10
  5277     0947  1683               	bsf	3,5	;RP0=1, select bank1
  5278     0948  1303               	bcf	3,6	;RP1=0, select bank1
  5279     0949  00AC               	movwf	_return_time^(0+128)
  5280     094A                     l4684:
  5281                           
  5282                           ;car_black_box_def.c: 212:     if(return_time == 0)
  5283     094A  1683               	bsf	3,5	;RP0=1, select bank1
  5284     094B  1303               	bcf	3,6	;RP1=0, select bank1
  5285     094C  082C               	movf	_return_time^(0+128),w
  5286     094D  1D03               	btfss	3,2
  5287     094E  2950               	goto	u5071
  5288     094F  2951               	goto	u5070
  5289     0950                     u5071:
  5290     0950  2953               	goto	l4690
  5291     0951                     u5070:
  5292     0951                     l4686:
  5293                           
  5294                           ;car_black_box_def.c: 213:     {;car_black_box_def.c: 215:         return 0x33;
  5295     0951  3033               	movlw	51
  5296     0952  29EE               	goto	l368
  5297     0953                     l4690:
  5298                           
  5299                           ;car_black_box_def.c: 217:     if(key == 0x37 && menu_pos > 0)
  5300     0953  3037               	movlw	55
  5301     0954  1283               	bcf	3,5	;RP0=0, select bank0
  5302     0955  1303               	bcf	3,6	;RP1=0, select bank0
  5303     0956  0625               	xorwf	menu_screen@key,w
  5304     0957  1D03               	btfss	3,2
  5305     0958  295A               	goto	u5081
  5306     0959  295B               	goto	u5080
  5307     095A                     u5081:
  5308     095A  296C               	goto	l4700
  5309     095B                     u5080:
  5310     095B                     l4692:
  5311     095B  087B               	movf	_menu_pos,w
  5312     095C  1903               	btfsc	3,2
  5313     095D  295F               	goto	u5091
  5314     095E  2960               	goto	u5090
  5315     095F                     u5091:
  5316     095F  296C               	goto	l4700
  5317     0960                     u5090:
  5318     0960                     l4694:
  5319                           
  5320                           ;car_black_box_def.c: 218:     {;car_black_box_def.c: 220:         clear_screen();
  5321     0960  160A  158A  2741  120A  158A  	fcall	_clear_screen
  5322     0965                     l4696:
  5323                           
  5324                           ;car_black_box_def.c: 221:         menu_pos--;
  5325     0965  3001               	movlw	1
  5326     0966  02FB               	subwf	_menu_pos,f
  5327     0967                     l4698:
  5328                           
  5329                           ;car_black_box_def.c: 222:         return_time = 10;
  5330     0967  300A               	movlw	10
  5331     0968  1683               	bsf	3,5	;RP0=1, select bank1
  5332     0969  1303               	bcf	3,6	;RP1=0, select bank1
  5333     096A  00AC               	movwf	_return_time^(0+128)
  5334                           
  5335                           ;car_black_box_def.c: 223:     }
  5336     096B  2980               	goto	l4710
  5337     096C                     l4700:
  5338     096C  302F               	movlw	47
  5339     096D  0625               	xorwf	menu_screen@key,w
  5340     096E  1D03               	btfss	3,2
  5341     096F  2971               	goto	u5101
  5342     0970  2972               	goto	u5100
  5343     0971                     u5101:
  5344     0971  2980               	goto	l4710
  5345     0972                     u5100:
  5346     0972                     l4702:
  5347     0972  3004               	movlw	4
  5348     0973  027B               	subwf	_menu_pos,w
  5349     0974  1803               	skipnc
  5350     0975  2977               	goto	u5111
  5351     0976  2978               	goto	u5110
  5352     0977                     u5111:
  5353     0977  2980               	goto	l4710
  5354     0978                     u5110:
  5355     0978                     l4704:
  5356                           
  5357                           ;car_black_box_def.c: 225:     {;car_black_box_def.c: 227:         clear_screen();
  5358     0978  160A  158A  2741  120A  158A  	fcall	_clear_screen
  5359     097D                     l4706:
  5360                           
  5361                           ;car_black_box_def.c: 228:         menu_pos++;
  5362     097D  3001               	movlw	1
  5363     097E  07FB               	addwf	_menu_pos,f
  5364     097F  2967               	goto	l4698
  5365     0980                     l4710:
  5366                           
  5367                           ;car_black_box_def.c: 231:     if(menu_pos == 4)
  5368     0980  3004               	movlw	4
  5369     0981  067B               	xorwf	_menu_pos,w
  5370     0982  1D03               	btfss	3,2
  5371     0983  2985               	goto	u5121
  5372     0984  2986               	goto	u5120
  5373     0985                     u5121:
  5374     0985  29BA               	goto	l4718
  5375     0986                     u5120:
  5376     0986                     l4712:
  5377                           
  5378                           ;car_black_box_def.c: 232:     {;car_black_box_def.c: 233:         clcd_putch('*', (0xC0
      +                           + 1));
  5379     0986  30C1               	movlw	193
  5380     0987  1283               	bcf	3,5	;RP0=0, select bank0
  5381     0988  00A0               	movwf	clcd_putch@addr
  5382     0989  302A               	movlw	42
  5383     098A  160A  158A  27AF  120A  158A  	fcall	_clcd_putch
  5384     098F                     l4714:
  5385                           
  5386                           ;car_black_box_def.c: 234:         clcd_print(menu[menu_pos - 1], (0x80 + 2));
  5387     098F  087B               	movf	_menu_pos,w
  5388     0990  1283               	bcf	3,5	;RP0=0, select bank0
  5389     0991  1303               	bcf	3,6	;RP1=0, select bank0
  5390     0992  00A3               	movwf	??_menu_screen
  5391     0993  0723               	addwf	??_menu_screen,w
  5392     0994  3ED9               	addlw	(low ((_menu| 0+254)))& (0+255)
  5393     0995  0084               	movwf	4
  5394     0996  1383               	bcf	3,7	;select IRP bank1
  5395     0997  0800               	movf	0,w
  5396     0998  00F6               	movwf	clcd_print@str
  5397     0999  0A84               	incf	4,f
  5398     099A  0800               	movf	0,w
  5399     099B  0384               	decf	4,f
  5400     099C  00F7               	movwf	clcd_print@str+1
  5401     099D  3082               	movlw	130
  5402     099E  00F8               	movwf	clcd_print@addr
  5403     099F  160A  118A  2255  120A  158A  	fcall	_clcd_print
  5404     09A4                     l4716:
  5405                           
  5406                           ;car_black_box_def.c: 235:         clcd_print(menu[menu_pos], (0xC0 + 2));
  5407     09A4  087B               	movf	_menu_pos,w
  5408     09A5  1283               	bcf	3,5	;RP0=0, select bank0
  5409     09A6  1303               	bcf	3,6	;RP1=0, select bank0
  5410     09A7  00A3               	movwf	??_menu_screen
  5411     09A8  0723               	addwf	??_menu_screen,w
  5412     09A9  3EDB               	addlw	(low (_menu| 0))& (0+255)
  5413     09AA  0084               	movwf	4
  5414     09AB  1383               	bcf	3,7	;select IRP bank1
  5415     09AC  0800               	movf	0,w
  5416     09AD  00F6               	movwf	clcd_print@str
  5417     09AE  0A84               	incf	4,f
  5418     09AF  0800               	movf	0,w
  5419     09B0  0384               	decf	4,f
  5420     09B1  00F7               	movwf	clcd_print@str+1
  5421     09B2  30C2               	movlw	194
  5422     09B3  00F8               	movwf	clcd_print@addr
  5423     09B4  160A  118A  2255  120A  158A  	fcall	_clcd_print
  5424                           
  5425                           ;car_black_box_def.c: 236:     }
  5426     09B9  29ED               	goto	l4724
  5427     09BA                     l4718:
  5428                           
  5429                           ;car_black_box_def.c: 238:     {;car_black_box_def.c: 239:         clcd_putch('*', (0x80
      +                           + 1));
  5430     09BA  3081               	movlw	129
  5431     09BB  1283               	bcf	3,5	;RP0=0, select bank0
  5432     09BC  00A0               	movwf	clcd_putch@addr
  5433     09BD  302A               	movlw	42
  5434     09BE  160A  158A  27AF  120A  158A  	fcall	_clcd_putch
  5435     09C3                     l4720:
  5436                           
  5437                           ;car_black_box_def.c: 240:         clcd_print(menu[menu_pos], (0x80 + 2));
  5438     09C3  087B               	movf	_menu_pos,w
  5439     09C4  1283               	bcf	3,5	;RP0=0, select bank0
  5440     09C5  1303               	bcf	3,6	;RP1=0, select bank0
  5441     09C6  00A3               	movwf	??_menu_screen
  5442     09C7  0723               	addwf	??_menu_screen,w
  5443     09C8  3EDB               	addlw	(low (_menu| 0))& (0+255)
  5444     09C9  0084               	movwf	4
  5445     09CA  1383               	bcf	3,7	;select IRP bank1
  5446     09CB  0800               	movf	0,w
  5447     09CC  00F6               	movwf	clcd_print@str
  5448     09CD  0A84               	incf	4,f
  5449     09CE  0800               	movf	0,w
  5450     09CF  0384               	decf	4,f
  5451     09D0  00F7               	movwf	clcd_print@str+1
  5452     09D1  3082               	movlw	130
  5453     09D2  00F8               	movwf	clcd_print@addr
  5454     09D3  160A  118A  2255  120A  158A  	fcall	_clcd_print
  5455     09D8                     l4722:
  5456                           
  5457                           ;car_black_box_def.c: 241:         clcd_print(menu[menu_pos + 1], (0xC0 + 2));
  5458     09D8  087B               	movf	_menu_pos,w
  5459     09D9  1283               	bcf	3,5	;RP0=0, select bank0
  5460     09DA  1303               	bcf	3,6	;RP1=0, select bank0
  5461     09DB  00A3               	movwf	??_menu_screen
  5462     09DC  0723               	addwf	??_menu_screen,w
  5463     09DD  3EDD               	addlw	(low ((_menu| 0+2)))& (0+255)
  5464     09DE  0084               	movwf	4
  5465     09DF  1383               	bcf	3,7	;select IRP bank1
  5466     09E0  0800               	movf	0,w
  5467     09E1  00F6               	movwf	clcd_print@str
  5468     09E2  0A84               	incf	4,f
  5469     09E3  0800               	movf	0,w
  5470     09E4  0384               	decf	4,f
  5471     09E5  00F7               	movwf	clcd_print@str+1
  5472     09E6  30C2               	movlw	194
  5473     09E7  00F8               	movwf	clcd_print@addr
  5474     09E8  160A  118A  2255  120A  158A  	fcall	_clcd_print
  5475     09ED                     l4724:
  5476                           
  5477                           ;car_black_box_def.c: 243:     return menu_pos;
  5478     09ED  087B               	movf	_menu_pos,w
  5479     09EE                     l368:
  5480     09EE  0008               	return
  5481     09EF                     __end_of_menu_screen:
  5482                           
  5483                           	psect	text8
  5484     0C72                     __ptext8:	
  5485 ;; *************** function _login *****************
  5486 ;; Defined at:
  5487 ;;		line 97 in file "car_black_box_def.c"
  5488 ;; Parameters:    Size  Location     Type
  5489 ;;  key             1    wreg     unsigned char 
  5490 ;;  reset_flag      1    2[BANK0 ] unsigned char 
  5491 ;; Auto vars:     Size  Location     Type
  5492 ;;  key             1   10[BANK0 ] unsigned char 
  5493 ;;  j               2   11[BANK0 ] int 
  5494 ;;  stored_pwd      4    6[BANK0 ] unsigned char [4]
  5495 ;; Return value:  Size  Location     Type
  5496 ;;                  1    wreg      unsigned char 
  5497 ;; Registers used:
  5498 ;;		wreg, fsr0l, fsr0h, status,2, status,0, btemp+1, pclath, cstack
  5499 ;; Tracked objects:
  5500 ;;		On entry : 0/0
  5501 ;;		On exit  : 0/0
  5502 ;;		Unchanged: 0/0
  5503 ;; Data sizes:     COMMON   BANK0   BANK1   BANK3   BANK2
  5504 ;;      Params:         0       1       0       0       0
  5505 ;;      Locals:         0       7       0       0       0
  5506 ;;      Temps:          0       3       0       0       0
  5507 ;;      Totals:         0      11       0       0       0
  5508 ;;Total ram usage:       11 bytes
  5509 ;; Hardware stack levels used: 1
  5510 ;; Hardware stack levels required when called: 5
  5511 ;; This function calls:
  5512 ;;		___awdiv
  5513 ;;		___awmod
  5514 ;;		_clcd_print
  5515 ;;		_clcd_putch
  5516 ;;		_clcd_write
  5517 ;;		_clear_screen
  5518 ;;		_ext_eeprom_24C02_read
  5519 ;;		_strncmp
  5520 ;; This function is called by:
  5521 ;;		_main
  5522 ;; This function uses a non-reentrant model
  5523 ;;
  5524                           
  5525     0C72                     _login:	
  5526                           ;psect for function _login
  5527                           
  5528                           
  5529                           ;incstack = 0
  5530                           ; Regs used in _login: [wreg-fsr0h+status,2+status,0+btemp+1+pclath+cstack]
  5531                           ;login@key stored from wreg
  5532     0C72  1283               	bcf	3,5	;RP0=0, select bank0
  5533     0C73  1303               	bcf	3,6	;RP1=0, select bank0
  5534     0C74  00AA               	movwf	login@key
  5535     0C75                     l4566:
  5536                           
  5537                           ;car_black_box_def.c: 97: unsigned char login(unsigned char key, unsigned char reset_fla
      +                          g);car_black_box_def.c: 98: {;car_black_box_def.c: 99:     static char user_password[4];
      +                          ;car_black_box_def.c: 100:     static unsigned char i;;car_black_box_def.c: 101:     sta
      +                          tic unsigned char attempts_left;;car_black_box_def.c: 102:     if(reset_flag == 0x11)
  5538     0C75  3011               	movlw	17
  5539     0C76  0622               	xorwf	login@reset_flag,w
  5540     0C77  1D03               	btfss	3,2
  5541     0C78  2C7A               	goto	u4951
  5542     0C79  2C7B               	goto	u4950
  5543     0C7A                     u4951:
  5544     0C7A  2C8C               	goto	l4576
  5545     0C7B                     u4950:
  5546     0C7B                     l4568:
  5547                           
  5548                           ;car_black_box_def.c: 103:     {;car_black_box_def.c: 104:         i= 0;
  5549     0C7B  01FA               	clrf	login@i
  5550     0C7C                     l4570:
  5551                           
  5552                           ;car_black_box_def.c: 105:         attempts_left = 3;
  5553     0C7C  3003               	movlw	3
  5554     0C7D  1683               	bsf	3,5	;RP0=1, select bank1
  5555     0C7E  1303               	bcf	3,6	;RP1=0, select bank1
  5556     0C7F  00AA               	movwf	login@attempts_left^(0+128)
  5557                           
  5558                           ;car_black_box_def.c: 106:         user_password[0] = '\0';
  5559     0C80  01D7               	clrf	login@user_password^(0+128)
  5560                           
  5561                           ;car_black_box_def.c: 107:         user_password[1] = '\0';
  5562     0C81  01D8               	clrf	(login@user_password^(0+128)+1)
  5563                           
  5564                           ;car_black_box_def.c: 108:         user_password[2] = '\0';
  5565     0C82  01D9               	clrf	(login@user_password^(0+128)+2)
  5566                           
  5567                           ;car_black_box_def.c: 109:         user_password[3] = '\0';
  5568     0C83  01DA               	clrf	(login@user_password^(0+128)+3)
  5569     0C84                     l4572:
  5570                           
  5571                           ;car_black_box_def.c: 112:         key = 0x3F;
  5572     0C84  303F               	movlw	63
  5573     0C85  1283               	bcf	3,5	;RP0=0, select bank0
  5574     0C86  1303               	bcf	3,6	;RP1=0, select bank0
  5575     0C87  00AA               	movwf	login@key
  5576     0C88                     l4574:
  5577                           
  5578                           ;car_black_box_def.c: 113:         return_time = 10;
  5579     0C88  300A               	movlw	10
  5580     0C89  1683               	bsf	3,5	;RP0=1, select bank1
  5581     0C8A  1303               	bcf	3,6	;RP1=0, select bank1
  5582     0C8B  00AC               	movwf	_return_time^(0+128)
  5583     0C8C                     l4576:
  5584                           
  5585                           ;car_black_box_def.c: 116:     if(return_time == 0)
  5586     0C8C  1683               	bsf	3,5	;RP0=1, select bank1
  5587     0C8D  1303               	bcf	3,6	;RP1=0, select bank1
  5588     0C8E  082C               	movf	_return_time^(0+128),w
  5589     0C8F  1D03               	btfss	3,2
  5590     0C90  2C92               	goto	u4961
  5591     0C91  2C93               	goto	u4960
  5592     0C92                     u4961:
  5593     0C92  2C95               	goto	l4582
  5594     0C93                     u4960:
  5595     0C93                     l4578:
  5596                           
  5597                           ;car_black_box_def.c: 117:     {;car_black_box_def.c: 119:         return 0x33;
  5598     0C93  3033               	movlw	51
  5599     0C94  2E35               	goto	l350
  5600     0C95                     l4582:
  5601                           
  5602                           ;car_black_box_def.c: 123:     if(key == 0x37 && i < 4)
  5603     0C95  3037               	movlw	55
  5604     0C96  1283               	bcf	3,5	;RP0=0, select bank0
  5605     0C97  1303               	bcf	3,6	;RP1=0, select bank0
  5606     0C98  062A               	xorwf	login@key,w
  5607     0C99  1D03               	btfss	3,2
  5608     0C9A  2C9C               	goto	u4971
  5609     0C9B  2C9D               	goto	u4970
  5610     0C9C                     u4971:
  5611     0C9C  2CB9               	goto	l4594
  5612     0C9D                     u4970:
  5613     0C9D                     l4584:
  5614     0C9D  3004               	movlw	4
  5615     0C9E  027A               	subwf	login@i,w
  5616     0C9F  1803               	skipnc
  5617     0CA0  2CA2               	goto	u4981
  5618     0CA1  2CA3               	goto	u4980
  5619     0CA2                     u4981:
  5620     0CA2  2CB9               	goto	l4594
  5621     0CA3                     u4980:
  5622     0CA3                     l4586:
  5623                           
  5624                           ;car_black_box_def.c: 124:     {;car_black_box_def.c: 125:        clcd_putch('*', (0xC0 
      +                          + 4+i));
  5625     0CA3  087A               	movf	login@i,w
  5626     0CA4  3EC4               	addlw	196
  5627     0CA5  00A0               	movwf	clcd_putch@addr
  5628     0CA6  302A               	movlw	42
  5629     0CA7  160A  158A  27AF  120A  158A  	fcall	_clcd_putch
  5630     0CAC                     l4588:
  5631                           
  5632                           ;car_black_box_def.c: 126:        user_password[i] = '1';
  5633     0CAC  087A               	movf	login@i,w
  5634     0CAD  3ED7               	addlw	(low (login@user_password| 0))& (0+255)
  5635     0CAE  0084               	movwf	4
  5636     0CAF  3031               	movlw	49
  5637     0CB0  1383               	bcf	3,7	;select IRP bank1
  5638     0CB1  0080               	movwf	0
  5639     0CB2                     l4590:
  5640                           
  5641                           ;car_black_box_def.c: 127:        i++;
  5642     0CB2  3001               	movlw	1
  5643     0CB3  07FA               	addwf	login@i,f
  5644     0CB4                     l4592:
  5645                           
  5646                           ;car_black_box_def.c: 128:        return_time = 10;
  5647     0CB4  300A               	movlw	10
  5648     0CB5  1683               	bsf	3,5	;RP0=1, select bank1
  5649     0CB6  1303               	bcf	3,6	;RP1=0, select bank1
  5650     0CB7  00AC               	movwf	_return_time^(0+128)
  5651                           
  5652                           ;car_black_box_def.c: 129:     }
  5653     0CB8  2CD5               	goto	l4606
  5654     0CB9                     l4594:
  5655     0CB9  302F               	movlw	47
  5656     0CBA  062A               	xorwf	login@key,w
  5657     0CBB  1D03               	btfss	3,2
  5658     0CBC  2CBE               	goto	u4991
  5659     0CBD  2CBF               	goto	u4990
  5660     0CBE                     u4991:
  5661     0CBE  2CD5               	goto	l4606
  5662     0CBF                     u4990:
  5663     0CBF                     l4596:
  5664     0CBF  3004               	movlw	4
  5665     0CC0  027A               	subwf	login@i,w
  5666     0CC1  1803               	skipnc
  5667     0CC2  2CC4               	goto	u5001
  5668     0CC3  2CC5               	goto	u5000
  5669     0CC4                     u5001:
  5670     0CC4  2CD5               	goto	l4606
  5671     0CC5                     u5000:
  5672     0CC5                     l4598:
  5673                           
  5674                           ;car_black_box_def.c: 131:     {;car_black_box_def.c: 132:         clcd_putch('*', (0xC0
      +                           + 4+i));
  5675     0CC5  087A               	movf	login@i,w
  5676     0CC6  3EC4               	addlw	196
  5677     0CC7  00A0               	movwf	clcd_putch@addr
  5678     0CC8  302A               	movlw	42
  5679     0CC9  160A  158A  27AF  120A  158A  	fcall	_clcd_putch
  5680     0CCE                     l4600:
  5681                           
  5682                           ;car_black_box_def.c: 133:         user_password[i] = '0';
  5683     0CCE  087A               	movf	login@i,w
  5684     0CCF  3ED7               	addlw	(low (login@user_password| 0))& (0+255)
  5685     0CD0  0084               	movwf	4
  5686     0CD1  3030               	movlw	48
  5687     0CD2  1383               	bcf	3,7	;select IRP bank1
  5688     0CD3  0080               	movwf	0
  5689     0CD4  2CB2               	goto	l4590
  5690     0CD5                     l4606:
  5691                           
  5692                           ;car_black_box_def.c: 139:     if(i == 4)
  5693     0CD5  3004               	movlw	4
  5694     0CD6  067A               	xorwf	login@i,w
  5695     0CD7  1D03               	btfss	3,2
  5696     0CD8  2CDA               	goto	u5011
  5697     0CD9  2CDB               	goto	u5010
  5698     0CDA                     u5011:
  5699     0CDA  2E35               	goto	l350
  5700     0CDB                     u5010:
  5701     0CDB                     l4608:
  5702                           
  5703                           ;car_black_box_def.c: 140:     {;car_black_box_def.c: 141:         char stored_pwd[4];;c
      +                          ar_black_box_def.c: 143:         for(int j=0; j<4; j++)
  5704     0CDB  1283               	bcf	3,5	;RP0=0, select bank0
  5705     0CDC  01AB               	clrf	login@j
  5706     0CDD  01AC               	clrf	login@j+1
  5707     0CDE                     l4614:
  5708                           
  5709                           ;car_black_box_def.c: 144:         {;car_black_box_def.c: 145:             stored_pwd[j]
      +                           = ext_eeprom_24C02_read(j);
  5710     0CDE  1283               	bcf	3,5	;RP0=0, select bank0
  5711     0CDF  1303               	bcf	3,6	;RP1=0, select bank0
  5712     0CE0  082B               	movf	login@j,w
  5713     0CE1  3E26               	addlw	(low (login@stored_pwd| 0))& (0+255)
  5714     0CE2  0084               	movwf	4
  5715     0CE3  082B               	movf	login@j,w
  5716     0CE4  160A  118A  222A  120A  158A  	fcall	_ext_eeprom_24C02_read
  5717     0CE9  1383               	bcf	3,7	;select IRP bank0
  5718     0CEA  0080               	movwf	0
  5719     0CEB                     l4616:
  5720                           
  5721                           ;car_black_box_def.c: 146:         }
  5722     0CEB  3001               	movlw	1
  5723     0CEC  1283               	bcf	3,5	;RP0=0, select bank0
  5724     0CED  1303               	bcf	3,6	;RP1=0, select bank0
  5725     0CEE  07AB               	addwf	login@j,f
  5726     0CEF  1803               	skipnc
  5727     0CF0  0AAC               	incf	login@j+1,f
  5728     0CF1  3000               	movlw	0
  5729     0CF2  07AC               	addwf	login@j+1,f
  5730     0CF3                     l4618:
  5731     0CF3  082C               	movf	login@j+1,w
  5732     0CF4  3A80               	xorlw	128
  5733     0CF5  00FF               	movwf	btemp+1
  5734     0CF6  3080               	movlw	128
  5735     0CF7  027F               	subwf	btemp+1,w
  5736     0CF8  1D03               	skipz
  5737     0CF9  2CFC               	goto	u5025
  5738     0CFA  3004               	movlw	4
  5739     0CFB  022B               	subwf	login@j,w
  5740     0CFC                     u5025:
  5741     0CFC  1C03               	skipc
  5742     0CFD  2CFF               	goto	u5021
  5743     0CFE  2D00               	goto	u5020
  5744     0CFF                     u5021:
  5745     0CFF  2CDE               	goto	l4614
  5746     0D00                     u5020:
  5747     0D00                     l4620:
  5748                           
  5749                           ;car_black_box_def.c: 148:         if(strncmp(stored_pwd, user_password, 4) == 0)
  5750     0D00  3026               	movlw	(low (login@stored_pwd| 0))& (0+255)
  5751     0D01  00F2               	movwf	strncmp@l
  5752     0D02  30D7               	movlw	(low (login@user_password| 0))& (0+255)
  5753     0D03  00F3               	movwf	strncmp@r
  5754     0D04  3004               	movlw	4
  5755     0D05  00F4               	movwf	strncmp@n
  5756     0D06  3000               	movlw	0
  5757     0D07  00F5               	movwf	strncmp@n+1
  5758     0D08  160A  118A  23BE  120A  158A  	fcall	_strncmp
  5759     0D0D  0872               	movf	?_strncmp,w
  5760     0D0E  0473               	iorwf	?_strncmp+1,w
  5761     0D0F  1D03               	btfss	3,2
  5762     0D10  2D12               	goto	u5031
  5763     0D11  2D13               	goto	u5030
  5764     0D12                     u5031:
  5765     0D12  2D41               	goto	l4638
  5766     0D13                     u5030:
  5767     0D13                     l4622:
  5768                           
  5769                           ;car_black_box_def.c: 149:         {;car_black_box_def.c: 150:             clear_screen(
      +                          );
  5770     0D13  160A  158A  2741  120A  158A  	fcall	_clear_screen
  5771     0D18                     l4624:
  5772                           
  5773                           ;car_black_box_def.c: 151:             clcd_print("LOGIN SUCCESS", (0x80 + 1));
  5774     0D18  308F               	movlw	low (STR_19| (0+32768))
  5775     0D19  00F6               	movwf	clcd_print@str
  5776     0D1A  3090               	movlw	high (STR_19| (0+32768))
  5777     0D1B  00F7               	movwf	clcd_print@str+1
  5778     0D1C  3081               	movlw	129
  5779     0D1D  00F8               	movwf	clcd_print@addr
  5780     0D1E  160A  118A  2255  120A  158A  	fcall	_clcd_print
  5781     0D23                     l4626:
  5782                           
  5783                           ;car_black_box_def.c: 152:             clcd_write(0x0C, 0);
  5784     0D23  01F2               	clrf	clcd_write@mode
  5785     0D24  300C               	movlw	12
  5786     0D25  160A  118A  234B  120A  158A  	fcall	_clcd_write
  5787     0D2A                     l4628:
  5788                           
  5789                           ;car_black_box_def.c: 153:             _delay((unsigned long)((100)*(20000000/4000000.0)
      +                          ));
  5790     0D2A  30A5               	movlw	165
  5791     0D2B  1283               	bcf	3,5	;RP0=0, select bank0
  5792     0D2C  1303               	bcf	3,6	;RP1=0, select bank0
  5793     0D2D  00A3               	movwf	??_login
  5794     0D2E                     u7117:
  5795     0D2E  0BA3               	decfsz	??_login,f
  5796     0D2F  2D2E               	goto	u7117
  5797     0D30  2D31               	nop2
  5798     0D31                     l4630:
  5799                           
  5800                           ;car_black_box_def.c: 154:             _delay((unsigned long)((3000)*(20000000/4000.0)))
      +                          ;
  5801     0D31  304D               	movlw	77
  5802     0D32  1283               	bcf	3,5	;RP0=0, select bank0
  5803     0D33  1303               	bcf	3,6	;RP1=0, select bank0
  5804     0D34  00A5               	movwf	??_login+2
  5805     0D35  3019               	movlw	25
  5806     0D36  00A4               	movwf	??_login+1
  5807     0D37  304F               	movlw	79
  5808     0D38  00A3               	movwf	??_login
  5809     0D39                     u7127:
  5810     0D39  0BA3               	decfsz	??_login,f
  5811     0D3A  2D39               	goto	u7127
  5812     0D3B  0BA4               	decfsz	??_login+1,f
  5813     0D3C  2D39               	goto	u7127
  5814     0D3D  0BA5               	decfsz	??_login+2,f
  5815     0D3E  2D39               	goto	u7127
  5816     0D3F                     l4632:
  5817                           
  5818                           ;car_black_box_def.c: 156:             return 0x44;
  5819     0D3F  3044               	movlw	68
  5820     0D40  2E35               	goto	l350
  5821     0D41                     l4638:
  5822                           
  5823                           ;car_black_box_def.c: 159:         {;car_black_box_def.c: 160:             attempts_left
      +                          --;
  5824     0D41  3001               	movlw	1
  5825     0D42  1683               	bsf	3,5	;RP0=1, select bank1
  5826     0D43  1303               	bcf	3,6	;RP1=0, select bank1
  5827     0D44  02AA               	subwf	login@attempts_left^(0+128),f
  5828                           
  5829                           ;car_black_box_def.c: 161:             if(attempts_left == 0)
  5830     0D45  082A               	movf	login@attempts_left^(0+128),w
  5831     0D46  1D03               	btfss	3,2
  5832     0D47  2D49               	goto	u5041
  5833     0D48  2D4A               	goto	u5040
  5834     0D49                     u5041:
  5835     0D49  2DCB               	goto	l4656
  5836     0D4A                     u5040:
  5837     0D4A                     l4640:
  5838                           
  5839                           ;car_black_box_def.c: 162:             {;car_black_box_def.c: 164:                 clear
      +                          _screen();
  5840     0D4A  160A  158A  2741  120A  158A  	fcall	_clear_screen
  5841                           
  5842                           ;car_black_box_def.c: 165:                 clcd_write(0x0C, 0);
  5843     0D4F  01F2               	clrf	clcd_write@mode
  5844     0D50  300C               	movlw	12
  5845     0D51  160A  118A  234B  120A  158A  	fcall	_clcd_write
  5846     0D56                     l4642:
  5847                           
  5848                           ;car_black_box_def.c: 166:                 _delay((unsigned long)((100)*(20000000/400000
      +                          0.0)));
  5849     0D56  30A5               	movlw	165
  5850     0D57  1283               	bcf	3,5	;RP0=0, select bank0
  5851     0D58  1303               	bcf	3,6	;RP1=0, select bank0
  5852     0D59  00A3               	movwf	??_login
  5853     0D5A                     u7137:
  5854     0D5A  0BA3               	decfsz	??_login,f
  5855     0D5B  2D5A               	goto	u7137
  5856     0D5C  2D5D               	nop2
  5857     0D5D                     l4644:
  5858                           
  5859                           ;car_black_box_def.c: 167:                 clcd_print("You are BLOCKED", (0x80 + 0));
  5860     0D5D  3043               	movlw	low (STR_20| (0+32768))
  5861     0D5E  00F6               	movwf	clcd_print@str
  5862     0D5F  3090               	movlw	high (STR_20| (0+32768))
  5863     0D60  00F7               	movwf	clcd_print@str+1
  5864     0D61  3080               	movlw	128
  5865     0D62  00F8               	movwf	clcd_print@addr
  5866     0D63  160A  118A  2255  120A  158A  	fcall	_clcd_print
  5867     0D68                     l4646:
  5868                           
  5869                           ;car_black_box_def.c: 168:                 clcd_print("Wait for", (0xC0 + 0));
  5870     0D68  302C               	movlw	low (STR_21| (0+32768))
  5871     0D69  00F6               	movwf	clcd_print@str
  5872     0D6A  3091               	movlw	high (STR_21| (0+32768))
  5873     0D6B  00F7               	movwf	clcd_print@str+1
  5874     0D6C  30C0               	movlw	192
  5875     0D6D  00F8               	movwf	clcd_print@addr
  5876     0D6E  160A  118A  2255  120A  158A  	fcall	_clcd_print
  5877     0D73                     l4648:
  5878                           
  5879                           ;car_black_box_def.c: 170:                 sec = 60;
  5880     0D73  303C               	movlw	60
  5881     0D74  1683               	bsf	3,5	;RP0=1, select bank1
  5882     0D75  1303               	bcf	3,6	;RP1=0, select bank1
  5883     0D76  00AD               	movwf	_sec^(0+128)
  5884                           
  5885                           ;car_black_box_def.c: 173:                 while(sec)
  5886     0D77  2DC1               	goto	l4654
  5887     0D78                     l4650:
  5888                           
  5889                           ;car_black_box_def.c: 174:                 {;car_black_box_def.c: 175:                  
      +                             clcd_putch(sec/10 + '0', (0xC0 + 9));
  5890     0D78  30C9               	movlw	201
  5891     0D79  1283               	bcf	3,5	;RP0=0, select bank0
  5892     0D7A  1303               	bcf	3,6	;RP1=0, select bank0
  5893     0D7B  00A0               	movwf	clcd_putch@addr
  5894     0D7C  300A               	movlw	10
  5895     0D7D  00F2               	movwf	___awdiv@divisor
  5896     0D7E  3000               	movlw	0
  5897     0D7F  00F3               	movwf	___awdiv@divisor+1
  5898     0D80  1683               	bsf	3,5	;RP0=1, select bank1
  5899     0D81  1303               	bcf	3,6	;RP1=0, select bank1
  5900     0D82  082D               	movf	_sec^(0+128),w
  5901     0D83  1283               	bcf	3,5	;RP0=0, select bank0
  5902     0D84  1303               	bcf	3,6	;RP1=0, select bank0
  5903     0D85  00A3               	movwf	??_login
  5904     0D86  01A4               	clrf	??_login+1
  5905     0D87  0823               	movf	??_login,w
  5906     0D88  00F4               	movwf	___awdiv@dividend
  5907     0D89  0824               	movf	??_login+1,w
  5908     0D8A  00F5               	movwf	___awdiv@dividend+1
  5909     0D8B  160A  118A  265E  120A  158A  	fcall	___awdiv
  5910     0D90  0872               	movf	?___awdiv,w
  5911     0D91  3E30               	addlw	48
  5912     0D92  160A  158A  27AF  120A  158A  	fcall	_clcd_putch
  5913                           
  5914                           ;car_black_box_def.c: 176:                     clcd_putch(sec%10 + '0', (0xC0 + 10));
  5915     0D97  30CA               	movlw	202
  5916     0D98  1283               	bcf	3,5	;RP0=0, select bank0
  5917     0D99  1303               	bcf	3,6	;RP1=0, select bank0
  5918     0D9A  00A0               	movwf	clcd_putch@addr
  5919     0D9B  300A               	movlw	10
  5920     0D9C  00F2               	movwf	___awmod@divisor
  5921     0D9D  3000               	movlw	0
  5922     0D9E  00F3               	movwf	___awmod@divisor+1
  5923     0D9F  1683               	bsf	3,5	;RP0=1, select bank1
  5924     0DA0  1303               	bcf	3,6	;RP1=0, select bank1
  5925     0DA1  082D               	movf	_sec^(0+128),w
  5926     0DA2  1283               	bcf	3,5	;RP0=0, select bank0
  5927     0DA3  1303               	bcf	3,6	;RP1=0, select bank0
  5928     0DA4  00A3               	movwf	??_login
  5929     0DA5  01A4               	clrf	??_login+1
  5930     0DA6  0823               	movf	??_login,w
  5931     0DA7  00F4               	movwf	___awmod@dividend
  5932     0DA8  0824               	movf	??_login+1,w
  5933     0DA9  00F5               	movwf	___awmod@dividend+1
  5934     0DAA  160A  118A  2544  120A  158A  	fcall	___awmod
  5935     0DAF  0872               	movf	?___awmod,w
  5936     0DB0  3E30               	addlw	48
  5937     0DB1  160A  158A  27AF  120A  158A  	fcall	_clcd_putch
  5938     0DB6                     l4652:
  5939                           
  5940                           ;car_black_box_def.c: 177:                     clcd_print("secs", (0xC0 + 12));
  5941     0DB6  304A               	movlw	low (STR_22| (0+32768))
  5942     0DB7  00F6               	movwf	clcd_print@str
  5943     0DB8  3091               	movlw	high (STR_22| (0+32768))
  5944     0DB9  00F7               	movwf	clcd_print@str+1
  5945     0DBA  30CC               	movlw	204
  5946     0DBB  00F8               	movwf	clcd_print@addr
  5947     0DBC  160A  118A  2255  120A  158A  	fcall	_clcd_print
  5948     0DC1                     l4654:
  5949                           
  5950                           ;car_black_box_def.c: 173:                 while(sec)
  5951     0DC1  1683               	bsf	3,5	;RP0=1, select bank1
  5952     0DC2  1303               	bcf	3,6	;RP1=0, select bank1
  5953     0DC3  082D               	movf	_sec^(0+128),w
  5954     0DC4  1D03               	btfss	3,2
  5955     0DC5  2DC7               	goto	u5051
  5956     0DC6  2DC8               	goto	u5050
  5957     0DC7                     u5051:
  5958     0DC7  2D78               	goto	l4650
  5959     0DC8                     u5050:
  5960     0DC8                     l362:
  5961                           
  5962                           ;car_black_box_def.c: 179:                 attempts_left = 3;
  5963     0DC8  3003               	movlw	3
  5964     0DC9  00AA               	movwf	login@attempts_left^(0+128)
  5965                           
  5966                           ;car_black_box_def.c: 180:             }
  5967     0DCA  2E0F               	goto	l4666
  5968     0DCB                     l4656:
  5969                           
  5970                           ;car_black_box_def.c: 182:             {;car_black_box_def.c: 183:                 clear
      +                          _screen();
  5971     0DCB  160A  158A  2741  120A  158A  	fcall	_clear_screen
  5972                           
  5973                           ;car_black_box_def.c: 184:                 clcd_write(0x0C, 0);
  5974     0DD0  01F2               	clrf	clcd_write@mode
  5975     0DD1  300C               	movlw	12
  5976     0DD2  160A  118A  234B  120A  158A  	fcall	_clcd_write
  5977     0DD7                     l4658:
  5978                           
  5979                           ;car_black_box_def.c: 185:                 _delay((unsigned long)((100)*(20000000/400000
      +                          0.0)));
  5980     0DD7  30A5               	movlw	165
  5981     0DD8  1283               	bcf	3,5	;RP0=0, select bank0
  5982     0DD9  1303               	bcf	3,6	;RP1=0, select bank0
  5983     0DDA  00A3               	movwf	??_login
  5984     0DDB                     u7147:
  5985     0DDB  0BA3               	decfsz	??_login,f
  5986     0DDC  2DDB               	goto	u7147
  5987     0DDD  2DDE               	nop2
  5988     0DDE                     l4660:
  5989                           
  5990                           ;car_black_box_def.c: 186:                 clcd_print("Wrong Password", (0x80 + 0));
  5991     0DDE  3063               	movlw	low (STR_23| (0+32768))
  5992     0DDF  00F6               	movwf	clcd_print@str
  5993     0DE0  3090               	movlw	high (STR_23| (0+32768))
  5994     0DE1  00F7               	movwf	clcd_print@str+1
  5995     0DE2  3080               	movlw	128
  5996     0DE3  00F8               	movwf	clcd_print@addr
  5997     0DE4  160A  118A  2255  120A  158A  	fcall	_clcd_print
  5998     0DE9                     l4662:
  5999                           
  6000                           ;car_black_box_def.c: 187:                 clcd_print("attempts left", (0xC0 + 2));
  6001     0DE9  30AB               	movlw	low (STR_24| (0+32768))
  6002     0DEA  00F6               	movwf	clcd_print@str
  6003     0DEB  3090               	movlw	high (STR_24| (0+32768))
  6004     0DEC  00F7               	movwf	clcd_print@str+1
  6005     0DED  30C2               	movlw	194
  6006     0DEE  00F8               	movwf	clcd_print@addr
  6007     0DEF  160A  118A  2255  120A  158A  	fcall	_clcd_print
  6008     0DF4                     l4664:
  6009                           
  6010                           ;car_black_box_def.c: 189:                 clcd_putch(attempts_left + '0', (0xC0 + 0));
  6011     0DF4  30C0               	movlw	192
  6012     0DF5  1283               	bcf	3,5	;RP0=0, select bank0
  6013     0DF6  1303               	bcf	3,6	;RP1=0, select bank0
  6014     0DF7  00A0               	movwf	clcd_putch@addr
  6015     0DF8  1683               	bsf	3,5	;RP0=1, select bank1
  6016     0DF9  1303               	bcf	3,6	;RP1=0, select bank1
  6017     0DFA  082A               	movf	login@attempts_left^(0+128),w
  6018     0DFB  3E30               	addlw	48
  6019     0DFC  160A  158A  27AF  120A  158A  	fcall	_clcd_putch
  6020                           
  6021                           ;car_black_box_def.c: 190:                 _delay((unsigned long)((3000)*(20000000/4000.
      +                          0)));
  6022     0E01  304D               	movlw	77
  6023     0E02  1283               	bcf	3,5	;RP0=0, select bank0
  6024     0E03  1303               	bcf	3,6	;RP1=0, select bank0
  6025     0E04  00A5               	movwf	??_login+2
  6026     0E05  3019               	movlw	25
  6027     0E06  00A4               	movwf	??_login+1
  6028     0E07  304F               	movlw	79
  6029     0E08  00A3               	movwf	??_login
  6030     0E09                     u7157:
  6031     0E09  0BA3               	decfsz	??_login,f
  6032     0E0A  2E09               	goto	u7157
  6033     0E0B  0BA4               	decfsz	??_login+1,f
  6034     0E0C  2E09               	goto	u7157
  6035     0E0D  0BA5               	decfsz	??_login+2,f
  6036     0E0E  2E09               	goto	u7157
  6037     0E0F                     l4666:
  6038                           
  6039                           ;car_black_box_def.c: 192:             clear_screen();
  6040     0E0F  160A  158A  2741  120A  158A  	fcall	_clear_screen
  6041     0E14                     l4668:
  6042                           
  6043                           ;car_black_box_def.c: 194:             clcd_print("Enter Password", (0x80 + 1));
  6044     0E14  3072               	movlw	low (STR_10| (0+32768))
  6045     0E15  00F6               	movwf	clcd_print@str
  6046     0E16  3090               	movlw	high (STR_10| (0+32768))
  6047     0E17  00F7               	movwf	clcd_print@str+1
  6048     0E18  3081               	movlw	129
  6049     0E19  00F8               	movwf	clcd_print@addr
  6050     0E1A  160A  118A  2255  120A  158A  	fcall	_clcd_print
  6051     0E1F                     l4670:
  6052                           
  6053                           ;car_black_box_def.c: 196:             clcd_write((0xC0 + 4),0);
  6054     0E1F  01F2               	clrf	clcd_write@mode
  6055     0E20  30C4               	movlw	196
  6056     0E21  160A  118A  234B  120A  158A  	fcall	_clcd_write
  6057     0E26                     l4672:
  6058                           
  6059                           ;car_black_box_def.c: 197:             clcd_write(0x0F, 0);
  6060     0E26  01F2               	clrf	clcd_write@mode
  6061     0E27  300F               	movlw	15
  6062     0E28  160A  118A  234B  120A  158A  	fcall	_clcd_write
  6063     0E2D                     l4674:
  6064                           
  6065                           ;car_black_box_def.c: 198:             _delay((unsigned long)((100)*(20000000/4000000.0)
      +                          ));
  6066     0E2D  30A5               	movlw	165
  6067     0E2E  1283               	bcf	3,5	;RP0=0, select bank0
  6068     0E2F  1303               	bcf	3,6	;RP1=0, select bank0
  6069     0E30  00A3               	movwf	??_login
  6070     0E31                     u7167:
  6071     0E31  0BA3               	decfsz	??_login,f
  6072     0E32  2E31               	goto	u7167
  6073     0E33  2E34               	nop2
  6074     0E34                     l4676:
  6075                           
  6076                           ;car_black_box_def.c: 199:             i = 0;
  6077     0E34  01FA               	clrf	login@i
  6078     0E35                     l350:
  6079     0E35  0008               	return
  6080     0E36                     __end_of_login:
  6081                           
  6082                           	psect	text9
  6083     159B                     __ptext9:	
  6084 ;; *************** function _log_event *****************
  6085 ;; Defined at:
  6086 ;;		line 81 in file "car_black_box_def.c"
  6087 ;; Parameters:    Size  Location     Type
  6088 ;;  event           1    4[BANK0 ] PTR unsigned char 
  6089 ;;		 -> main@event(3), 
  6090 ;;  speed           1    5[BANK0 ] unsigned char 
  6091 ;; Auto vars:     Size  Location     Type
  6092 ;;		None
  6093 ;; Return value:  Size  Location     Type
  6094 ;;                  1    wreg      void 
  6095 ;; Registers used:
  6096 ;;		wreg, fsr0l, fsr0h, status,2, status,0, btemp+1, pclath, cstack
  6097 ;; Tracked objects:
  6098 ;;		On entry : 0/0
  6099 ;;		On exit  : 0/0
  6100 ;;		Unchanged: 0/0
  6101 ;; Data sizes:     COMMON   BANK0   BANK1   BANK3   BANK2
  6102 ;;      Params:         0       2       0       0       0
  6103 ;;      Locals:         0       0       0       0       0
  6104 ;;      Temps:          0       2       0       0       0
  6105 ;;      Totals:         0       4       0       0       0
  6106 ;;Total ram usage:        4 bytes
  6107 ;; Hardware stack levels used: 1
  6108 ;; Hardware stack levels required when called: 6
  6109 ;; This function calls:
  6110 ;;		___awdiv
  6111 ;;		___awmod
  6112 ;;		_get_time
  6113 ;;		_store_event
  6114 ;;		_strncpy
  6115 ;; This function is called by:
  6116 ;;		_main
  6117 ;; This function uses a non-reentrant model
  6118 ;;
  6119                           
  6120     159B                     _log_event:	
  6121                           ;psect for function _log_event
  6122                           
  6123     159B                     l5580:	
  6124                           ;incstack = 0
  6125                           ; Regs used in _log_event: [wreg-fsr0h+status,2+status,0+btemp+1+pclath+cstack]
  6126                           
  6127                           
  6128                           ;car_black_box_def.c: 81: void log_event(unsigned char event[], unsigned char speed);car
      +                          _black_box_def.c: 82: {;car_black_box_def.c: 83:     get_time();
  6129     159B  160A  118A  2454  160A  118A  	fcall	_get_time
  6130     15A0                     l5582:
  6131                           
  6132                           ;car_black_box_def.c: 84:     strncpy(log, time, 6);
  6133     15A0  30BD               	movlw	(low (_log| (0+256)))& (0+255)
  6134     15A1  00F2               	movwf	strncpy@d
  6135     15A2  3001               	movlw	1
  6136     15A3  00F3               	movwf	strncpy@d+1
  6137     15A4  30C8               	movlw	(low (_time| 0))& (0+255)
  6138     15A5  00F4               	movwf	strncpy@s
  6139     15A6  3000               	movlw	0
  6140     15A7  00F5               	movwf	strncpy@s+1
  6141     15A8  3006               	movlw	6
  6142     15A9  00F6               	movwf	strncpy@n
  6143     15AA  3000               	movlw	0
  6144     15AB  00F7               	movwf	strncpy@n+1
  6145     15AC  160A  118A  24A1  160A  118A  	fcall	_strncpy
  6146     15B1                     l5584:
  6147                           
  6148                           ;car_black_box_def.c: 85:     strncpy(&log[6], event, 2);
  6149     15B1  30C3               	movlw	(low ((_log| (0+256)+6)))& (0+255)
  6150     15B2  00F2               	movwf	strncpy@d
  6151     15B3  3001               	movlw	1
  6152     15B4  00F3               	movwf	strncpy@d+1
  6153     15B5  1283               	bcf	3,5	;RP0=0, select bank0
  6154     15B6  1303               	bcf	3,6	;RP1=0, select bank0
  6155     15B7  0824               	movf	log_event@event,w
  6156     15B8  00F4               	movwf	strncpy@s
  6157     15B9  3001               	movlw	1
  6158     15BA  00F5               	movwf	strncpy@s+1
  6159     15BB  3002               	movlw	2
  6160     15BC  00F6               	movwf	strncpy@n
  6161     15BD  3000               	movlw	0
  6162     15BE  00F7               	movwf	strncpy@n+1
  6163     15BF  160A  118A  24A1  160A  118A  	fcall	_strncpy
  6164                           
  6165                           ;car_black_box_def.c: 88:     log[8] = speed / 10 + '0';
  6166     15C4  300A               	movlw	10
  6167     15C5  00F2               	movwf	___awdiv@divisor
  6168     15C6  3000               	movlw	0
  6169     15C7  00F3               	movwf	___awdiv@divisor+1
  6170     15C8  1283               	bcf	3,5	;RP0=0, select bank0
  6171     15C9  1303               	bcf	3,6	;RP1=0, select bank0
  6172     15CA  0825               	movf	log_event@speed,w
  6173     15CB  00A6               	movwf	??_log_event
  6174     15CC  01A7               	clrf	??_log_event+1
  6175     15CD  0826               	movf	??_log_event,w
  6176     15CE  00F4               	movwf	___awdiv@dividend
  6177     15CF  0827               	movf	??_log_event+1,w
  6178     15D0  00F5               	movwf	___awdiv@dividend+1
  6179     15D1  160A  118A  265E  160A  118A  	fcall	___awdiv
  6180     15D6  0872               	movf	?___awdiv,w
  6181     15D7  3E30               	addlw	48
  6182     15D8  1683               	bsf	3,5	;RP0=1, select bank3
  6183     15D9  1703               	bsf	3,6	;RP1=1, select bank3
  6184     15DA  00C5               	movwf	(_log^(0+384)+8)
  6185                           
  6186                           ;car_black_box_def.c: 89:     log[9] = speed % 10 + '0';
  6187     15DB  300A               	movlw	10
  6188     15DC  00F2               	movwf	___awmod@divisor
  6189     15DD  3000               	movlw	0
  6190     15DE  00F3               	movwf	___awmod@divisor+1
  6191     15DF  1283               	bcf	3,5	;RP0=0, select bank0
  6192     15E0  1303               	bcf	3,6	;RP1=0, select bank0
  6193     15E1  0825               	movf	log_event@speed,w
  6194     15E2  00A6               	movwf	??_log_event
  6195     15E3  01A7               	clrf	??_log_event+1
  6196     15E4  0826               	movf	??_log_event,w
  6197     15E5  00F4               	movwf	___awmod@dividend
  6198     15E6  0827               	movf	??_log_event+1,w
  6199     15E7  00F5               	movwf	___awmod@dividend+1
  6200     15E8  160A  118A  2544  160A  118A  	fcall	___awmod
  6201     15ED  0872               	movf	?___awmod,w
  6202     15EE  3E30               	addlw	48
  6203     15EF  1683               	bsf	3,5	;RP0=1, select bank3
  6204     15F0  1703               	bsf	3,6	;RP1=1, select bank3
  6205     15F1  00C6               	movwf	(_log^(0+384)+9)
  6206     15F2                     l5586:
  6207                           
  6208                           ;car_black_box_def.c: 90:     log[10] = '\0';
  6209     15F2  01C7               	clrf	(_log^(0+384)+10)
  6210     15F3                     l5588:
  6211                           
  6212                           ;car_black_box_def.c: 92:     store_event();
  6213     15F3  160A  118A  2381  160A  118A  	fcall	_store_event
  6214     15F8                     l5590:
  6215                           
  6216                           ;car_black_box_def.c: 93:     clear_flag = 0;
  6217     15F8  1683               	bsf	3,5	;RP0=1, select bank1
  6218     15F9  1303               	bcf	3,6	;RP1=0, select bank1
  6219     15FA  01AB               	clrf	_clear_flag^(0+128)
  6220     15FB                     l339:
  6221     15FB  0008               	return
  6222     15FC                     __end_of_log_event:
  6223                           
  6224                           	psect	text10
  6225     14A1                     __ptext10:	
  6226 ;; *************** function _strncpy *****************
  6227 ;; Defined at:
  6228 ;;		line 3 in file "C:\Program Files\Microchip\xc8\v3.00\pic\sources\c99\common\strncpy.c"
  6229 ;; Parameters:    Size  Location     Type
  6230 ;;  d               2    2[COMMON] PTR unsigned char 
  6231 ;;		 -> set_time@settime(9), log(11), 
  6232 ;;  s               2    4[COMMON] PTR const unsigned char 
  6233 ;;		 -> time(7), main@event(3), 
  6234 ;;  n               2    6[COMMON] unsigned int 
  6235 ;; Auto vars:     Size  Location     Type
  6236 ;;  cp              2    8[COMMON] PTR unsigned char 
  6237 ;;		 -> set_time@settime(9), log(11), 
  6238 ;; Return value:  Size  Location     Type
  6239 ;;                  2    2[COMMON] PTR unsigned char 
  6240 ;; Registers used:
  6241 ;;		wreg, fsr0l, fsr0h, status,2, status,0, btemp+1
  6242 ;; Tracked objects:
  6243 ;;		On entry : 0/0
  6244 ;;		On exit  : 0/0
  6245 ;;		Unchanged: 0/0
  6246 ;; Data sizes:     COMMON   BANK0   BANK1   BANK3   BANK2
  6247 ;;      Params:         6       0       0       0       0
  6248 ;;      Locals:         2       0       0       0       0
  6249 ;;      Temps:          0       4       0       0       0
  6250 ;;      Totals:         8       4       0       0       0
  6251 ;;Total ram usage:       12 bytes
  6252 ;; Hardware stack levels used: 1
  6253 ;; Hardware stack levels required when called: 1
  6254 ;; This function calls:
  6255 ;;		Nothing
  6256 ;; This function is called by:
  6257 ;;		_log_event
  6258 ;;		_set_time
  6259 ;; This function uses a non-reentrant model
  6260 ;;
  6261                           
  6262     14A1                     _strncpy:	
  6263                           ;psect for function _strncpy
  6264                           
  6265     14A1                     l5564:	
  6266                           ;incstack = 0
  6267                           ; Regs used in _strncpy: [wreg-fsr0h+status,2+status,0+btemp+1]
  6268                           
  6269     14A1  0872               	movf	strncpy@d,w
  6270     14A2  00F8               	movwf	strncpy@cp
  6271     14A3  0873               	movf	strncpy@d+1,w
  6272     14A4  00F9               	movwf	strncpy@cp+1
  6273     14A5  2CD0               	goto	l5572
  6274     14A6                     l5566:
  6275     14A6  3001               	movlw	1
  6276     14A7  02F6               	subwf	strncpy@n,f
  6277     14A8  3000               	movlw	0
  6278     14A9  1C03               	skipc
  6279     14AA  03F7               	decf	strncpy@n+1,f
  6280     14AB  02F7               	subwf	strncpy@n+1,f
  6281     14AC                     l5568:
  6282     14AC  0875               	movf	strncpy@s+1,w
  6283     14AD  1283               	bcf	3,5	;RP0=0, select bank0
  6284     14AE  1303               	bcf	3,6	;RP1=0, select bank0
  6285     14AF  00A1               	movwf	??_strncpy+1
  6286     14B0  0874               	movf	strncpy@s,w
  6287     14B1  00A0               	movwf	??_strncpy
  6288     14B2  0AF4               	incf	strncpy@s,f
  6289     14B3  1903               	skipnz
  6290     14B4  0AF5               	incf	strncpy@s+1,f
  6291     14B5  0820               	movf	??_strncpy,w
  6292     14B6  0084               	movwf	4
  6293     14B7  1783               	bsf	3,7
  6294     14B8  1C21               	btfss	??_strncpy+1,0
  6295     14B9  1383               	bcf	3,7
  6296     14BA  0800               	movf	0,w
  6297     14BB  00FF               	movwf	btemp+1
  6298     14BC  0879               	movf	strncpy@cp+1,w
  6299     14BD  00A3               	movwf	??_strncpy+3
  6300     14BE  0878               	movf	strncpy@cp,w
  6301     14BF  00A2               	movwf	??_strncpy+2
  6302     14C0  0AF8               	incf	strncpy@cp,f
  6303     14C1  1903               	skipnz
  6304     14C2  0AF9               	incf	strncpy@cp+1,f
  6305     14C3  0822               	movf	??_strncpy+2,w
  6306     14C4  0084               	movwf	4
  6307     14C5  1783               	bsf	3,7
  6308     14C6  1C23               	btfss	??_strncpy+3,0
  6309     14C7  1383               	bcf	3,7
  6310     14C8  087F               	movf	btemp+1,w
  6311     14C9  0080               	movwf	0
  6312     14CA  0800               	movf	0,w
  6313     14CB  1D03               	btfss	3,2
  6314     14CC  2CCE               	goto	u6451
  6315     14CD  2CCF               	goto	u6450
  6316     14CE                     u6451:
  6317     14CE  2CD0               	goto	l5572
  6318     14CF                     u6450:
  6319     14CF  2CE1               	goto	l5578
  6320     14D0                     l5572:
  6321     14D0  0876               	movf	strncpy@n,w
  6322     14D1  0477               	iorwf	strncpy@n+1,w
  6323     14D2  1D03               	btfss	3,2
  6324     14D3  2CD5               	goto	u6461
  6325     14D4  2CD6               	goto	u6460
  6326     14D5                     u6461:
  6327     14D5  2CA6               	goto	l5566
  6328     14D6                     u6460:
  6329     14D6  2CE1               	goto	l5578
  6330     14D7                     l5574:
  6331     14D7  0878               	movf	strncpy@cp,w
  6332     14D8  0084               	movwf	4
  6333     14D9  1783               	bsf	3,7
  6334     14DA  1C79               	btfss	strncpy@cp+1,0
  6335     14DB  1383               	bcf	3,7
  6336     14DC  0180               	clrf	0
  6337     14DD                     l5576:
  6338     14DD  3001               	movlw	1
  6339     14DE  07F8               	addwf	strncpy@cp,f
  6340     14DF  1803               	skipnc
  6341     14E0  0AF9               	incf	strncpy@cp+1,f
  6342     14E1                     l5578:
  6343     14E1  3001               	movlw	1
  6344     14E2  02F6               	subwf	strncpy@n,f
  6345     14E3  3000               	movlw	0
  6346     14E4  1C03               	skipc
  6347     14E5  03F7               	decf	strncpy@n+1,f
  6348     14E6  02F7               	subwf	strncpy@n+1,f
  6349     14E7  0A76               	incf	strncpy@n,w
  6350     14E8  1D03               	skipz
  6351     14E9  2CEE               	goto	u6471
  6352     14EA  0A77               	incf	strncpy@n+1,w
  6353     14EB  1D03               	btfss	3,2
  6354     14EC  2CEE               	goto	u6471
  6355     14ED  2CEF               	goto	u6470
  6356     14EE                     u6471:
  6357     14EE  2CD7               	goto	l5574
  6358     14EF                     u6470:
  6359     14EF                     l1128:
  6360     14EF  0008               	return
  6361     14F0                     __end_of_strncpy:
  6362                           
  6363                           	psect	text11
  6364     1381                     __ptext11:	
  6365 ;; *************** function _store_event *****************
  6366 ;; Defined at:
  6367 ;;		line 66 in file "car_black_box_def.c"
  6368 ;; Parameters:    Size  Location     Type
  6369 ;;		None
  6370 ;; Auto vars:     Size  Location     Type
  6371 ;;  addr            1    8[COMMON] unsigned char 
  6372 ;; Return value:  Size  Location     Type
  6373 ;;                  1    wreg      void 
  6374 ;; Registers used:
  6375 ;;		wreg, fsr0l, fsr0h, status,2, status,0, btemp+1, pclath, cstack
  6376 ;; Tracked objects:
  6377 ;;		On entry : 0/0
  6378 ;;		On exit  : 0/0
  6379 ;;		Unchanged: 0/0
  6380 ;; Data sizes:     COMMON   BANK0   BANK1   BANK3   BANK2
  6381 ;;      Params:         0       0       0       0       0
  6382 ;;      Locals:         1       0       0       0       0
  6383 ;;      Temps:          0       0       0       0       0
  6384 ;;      Totals:         1       0       0       0       0
  6385 ;;Total ram usage:        1 bytes
  6386 ;; Hardware stack levels used: 1
  6387 ;; Hardware stack levels required when called: 5
  6388 ;; This function calls:
  6389 ;;		___bmul
  6390 ;;		_ext_eeprom_24C02_str_write
  6391 ;; This function is called by:
  6392 ;;		_log_event
  6393 ;; This function uses a non-reentrant model
  6394 ;;
  6395                           
  6396     1381                     _store_event:	
  6397                           ;psect for function _store_event
  6398                           
  6399     1381                     l4386:	
  6400                           ;incstack = 0
  6401                           ; Regs used in _store_event: [wreg-fsr0h+status,2+status,0+btemp+1+pclath+cstack]
  6402                           
  6403                           
  6404                           ;car_black_box_def.c: 68:     char addr;;car_black_box_def.c: 69:     log_pos++;
  6405     1381  3001               	movlw	1
  6406     1382  1683               	bsf	3,5	;RP0=1, select bank1
  6407     1383  1303               	bcf	3,6	;RP1=0, select bank1
  6408     1384  07EA               	addwf	_log_pos^(0+128),f
  6409     1385  1803               	skipnc
  6410     1386  0AEB               	incf	(_log_pos+1)^(0+128),f
  6411     1387  3000               	movlw	0
  6412     1388  07EB               	addwf	(_log_pos+1)^(0+128),f
  6413     1389                     l4388:
  6414                           
  6415                           ;car_black_box_def.c: 70:     if(log_pos == 10){
  6416     1389  300A               	movlw	10
  6417     138A  066A               	xorwf	_log_pos^(0+128),w
  6418     138B  046B               	iorwf	(_log_pos+1)^(0+128),w
  6419     138C  1D03               	btfss	3,2
  6420     138D  2B8F               	goto	u4751
  6421     138E  2B90               	goto	u4750
  6422     138F                     u4751:
  6423     138F  2B92               	goto	l4392
  6424     1390                     u4750:
  6425     1390                     l4390:
  6426                           
  6427                           ;car_black_box_def.c: 71:         log_pos = 0;
  6428     1390  01EA               	clrf	_log_pos^(0+128)
  6429     1391  01EB               	clrf	(_log_pos+1)^(0+128)
  6430     1392                     l4392:
  6431                           
  6432                           ;car_black_box_def.c: 73:     addr = 0x05 + (log_pos * 10);
  6433     1392  300A               	movlw	10
  6434     1393  00F2               	movwf	___bmul@multiplicand
  6435     1394  086A               	movf	_log_pos^(0+128),w
  6436     1395  160A  158A  2776  160A  118A  	fcall	___bmul
  6437     139A  3E05               	addlw	5
  6438     139B  00F8               	movwf	store_event@addr
  6439     139C                     l4394:
  6440                           
  6441                           ;car_black_box_def.c: 74:     if(events_logged < 10)
  6442     139C  1683               	bsf	3,5	;RP0=1, select bank1
  6443     139D  1303               	bcf	3,6	;RP1=0, select bank1
  6444     139E  0826               	movf	(_events_logged+1)^(0+128),w
  6445     139F  3A80               	xorlw	128
  6446     13A0  00FF               	movwf	btemp+1
  6447     13A1  3080               	movlw	128
  6448     13A2  027F               	subwf	btemp+1,w
  6449     13A3  1D03               	skipz
  6450     13A4  2BA7               	goto	u4765
  6451     13A5  300A               	movlw	10
  6452     13A6  0225               	subwf	_events_logged^(0+128),w
  6453     13A7                     u4765:
  6454     13A7  1803               	skipnc
  6455     13A8  2BAA               	goto	u4761
  6456     13A9  2BAB               	goto	u4760
  6457     13AA                     u4761:
  6458     13AA  2BB3               	goto	l4398
  6459     13AB                     u4760:
  6460     13AB                     l4396:
  6461                           
  6462                           ;car_black_box_def.c: 75:         events_logged++;
  6463     13AB  3001               	movlw	1
  6464     13AC  1683               	bsf	3,5	;RP0=1, select bank1
  6465     13AD  1303               	bcf	3,6	;RP1=0, select bank1
  6466     13AE  07A5               	addwf	_events_logged^(0+128),f
  6467     13AF  1803               	skipnc
  6468     13B0  0AA6               	incf	(_events_logged+1)^(0+128),f
  6469     13B1  3000               	movlw	0
  6470     13B2  07A6               	addwf	(_events_logged+1)^(0+128),f
  6471     13B3                     l4398:
  6472                           
  6473                           ;car_black_box_def.c: 76:     ext_eeprom_24C02_str_write( addr , log);
  6474     13B3  30BD               	movlw	(low (_log| (0+256)))& (0+255)
  6475     13B4  00F5               	movwf	ext_eeprom_24C02_str_write@str
  6476     13B5  3001               	movlw	1
  6477     13B6  00F6               	movwf	ext_eeprom_24C02_str_write@str+1
  6478     13B7  0878               	movf	store_event@addr,w
  6479     13B8  160A  118A  21D4  160A  118A  	fcall	_ext_eeprom_24C02_str_write
  6480     13BD                     l336:
  6481     13BD  0008               	return
  6482     13BE                     __end_of_store_event:
  6483                           
  6484                           	psect	text12
  6485     0800                     __ptext12:	
  6486 ;; *************** function _init_config *****************
  6487 ;; Defined at:
  6488 ;;		line 45 in file "main.c"
  6489 ;; Parameters:    Size  Location     Type
  6490 ;;		None
  6491 ;; Auto vars:     Size  Location     Type
  6492 ;;		None
  6493 ;; Return value:  Size  Location     Type
  6494 ;;                  1    wreg      void 
  6495 ;; Registers used:
  6496 ;;		wreg, status,2, status,0, pclath, cstack
  6497 ;; Tracked objects:
  6498 ;;		On entry : 0/0
  6499 ;;		On exit  : 0/0
  6500 ;;		Unchanged: 0/0
  6501 ;; Data sizes:     COMMON   BANK0   BANK1   BANK3   BANK2
  6502 ;;      Params:         0       0       0       0       0
  6503 ;;      Locals:         0       0       0       0       0
  6504 ;;      Temps:          0       0       0       0       0
  6505 ;;      Totals:         0       0       0       0       0
  6506 ;;Total ram usage:        0 bytes
  6507 ;; Hardware stack levels used: 1
  6508 ;; Hardware stack levels required when called: 6
  6509 ;; This function calls:
  6510 ;;		_init_adc
  6511 ;;		_init_clcd
  6512 ;;		_init_digital_keypad
  6513 ;;		_init_ds1307
  6514 ;;		_init_i2c
  6515 ;;		_init_timer2
  6516 ;;		_init_uart
  6517 ;; This function is called by:
  6518 ;;		_main
  6519 ;; This function uses a non-reentrant model
  6520 ;;
  6521                           
  6522     0800                     _init_config:	
  6523                           ;psect for function _init_config
  6524                           
  6525     0800                     l4496:	
  6526                           ;incstack = 0
  6527                           ; Regs used in _init_config: [wreg+status,2+status,0+pclath+cstack]
  6528                           
  6529                           
  6530                           ;main.c: 48:         {
  6531     0800  3000               	movlw	0
  6532     0801  1283               	bcf	3,5	;RP0=0, select bank0
  6533     0802  1303               	bcf	3,6	;RP1=0, select bank0
  6534     0803  00A9               	movwf	init_i2c@baud+3
  6535     0804  3000               	movlw	0
  6536     0805  00A8               	movwf	init_i2c@baud+2
  6537     0806  3027               	movlw	39
  6538     0807  00A7               	movwf	init_i2c@baud+1
  6539     0808  3010               	movlw	16
  6540     0809  00A6               	movwf	init_i2c@baud
  6541     080A  160A  118A  22E4  120A  158A  	fcall	_init_i2c
  6542                           
  6543                           ;main.c: 50:             delay++;
  6544     080F  160A  158A  2752  120A  158A  	fcall	_init_ds1307
  6545     0814                     l4498:
  6546                           
  6547                           ;main.c: 52:         else
  6548     0814  160A  158A  26CC  120A  158A  	fcall	_init_adc
  6549     0819                     l4500:
  6550                           
  6551                           ;main.c: 54:             pressed_key = stored;
  6552     0819  160A  158A  270E  120A  158A  	fcall	_init_clcd
  6553     081E                     l4502:
  6554                           
  6555                           ;main.c: 56: 
  6556     081E  160A  158A  26C6  120A  158A  	fcall	_init_digital_keypad
  6557     0823                     l4504:
  6558                           
  6559                           ;main.c: 58:         for(int i=0; i<3000; i++);
  6560     0823  3000               	movlw	0
  6561     0824  1283               	bcf	3,5	;RP0=0, select bank0
  6562     0825  1303               	bcf	3,6	;RP1=0, select bank0
  6563     0826  00A9               	movwf	init_uart@baud+3
  6564     0827  3000               	movlw	0
  6565     0828  00A8               	movwf	init_uart@baud+2
  6566     0829  3025               	movlw	37
  6567     082A  00A7               	movwf	init_uart@baud+1
  6568     082B  3080               	movlw	128
  6569     082C  00A6               	movwf	init_uart@baud
  6570     082D  160A  118A  2316  120A  158A  	fcall	_init_uart
  6571                           
  6572                           ;main.c: 60:         if(key == 0x3F)
  6573     0832  160A  158A  2726  120A  158A  	fcall	_init_timer2
  6574     0837                     l4506:
  6575                           
  6576                           ;main.c: 62:             if(pressed_key == 0x3E)
  6577     0837  170B               	bsf	11,6	;volatile
  6578     0838                     l4508:
  6579                           
  6580                           ;main.c: 64: 
  6581     0838  178B               	bsf	11,7	;volatile
  6582     0839                     l57:
  6583     0839  0008               	return
  6584     083A                     __end_of_init_config:
  6585                           
  6586                           	psect	text13
  6587     1316                     __ptext13:	
  6588 ;; *************** function _init_uart *****************
  6589 ;; Defined at:
  6590 ;;		line 4 in file "uart.c"
  6591 ;; Parameters:    Size  Location     Type
  6592 ;;  baud            4    6[BANK0 ] unsigned long 
  6593 ;; Auto vars:     Size  Location     Type
  6594 ;;		None
  6595 ;; Return value:  Size  Location     Type
  6596 ;;                  1    wreg      void 
  6597 ;; Registers used:
  6598 ;;		wreg, status,2, status,0, pclath, cstack
  6599 ;; Tracked objects:
  6600 ;;		On entry : 0/0
  6601 ;;		On exit  : 0/0
  6602 ;;		Unchanged: 0/0
  6603 ;; Data sizes:     COMMON   BANK0   BANK1   BANK3   BANK2
  6604 ;;      Params:         0       4       0       0       0
  6605 ;;      Locals:         0       0       0       0       0
  6606 ;;      Temps:          0       4       0       0       0
  6607 ;;      Totals:         0       8       0       0       0
  6608 ;;Total ram usage:        8 bytes
  6609 ;; Hardware stack levels used: 1
  6610 ;; Hardware stack levels required when called: 2
  6611 ;; This function calls:
  6612 ;;		___lldiv
  6613 ;; This function is called by:
  6614 ;;		_init_config
  6615 ;; This function uses a non-reentrant model
  6616 ;;
  6617                           
  6618     1316                     _init_uart:	
  6619                           ;psect for function _init_uart
  6620                           
  6621     1316                     l4366:	
  6622                           ;incstack = 0
  6623                           ; Regs used in _init_uart: [wreg+status,2+status,0+pclath+cstack]
  6624                           
  6625                           
  6626                           ;uart.c: 4: void init_uart(unsigned long baud);uart.c: 5: {;uart.c: 7:     SPEN = 1;
  6627     1316  1283               	bcf	3,5	;RP0=0, select bank0
  6628     1317  1303               	bcf	3,6	;RP1=0, select bank0
  6629     1318  1798               	bsf	24,7	;volatile
  6630                           
  6631                           ;uart.c: 10:     CREN = 1;
  6632     1319  1618               	bsf	24,4	;volatile
  6633                           
  6634                           ;uart.c: 11:     BRGH = 1;
  6635     131A  1683               	bsf	3,5	;RP0=1, select bank1
  6636     131B  1303               	bcf	3,6	;RP1=0, select bank1
  6637     131C  1518               	bsf	24,2	;volatile
  6638     131D                     l4368:
  6639                           
  6640                           ;uart.c: 13:     SPBRG = (20000000 / (16 * baud)) - 1;
  6641     131D  1283               	bcf	3,5	;RP0=0, select bank0
  6642     131E  1303               	bcf	3,6	;RP1=0, select bank0
  6643     131F  0826               	movf	init_uart@baud,w
  6644     1320  00AA               	movwf	??_init_uart
  6645     1321  0827               	movf	init_uart@baud+1,w
  6646     1322  00AB               	movwf	??_init_uart+1
  6647     1323  0828               	movf	init_uart@baud+2,w
  6648     1324  00AC               	movwf	??_init_uart+2
  6649     1325  0829               	movf	init_uart@baud+3,w
  6650     1326  00AD               	movwf	??_init_uart+3
  6651     1327  3004               	movlw	4
  6652     1328                     u4735:
  6653     1328  1003               	clrc
  6654     1329  0DAA               	rlf	??_init_uart,f
  6655     132A  0DAB               	rlf	??_init_uart+1,f
  6656     132B  0DAC               	rlf	??_init_uart+2,f
  6657     132C  0DAD               	rlf	??_init_uart+3,f
  6658     132D                     u4730:
  6659     132D  3EFF               	addlw	-1
  6660     132E  1D03               	skipz
  6661     132F  2B28               	goto	u4735
  6662     1330  082D               	movf	??_init_uart+3,w
  6663     1331  00F5               	movwf	___lldiv@divisor+3
  6664     1332  082C               	movf	??_init_uart+2,w
  6665     1333  00F4               	movwf	___lldiv@divisor+2
  6666     1334  082B               	movf	??_init_uart+1,w
  6667     1335  00F3               	movwf	___lldiv@divisor+1
  6668     1336  082A               	movf	??_init_uart,w
  6669     1337  00F2               	movwf	___lldiv@divisor
  6670     1338  3001               	movlw	1
  6671     1339  00F9               	movwf	___lldiv@dividend+3
  6672     133A  3031               	movlw	49
  6673     133B  00F8               	movwf	___lldiv@dividend+2
  6674     133C  302D               	movlw	45
  6675     133D  00F7               	movwf	___lldiv@dividend+1
  6676     133E  3000               	movlw	0
  6677     133F  00F6               	movwf	___lldiv@dividend
  6678     1340  160A  118A  2724  160A  118A  	fcall	___lldiv
  6679     1345  0872               	movf	?___lldiv,w
  6680     1346  3EFF               	addlw	255
  6681     1347  1683               	bsf	3,5	;RP0=1, select bank1
  6682     1348  1303               	bcf	3,6	;RP1=0, select bank1
  6683     1349  0099               	movwf	25	;volatile
  6684     134A                     l549:
  6685     134A  0008               	return
  6686     134B                     __end_of_init_uart:
  6687                           
  6688                           	psect	text14
  6689     1F26                     __ptext14:	
  6690 ;; *************** function _init_timer2 *****************
  6691 ;; Defined at:
  6692 ;;		line 17 in file "timers.c"
  6693 ;; Parameters:    Size  Location     Type
  6694 ;;		None
  6695 ;; Auto vars:     Size  Location     Type
  6696 ;;		None
  6697 ;; Return value:  Size  Location     Type
  6698 ;;                  1    wreg      void 
  6699 ;; Registers used:
  6700 ;;		None
  6701 ;; Tracked objects:
  6702 ;;		On entry : 0/0
  6703 ;;		On exit  : 0/0
  6704 ;;		Unchanged: 0/0
  6705 ;; Data sizes:     COMMON   BANK0   BANK1   BANK3   BANK2
  6706 ;;      Params:         0       0       0       0       0
  6707 ;;      Locals:         0       0       0       0       0
  6708 ;;      Temps:          0       0       0       0       0
  6709 ;;      Totals:         0       0       0       0       0
  6710 ;;Total ram usage:        0 bytes
  6711 ;; Hardware stack levels used: 1
  6712 ;; Hardware stack levels required when called: 1
  6713 ;; This function calls:
  6714 ;;		Nothing
  6715 ;; This function is called by:
  6716 ;;		_init_config
  6717 ;; This function uses a non-reentrant model
  6718 ;;
  6719                           
  6720     1F26                     _init_timer2:	
  6721                           ;psect for function _init_timer2
  6722                           
  6723     1F26                     l4370:	
  6724                           ;incstack = 0
  6725                           ; Regs used in _init_timer2: []
  6726                           
  6727                           
  6728                           ;timers.c: 20:     T2CKPS0 = 1;
  6729     1F26  1283               	bcf	3,5	;RP0=0, select bank0
  6730     1F27  1303               	bcf	3,6	;RP1=0, select bank0
  6731     1F28  1412               	bsf	18,0	;volatile
  6732                           
  6733                           ;timers.c: 21:     T2CKPS1 = 1;
  6734     1F29  1492               	bsf	18,1	;volatile
  6735                           
  6736                           ;timers.c: 24:     PR2 = 250;
  6737     1F2A  30FA               	movlw	250
  6738     1F2B  1683               	bsf	3,5	;RP0=1, select bank1
  6739     1F2C  1303               	bcf	3,6	;RP1=0, select bank1
  6740     1F2D  0092               	movwf	18	;volatile
  6741                           
  6742                           ;timers.c: 27:     TMR2IE = 1;
  6743     1F2E  148C               	bsf	12,1	;volatile
  6744                           
  6745                           ;timers.c: 30:     TMR2ON = 0;
  6746     1F2F  1283               	bcf	3,5	;RP0=0, select bank0
  6747     1F30  1303               	bcf	3,6	;RP1=0, select bank0
  6748     1F31  1112               	bcf	18,2	;volatile
  6749     1F32                     l517:
  6750     1F32  0008               	return
  6751     1F33                     __end_of_init_timer2:
  6752                           
  6753                           	psect	text15
  6754     12E4                     __ptext15:	
  6755 ;; *************** function _init_i2c *****************
  6756 ;; Defined at:
  6757 ;;		line 4 in file "i2c.c"
  6758 ;; Parameters:    Size  Location     Type
  6759 ;;  baud            4    6[BANK0 ] unsigned long 
  6760 ;; Auto vars:     Size  Location     Type
  6761 ;;		None
  6762 ;; Return value:  Size  Location     Type
  6763 ;;                  1    wreg      void 
  6764 ;; Registers used:
  6765 ;;		wreg, status,2, status,0, pclath, cstack
  6766 ;; Tracked objects:
  6767 ;;		On entry : 0/0
  6768 ;;		On exit  : 0/0
  6769 ;;		Unchanged: 0/0
  6770 ;; Data sizes:     COMMON   BANK0   BANK1   BANK3   BANK2
  6771 ;;      Params:         0       4       0       0       0
  6772 ;;      Locals:         0       0       0       0       0
  6773 ;;      Temps:          0       4       0       0       0
  6774 ;;      Totals:         0       8       0       0       0
  6775 ;;Total ram usage:        8 bytes
  6776 ;; Hardware stack levels used: 1
  6777 ;; Hardware stack levels required when called: 2
  6778 ;; This function calls:
  6779 ;;		___lldiv
  6780 ;; This function is called by:
  6781 ;;		_init_config
  6782 ;; This function uses a non-reentrant model
  6783 ;;
  6784                           
  6785     12E4                     _init_i2c:	
  6786                           ;psect for function _init_i2c
  6787                           
  6788     12E4                     l4342:	
  6789                           ;incstack = 0
  6790                           ; Regs used in _init_i2c: [wreg+status,2+status,0+pclath+cstack]
  6791                           
  6792                           
  6793                           ;i2c.c: 4: void init_i2c(unsigned long baud);i2c.c: 5: {;i2c.c: 7:     SSPM3 = 1;
  6794     12E4  1283               	bcf	3,5	;RP0=0, select bank0
  6795     12E5  1303               	bcf	3,6	;RP1=0, select bank0
  6796     12E6  1594               	bsf	20,3	;volatile
  6797     12E7                     l4344:
  6798                           
  6799                           ;i2c.c: 10:     SSPADD = (unsigned char)(20000000 / (4 * baud)) - 1;
  6800     12E7  0826               	movf	init_i2c@baud,w
  6801     12E8  00AA               	movwf	??_init_i2c
  6802     12E9  0827               	movf	init_i2c@baud+1,w
  6803     12EA  00AB               	movwf	??_init_i2c+1
  6804     12EB  0828               	movf	init_i2c@baud+2,w
  6805     12EC  00AC               	movwf	??_init_i2c+2
  6806     12ED  0829               	movf	init_i2c@baud+3,w
  6807     12EE  00AD               	movwf	??_init_i2c+3
  6808     12EF  3002               	movlw	2
  6809     12F0                     u4725:
  6810     12F0  1003               	clrc
  6811     12F1  0DAA               	rlf	??_init_i2c,f
  6812     12F2  0DAB               	rlf	??_init_i2c+1,f
  6813     12F3  0DAC               	rlf	??_init_i2c+2,f
  6814     12F4  0DAD               	rlf	??_init_i2c+3,f
  6815     12F5                     u4720:
  6816     12F5  3EFF               	addlw	-1
  6817     12F6  1D03               	skipz
  6818     12F7  2AF0               	goto	u4725
  6819     12F8  082D               	movf	??_init_i2c+3,w
  6820     12F9  00F5               	movwf	___lldiv@divisor+3
  6821     12FA  082C               	movf	??_init_i2c+2,w
  6822     12FB  00F4               	movwf	___lldiv@divisor+2
  6823     12FC  082B               	movf	??_init_i2c+1,w
  6824     12FD  00F3               	movwf	___lldiv@divisor+1
  6825     12FE  082A               	movf	??_init_i2c,w
  6826     12FF  00F2               	movwf	___lldiv@divisor
  6827     1300  3001               	movlw	1
  6828     1301  00F9               	movwf	___lldiv@dividend+3
  6829     1302  3031               	movlw	49
  6830     1303  00F8               	movwf	___lldiv@dividend+2
  6831     1304  302D               	movlw	45
  6832     1305  00F7               	movwf	___lldiv@dividend+1
  6833     1306  3000               	movlw	0
  6834     1307  00F6               	movwf	___lldiv@dividend
  6835     1308  160A  118A  2724  160A  118A  	fcall	___lldiv
  6836     130D  0872               	movf	?___lldiv,w
  6837     130E  3EFF               	addlw	255
  6838     130F  1683               	bsf	3,5	;RP0=1, select bank1
  6839     1310  1303               	bcf	3,6	;RP1=0, select bank1
  6840     1311  0093               	movwf	19	;volatile
  6841     1312                     l4346:
  6842                           
  6843                           ;i2c.c: 13:     SSPEN = 1;
  6844     1312  1283               	bcf	3,5	;RP0=0, select bank0
  6845     1313  1303               	bcf	3,6	;RP1=0, select bank0
  6846     1314  1694               	bsf	20,5	;volatile
  6847     1315                     l209:
  6848     1315  0008               	return
  6849     1316                     __end_of_init_i2c:
  6850                           
  6851                           	psect	text16
  6852     1724                     __ptext16:	
  6853 ;; *************** function ___lldiv *****************
  6854 ;; Defined at:
  6855 ;;		line 5 in file "C:\Program Files\Microchip\xc8\v3.00\pic\sources\c99\common\__lldiv.c"
  6856 ;; Parameters:    Size  Location     Type
  6857 ;;  divisor         4    2[COMMON] unsigned long 
  6858 ;;  dividend        4    6[COMMON] unsigned long 
  6859 ;; Auto vars:     Size  Location     Type
  6860 ;;  quotient        4    1[BANK0 ] unsigned long 
  6861 ;;  counter         1    5[BANK0 ] unsigned char 
  6862 ;; Return value:  Size  Location     Type
  6863 ;;                  4    2[COMMON] unsigned long 
  6864 ;; Registers used:
  6865 ;;		wreg, status,2, status,0
  6866 ;; Tracked objects:
  6867 ;;		On entry : 0/0
  6868 ;;		On exit  : 0/0
  6869 ;;		Unchanged: 0/0
  6870 ;; Data sizes:     COMMON   BANK0   BANK1   BANK3   BANK2
  6871 ;;      Params:         8       0       0       0       0
  6872 ;;      Locals:         0       5       0       0       0
  6873 ;;      Temps:          0       1       0       0       0
  6874 ;;      Totals:         8       6       0       0       0
  6875 ;;Total ram usage:       14 bytes
  6876 ;; Hardware stack levels used: 1
  6877 ;; Hardware stack levels required when called: 1
  6878 ;; This function calls:
  6879 ;;		Nothing
  6880 ;; This function is called by:
  6881 ;;		_init_i2c
  6882 ;;		_init_uart
  6883 ;; This function uses a non-reentrant model
  6884 ;;
  6885                           
  6886     1724                     ___lldiv:	
  6887                           ;psect for function ___lldiv
  6888                           
  6889     1724                     l4236:	
  6890                           ;incstack = 0
  6891                           ; Regs used in ___lldiv: [wreg+status,2+status,0]
  6892                           
  6893     1724  3000               	movlw	0
  6894     1725  1283               	bcf	3,5	;RP0=0, select bank0
  6895     1726  1303               	bcf	3,6	;RP1=0, select bank0
  6896     1727  00A4               	movwf	___lldiv@quotient+3
  6897     1728  3000               	movlw	0
  6898     1729  00A3               	movwf	___lldiv@quotient+2
  6899     172A  3000               	movlw	0
  6900     172B  00A2               	movwf	___lldiv@quotient+1
  6901     172C  3000               	movlw	0
  6902     172D  00A1               	movwf	___lldiv@quotient
  6903     172E  0875               	movf	___lldiv@divisor+3,w
  6904     172F  0474               	iorwf	___lldiv@divisor+2,w
  6905     1730  0473               	iorwf	___lldiv@divisor+1,w
  6906     1731  0472               	iorwf	___lldiv@divisor,w
  6907     1732  1903               	skipnz
  6908     1733  2F35               	goto	u4461
  6909     1734  2F36               	goto	u4460
  6910     1735                     u4461:
  6911     1735  2F81               	goto	l4256
  6912     1736                     u4460:
  6913     1736                     l4238:
  6914     1736  3001               	movlw	1
  6915     1737  00A5               	movwf	___lldiv@counter
  6916     1738  2F44               	goto	l4242
  6917     1739                     l4240:
  6918     1739  3001               	movlw	1
  6919     173A  00A0               	movwf	??___lldiv
  6920     173B                     u4475:
  6921     173B  1003               	clrc
  6922     173C  0DF2               	rlf	___lldiv@divisor,f
  6923     173D  0DF3               	rlf	___lldiv@divisor+1,f
  6924     173E  0DF4               	rlf	___lldiv@divisor+2,f
  6925     173F  0DF5               	rlf	___lldiv@divisor+3,f
  6926     1740  0BA0               	decfsz	??___lldiv,f
  6927     1741  2F3B               	goto	u4475
  6928     1742  3001               	movlw	1
  6929     1743  07A5               	addwf	___lldiv@counter,f
  6930     1744                     l4242:
  6931     1744  1FF5               	btfss	___lldiv@divisor+3,7
  6932     1745  2F47               	goto	u4481
  6933     1746  2F48               	goto	u4480
  6934     1747                     u4481:
  6935     1747  2F39               	goto	l4240
  6936     1748                     u4480:
  6937     1748                     l4244:
  6938     1748  3001               	movlw	1
  6939     1749  00A0               	movwf	??___lldiv
  6940     174A                     u4495:
  6941     174A  1003               	clrc
  6942     174B  0DA1               	rlf	___lldiv@quotient,f
  6943     174C  0DA2               	rlf	___lldiv@quotient+1,f
  6944     174D  0DA3               	rlf	___lldiv@quotient+2,f
  6945     174E  0DA4               	rlf	___lldiv@quotient+3,f
  6946     174F  0BA0               	decfsz	??___lldiv,f
  6947     1750  2F4A               	goto	u4495
  6948     1751                     l4246:
  6949     1751  0875               	movf	___lldiv@divisor+3,w
  6950     1752  0279               	subwf	___lldiv@dividend+3,w
  6951     1753  1D03               	skipz
  6952     1754  2F5F               	goto	u4505
  6953     1755  0874               	movf	___lldiv@divisor+2,w
  6954     1756  0278               	subwf	___lldiv@dividend+2,w
  6955     1757  1D03               	skipz
  6956     1758  2F5F               	goto	u4505
  6957     1759  0873               	movf	___lldiv@divisor+1,w
  6958     175A  0277               	subwf	___lldiv@dividend+1,w
  6959     175B  1D03               	skipz
  6960     175C  2F5F               	goto	u4505
  6961     175D  0872               	movf	___lldiv@divisor,w
  6962     175E  0276               	subwf	___lldiv@dividend,w
  6963     175F                     u4505:
  6964     175F  1C03               	skipc
  6965     1760  2F62               	goto	u4501
  6966     1761  2F63               	goto	u4500
  6967     1762                     u4501:
  6968     1762  2F72               	goto	l4252
  6969     1763                     u4500:
  6970     1763                     l4248:
  6971     1763  0872               	movf	___lldiv@divisor,w
  6972     1764  02F6               	subwf	___lldiv@dividend,f
  6973     1765  0873               	movf	___lldiv@divisor+1,w
  6974     1766  1C03               	skipc
  6975     1767  0F73               	incfsz	___lldiv@divisor+1,w
  6976     1768  02F7               	subwf	___lldiv@dividend+1,f
  6977     1769  0874               	movf	___lldiv@divisor+2,w
  6978     176A  1C03               	skipc
  6979     176B  0F74               	incfsz	___lldiv@divisor+2,w
  6980     176C  02F8               	subwf	___lldiv@dividend+2,f
  6981     176D  0875               	movf	___lldiv@divisor+3,w
  6982     176E  1C03               	skipc
  6983     176F  0F75               	incfsz	___lldiv@divisor+3,w
  6984     1770  02F9               	subwf	___lldiv@dividend+3,f
  6985     1771                     l4250:
  6986     1771  1421               	bsf	___lldiv@quotient,0
  6987     1772                     l4252:
  6988     1772  3001               	movlw	1
  6989     1773                     u4515:
  6990     1773  1003               	clrc
  6991     1774  0CF5               	rrf	___lldiv@divisor+3,f
  6992     1775  0CF4               	rrf	___lldiv@divisor+2,f
  6993     1776  0CF3               	rrf	___lldiv@divisor+1,f
  6994     1777  0CF2               	rrf	___lldiv@divisor,f
  6995     1778  3EFF               	addlw	-1
  6996     1779  1D03               	skipz
  6997     177A  2F73               	goto	u4515
  6998     177B                     l4254:
  6999     177B  3001               	movlw	1
  7000     177C  02A5               	subwf	___lldiv@counter,f
  7001     177D  1D03               	btfss	3,2
  7002     177E  2F80               	goto	u4521
  7003     177F  2F81               	goto	u4520
  7004     1780                     u4521:
  7005     1780  2F48               	goto	l4244
  7006     1781                     u4520:
  7007     1781                     l4256:
  7008     1781  0824               	movf	___lldiv@quotient+3,w
  7009     1782  00F5               	movwf	?___lldiv+3
  7010     1783  0823               	movf	___lldiv@quotient+2,w
  7011     1784  00F4               	movwf	?___lldiv+2
  7012     1785  0822               	movf	___lldiv@quotient+1,w
  7013     1786  00F3               	movwf	?___lldiv+1
  7014     1787  0821               	movf	___lldiv@quotient,w
  7015     1788  00F2               	movwf	?___lldiv
  7016     1789                     l683:
  7017     1789  0008               	return
  7018     178A                     __end_of___lldiv:
  7019                           
  7020                           	psect	text17
  7021     1F52                     __ptext17:	
  7022 ;; *************** function _init_ds1307 *****************
  7023 ;; Defined at:
  7024 ;;		line 5 in file "ds1307.c"
  7025 ;; Parameters:    Size  Location     Type
  7026 ;;		None
  7027 ;; Auto vars:     Size  Location     Type
  7028 ;;  dummy           1    6[COMMON] unsigned char 
  7029 ;; Return value:  Size  Location     Type
  7030 ;;                  1    wreg      void 
  7031 ;; Registers used:
  7032 ;;		wreg, status,2, status,0, pclath, cstack
  7033 ;; Tracked objects:
  7034 ;;		On entry : 0/0
  7035 ;;		On exit  : 0/0
  7036 ;;		Unchanged: 0/0
  7037 ;; Data sizes:     COMMON   BANK0   BANK1   BANK3   BANK2
  7038 ;;      Params:         0       0       0       0       0
  7039 ;;      Locals:         1       0       0       0       0
  7040 ;;      Temps:          0       0       0       0       0
  7041 ;;      Totals:         1       0       0       0       0
  7042 ;;Total ram usage:        1 bytes
  7043 ;; Hardware stack levels used: 1
  7044 ;; Hardware stack levels required when called: 5
  7045 ;; This function calls:
  7046 ;;		_read_ds1307
  7047 ;;		_write_ds1307
  7048 ;; This function is called by:
  7049 ;;		_init_config
  7050 ;; This function uses a non-reentrant model
  7051 ;;
  7052                           
  7053     1F52                     _init_ds1307:	
  7054                           ;psect for function _init_ds1307
  7055                           
  7056     1F52                     l4348:	
  7057                           ;incstack = 0
  7058                           ; Regs used in _init_ds1307: [wreg+status,2+status,0+pclath+cstack]
  7059                           
  7060                           
  7061                           ;ds1307.c: 7:     unsigned char dummy;;ds1307.c: 9:     dummy = read_ds1307(0x00);
  7062     1F52  3000               	movlw	0
  7063     1F53  160A  118A  21FF  160A  158A  	fcall	_read_ds1307
  7064     1F58  00F6               	movwf	init_ds1307@dummy
  7065     1F59                     l4350:
  7066                           
  7067                           ;ds1307.c: 10:     dummy = dummy & 0x7F;
  7068     1F59  307F               	movlw	127
  7069     1F5A  05F6               	andwf	init_ds1307@dummy,f
  7070     1F5B                     l4352:
  7071                           
  7072                           ;ds1307.c: 11:     write_ds1307(0x00, dummy);
  7073     1F5B  0876               	movf	init_ds1307@dummy,w
  7074     1F5C  00F3               	movwf	write_ds1307@data
  7075     1F5D  3000               	movlw	0
  7076     1F5E  160A  158A  27E2  160A  158A  	fcall	_write_ds1307
  7077     1F63                     l249:
  7078     1F63  0008               	return
  7079     1F64                     __end_of_init_ds1307:
  7080                           
  7081                           	psect	text18
  7082     1FE2                     __ptext18:	
  7083 ;; *************** function _write_ds1307 *****************
  7084 ;; Defined at:
  7085 ;;		line 29 in file "ds1307.c"
  7086 ;; Parameters:    Size  Location     Type
  7087 ;;  addr            1    wreg     unsigned char 
  7088 ;;  data            1    3[COMMON] unsigned char 
  7089 ;; Auto vars:     Size  Location     Type
  7090 ;;  addr            1    4[COMMON] unsigned char 
  7091 ;; Return value:  Size  Location     Type
  7092 ;;                  1    wreg      void 
  7093 ;; Registers used:
  7094 ;;		wreg, status,2, status,0, pclath, cstack
  7095 ;; Tracked objects:
  7096 ;;		On entry : 0/0
  7097 ;;		On exit  : 0/0
  7098 ;;		Unchanged: 0/0
  7099 ;; Data sizes:     COMMON   BANK0   BANK1   BANK3   BANK2
  7100 ;;      Params:         1       0       0       0       0
  7101 ;;      Locals:         1       0       0       0       0
  7102 ;;      Temps:          0       0       0       0       0
  7103 ;;      Totals:         2       0       0       0       0
  7104 ;;Total ram usage:        2 bytes
  7105 ;; Hardware stack levels used: 1
  7106 ;; Hardware stack levels required when called: 3
  7107 ;; This function calls:
  7108 ;;		_i2c_start
  7109 ;;		_i2c_stop
  7110 ;;		_i2c_write
  7111 ;; This function is called by:
  7112 ;;		_init_ds1307
  7113 ;;		_save_time
  7114 ;; This function uses a non-reentrant model
  7115 ;;
  7116                           
  7117     1FE2                     _write_ds1307:	
  7118                           ;psect for function _write_ds1307
  7119                           
  7120                           
  7121                           ;incstack = 0
  7122                           ; Regs used in _write_ds1307: [wreg+status,2+status,0+pclath+cstack]
  7123                           ;write_ds1307@addr stored from wreg
  7124     1FE2  00F4               	movwf	write_ds1307@addr
  7125     1FE3                     l4196:
  7126                           
  7127                           ;ds1307.c: 29: void write_ds1307(unsigned char addr, unsigned char data);ds1307.c: 30: {
      +                          ;ds1307.c: 31:     i2c_start();
  7128     1FE3  160A  158A  26DB  160A  158A  	fcall	_i2c_start
  7129                           
  7130                           ;ds1307.c: 32:     i2c_write(0b11010000);
  7131     1FE8  30D0               	movlw	208
  7132     1FE9  160A  158A  26ED  160A  158A  	fcall	_i2c_write
  7133                           
  7134                           ;ds1307.c: 33:     i2c_write(addr);
  7135     1FEE  0874               	movf	write_ds1307@addr,w
  7136     1FEF  160A  158A  26ED  160A  158A  	fcall	_i2c_write
  7137                           
  7138                           ;ds1307.c: 34:     i2c_write(data);
  7139     1FF4  0873               	movf	write_ds1307@data,w
  7140     1FF5  160A  158A  26ED  160A  158A  	fcall	_i2c_write
  7141                           
  7142                           ;ds1307.c: 35:     i2c_stop();
  7143     1FFA  160A  158A  26E4  160A  158A  	fcall	_i2c_stop
  7144     1FFF                     l255:
  7145     1FFF  0008               	return
  7146     2000                     __end_of_write_ds1307:
  7147                           
  7148                           	psect	text19
  7149     1EC6                     __ptext19:	
  7150 ;; *************** function _init_digital_keypad *****************
  7151 ;; Defined at:
  7152 ;;		line 4 in file "digital_keypad.c"
  7153 ;; Parameters:    Size  Location     Type
  7154 ;;		None
  7155 ;; Auto vars:     Size  Location     Type
  7156 ;;		None
  7157 ;; Return value:  Size  Location     Type
  7158 ;;                  1    wreg      void 
  7159 ;; Registers used:
  7160 ;;		wreg, status,2
  7161 ;; Tracked objects:
  7162 ;;		On entry : 0/0
  7163 ;;		On exit  : 0/0
  7164 ;;		Unchanged: 0/0
  7165 ;; Data sizes:     COMMON   BANK0   BANK1   BANK3   BANK2
  7166 ;;      Params:         0       0       0       0       0
  7167 ;;      Locals:         0       0       0       0       0
  7168 ;;      Temps:          0       0       0       0       0
  7169 ;;      Totals:         0       0       0       0       0
  7170 ;;Total ram usage:        0 bytes
  7171 ;; Hardware stack levels used: 1
  7172 ;; Hardware stack levels required when called: 1
  7173 ;; This function calls:
  7174 ;;		Nothing
  7175 ;; This function is called by:
  7176 ;;		_init_config
  7177 ;; This function uses a non-reentrant model
  7178 ;;
  7179                           
  7180     1EC6                     _init_digital_keypad:	
  7181                           ;psect for function _init_digital_keypad
  7182                           
  7183     1EC6                     l4364:	
  7184                           ;incstack = 0
  7185                           ; Regs used in _init_digital_keypad: [wreg+status,2]
  7186                           
  7187                           
  7188                           ;digital_keypad.c: 7:     TRISB = TRISB | 0x3F;
  7189     1EC6  1683               	bsf	3,5	;RP0=1, select bank1
  7190     1EC7  1303               	bcf	3,6	;RP1=0, select bank1
  7191     1EC8  0806               	movf	6,w	;volatile
  7192     1EC9  383F               	iorlw	63
  7193     1ECA  0086               	movwf	6	;volatile
  7194     1ECB                     l262:
  7195     1ECB  0008               	return
  7196     1ECC                     __end_of_init_digital_keypad:
  7197                           
  7198                           	psect	text20
  7199     1F0E                     __ptext20:	
  7200 ;; *************** function _init_clcd *****************
  7201 ;; Defined at:
  7202 ;;		line 44 in file "clcd.c"
  7203 ;; Parameters:    Size  Location     Type
  7204 ;;		None
  7205 ;; Auto vars:     Size  Location     Type
  7206 ;;		None
  7207 ;; Return value:  Size  Location     Type
  7208 ;;                  1    wreg      void 
  7209 ;; Registers used:
  7210 ;;		wreg, status,2, status,0, pclath, cstack
  7211 ;; Tracked objects:
  7212 ;;		On entry : 0/0
  7213 ;;		On exit  : 0/0
  7214 ;;		Unchanged: 0/0
  7215 ;; Data sizes:     COMMON   BANK0   BANK1   BANK3   BANK2
  7216 ;;      Params:         0       0       0       0       0
  7217 ;;      Locals:         0       0       0       0       0
  7218 ;;      Temps:          0       0       0       0       0
  7219 ;;      Totals:         0       0       0       0       0
  7220 ;;Total ram usage:        0 bytes
  7221 ;; Hardware stack levels used: 1
  7222 ;; Hardware stack levels required when called: 3
  7223 ;; This function calls:
  7224 ;;		_init_display_controller
  7225 ;; This function is called by:
  7226 ;;		_init_config
  7227 ;; This function uses a non-reentrant model
  7228 ;;
  7229                           
  7230     1F0E                     _init_clcd:	
  7231                           ;psect for function _init_clcd
  7232                           
  7233     1F0E                     l4356:	
  7234                           ;incstack = 0
  7235                           ; Regs used in _init_clcd: [wreg+status,2+status,0+pclath+cstack]
  7236                           
  7237                           
  7238                           ;clcd.c: 47:     TRISD = 0x00;
  7239     1F0E  1683               	bsf	3,5	;RP0=1, select bank1
  7240     1F0F  1303               	bcf	3,6	;RP1=0, select bank1
  7241     1F10  0188               	clrf	8	;volatile
  7242     1F11                     l4358:
  7243                           
  7244                           ;clcd.c: 50:     TRISE2 = 0;
  7245     1F11  1109               	bcf	9,2	;volatile
  7246     1F12                     l4360:
  7247                           
  7248                           ;clcd.c: 51:     TRISE1 = 0;
  7249     1F12  1089               	bcf	9,1	;volatile
  7250     1F13                     l4362:
  7251                           
  7252                           ;clcd.c: 53:     init_display_controller();
  7253     1F13  160A  118A  26C1  160A  158A  	fcall	_init_display_controller
  7254     1F18                     l150:
  7255     1F18  0008               	return
  7256     1F19                     __end_of_init_clcd:
  7257                           
  7258                           	psect	text21
  7259     16C1                     __ptext21:	
  7260 ;; *************** function _init_display_controller *****************
  7261 ;; Defined at:
  7262 ;;		line 21 in file "clcd.c"
  7263 ;; Parameters:    Size  Location     Type
  7264 ;;		None
  7265 ;; Auto vars:     Size  Location     Type
  7266 ;;		None
  7267 ;; Return value:  Size  Location     Type
  7268 ;;                  1    wreg      void 
  7269 ;; Registers used:
  7270 ;;		wreg, status,2, status,0, pclath, cstack
  7271 ;; Tracked objects:
  7272 ;;		On entry : 0/0
  7273 ;;		On exit  : 0/0
  7274 ;;		Unchanged: 0/0
  7275 ;; Data sizes:     COMMON   BANK0   BANK1   BANK3   BANK2
  7276 ;;      Params:         0       0       0       0       0
  7277 ;;      Locals:         0       0       0       0       0
  7278 ;;      Temps:          2       0       0       0       0
  7279 ;;      Totals:         2       0       0       0       0
  7280 ;;Total ram usage:        2 bytes
  7281 ;; Hardware stack levels used: 1
  7282 ;; Hardware stack levels required when called: 2
  7283 ;; This function calls:
  7284 ;;		_clcd_write
  7285 ;; This function is called by:
  7286 ;;		_init_clcd
  7287 ;; This function uses a non-reentrant model
  7288 ;;
  7289                           
  7290     16C1                     _init_display_controller:	
  7291                           ;psect for function _init_display_controller
  7292                           
  7293     16C1                     l4170:	
  7294                           ;incstack = 0
  7295                           ; Regs used in _init_display_controller: [wreg+status,2+status,0+pclath+cstack]
  7296                           
  7297                           
  7298                           ;clcd.c: 24:     _delay((unsigned long)((30)*(20000000/4000.0)));
  7299     16C1  30C3               	movlw	195
  7300     16C2  00F7               	movwf	??_init_display_controller+1
  7301     16C3  30CD               	movlw	205
  7302     16C4  00F6               	movwf	??_init_display_controller
  7303     16C5                     u7177:
  7304     16C5  0BF6               	decfsz	??_init_display_controller,f
  7305     16C6  2EC5               	goto	u7177
  7306     16C7  0BF7               	decfsz	??_init_display_controller+1,f
  7307     16C8  2EC5               	goto	u7177
  7308     16C9                     l4172:
  7309                           
  7310                           ;clcd.c: 27:     clcd_write(0x33, 0);
  7311     16C9  01F2               	clrf	clcd_write@mode
  7312     16CA  3033               	movlw	51
  7313     16CB  160A  118A  234B  160A  118A  	fcall	_clcd_write
  7314     16D0                     l4174:
  7315                           
  7316                           ;clcd.c: 28:     _delay((unsigned long)((4100)*(20000000/4000000.0)));
  7317     16D0  301B               	movlw	27
  7318     16D1  00F7               	movwf	??_init_display_controller+1
  7319     16D2  309E               	movlw	158
  7320     16D3  00F6               	movwf	??_init_display_controller
  7321     16D4                     u7187:
  7322     16D4  0BF6               	decfsz	??_init_display_controller,f
  7323     16D5  2ED4               	goto	u7187
  7324     16D6  0BF7               	decfsz	??_init_display_controller+1,f
  7325     16D7  2ED4               	goto	u7187
  7326     16D8  0000               	nop
  7327                           
  7328                           ;clcd.c: 29:     clcd_write(0x33, 0);
  7329     16D9  01F2               	clrf	clcd_write@mode
  7330     16DA  3033               	movlw	51
  7331     16DB  160A  118A  234B  160A  118A  	fcall	_clcd_write
  7332     16E0                     l4176:
  7333                           
  7334                           ;clcd.c: 30:     _delay((unsigned long)((100)*(20000000/4000000.0)));
  7335     16E0  30A6               	movlw	166
  7336     16E1  00F6               	movwf	??_init_display_controller
  7337     16E2                     u7197:
  7338     16E2  0BF6               	decfsz	??_init_display_controller,f
  7339     16E3  2EE2               	goto	u7197
  7340     16E4  0000               	nop
  7341     16E5                     l4178:
  7342                           
  7343                           ;clcd.c: 31:     clcd_write(0x33, 0);
  7344     16E5  01F2               	clrf	clcd_write@mode
  7345     16E6  3033               	movlw	51
  7346     16E7  160A  118A  234B  160A  118A  	fcall	_clcd_write
  7347     16EC                     l4180:
  7348                           
  7349                           ;clcd.c: 32:     _delay((unsigned long)((1)*(20000000/4000000.0)));
  7350     16EC  2EED               	nop2	;2 cycle nop
  7351     16ED  2EEE               	nop2	;2 cycle nop
  7352     16EE  0000               	nop
  7353     16EF                     l4182:
  7354                           
  7355                           ;clcd.c: 34:     clcd_write(0x02, 0);
  7356     16EF  01F2               	clrf	clcd_write@mode
  7357     16F0  3002               	movlw	2
  7358     16F1  160A  118A  234B  160A  118A  	fcall	_clcd_write
  7359     16F6                     l4184:
  7360                           
  7361                           ;clcd.c: 35:     _delay((unsigned long)((100)*(20000000/4000000.0)));
  7362     16F6  30A6               	movlw	166
  7363     16F7  00F6               	movwf	??_init_display_controller
  7364     16F8                     u7207:
  7365     16F8  0BF6               	decfsz	??_init_display_controller,f
  7366     16F9  2EF8               	goto	u7207
  7367     16FA  0000               	nop
  7368                           
  7369                           ;clcd.c: 36:     clcd_write(0x28, 0);
  7370     16FB  01F2               	clrf	clcd_write@mode
  7371     16FC  3028               	movlw	40
  7372     16FD  160A  118A  234B  160A  118A  	fcall	_clcd_write
  7373     1702                     l4186:
  7374                           
  7375                           ;clcd.c: 37:     _delay((unsigned long)((100)*(20000000/4000000.0)));
  7376     1702  30A6               	movlw	166
  7377     1703  00F6               	movwf	??_init_display_controller
  7378     1704                     u7217:
  7379     1704  0BF6               	decfsz	??_init_display_controller,f
  7380     1705  2F04               	goto	u7217
  7381     1706  0000               	nop
  7382     1707                     l4188:
  7383                           
  7384                           ;clcd.c: 38:     clcd_write(0x01, 0);
  7385     1707  01F2               	clrf	clcd_write@mode
  7386     1708  3001               	movlw	1
  7387     1709  160A  118A  234B  160A  118A  	fcall	_clcd_write
  7388                           
  7389                           ;clcd.c: 39:     _delay((unsigned long)((500)*(20000000/4000000.0)));
  7390     170E  3004               	movlw	4
  7391     170F  00F7               	movwf	??_init_display_controller+1
  7392     1710  303D               	movlw	61
  7393     1711  00F6               	movwf	??_init_display_controller
  7394     1712                     u7227:
  7395     1712  0BF6               	decfsz	??_init_display_controller,f
  7396     1713  2F12               	goto	u7227
  7397     1714  0BF7               	decfsz	??_init_display_controller+1,f
  7398     1715  2F12               	goto	u7227
  7399     1716  2F17               	nop2
  7400     1717                     l4190:
  7401                           
  7402                           ;clcd.c: 40:     clcd_write(0x0C, 0);
  7403     1717  01F2               	clrf	clcd_write@mode
  7404     1718  300C               	movlw	12
  7405     1719  160A  118A  234B  160A  118A  	fcall	_clcd_write
  7406     171E                     l4192:
  7407                           
  7408                           ;clcd.c: 41:     _delay((unsigned long)((100)*(20000000/4000000.0)));
  7409     171E  30A6               	movlw	166
  7410     171F  00F6               	movwf	??_init_display_controller
  7411     1720                     u7237:
  7412     1720  0BF6               	decfsz	??_init_display_controller,f
  7413     1721  2F20               	goto	u7237
  7414     1722  0000               	nop
  7415     1723                     l147:
  7416     1723  0008               	return
  7417     1724                     __end_of_init_display_controller:
  7418                           
  7419                           	psect	text22
  7420     1ECC                     __ptext22:	
  7421 ;; *************** function _init_adc *****************
  7422 ;; Defined at:
  7423 ;;		line 3 in file "adc.c"
  7424 ;; Parameters:    Size  Location     Type
  7425 ;;		None
  7426 ;; Auto vars:     Size  Location     Type
  7427 ;;		None
  7428 ;; Return value:  Size  Location     Type
  7429 ;;                  1    wreg      void 
  7430 ;; Registers used:
  7431 ;;		None
  7432 ;; Tracked objects:
  7433 ;;		On entry : 0/0
  7434 ;;		On exit  : 0/0
  7435 ;;		Unchanged: 0/0
  7436 ;; Data sizes:     COMMON   BANK0   BANK1   BANK3   BANK2
  7437 ;;      Params:         0       0       0       0       0
  7438 ;;      Locals:         0       0       0       0       0
  7439 ;;      Temps:          0       0       0       0       0
  7440 ;;      Totals:         0       0       0       0       0
  7441 ;;Total ram usage:        0 bytes
  7442 ;; Hardware stack levels used: 1
  7443 ;; Hardware stack levels required when called: 1
  7444 ;; This function calls:
  7445 ;;		Nothing
  7446 ;; This function is called by:
  7447 ;;		_init_config
  7448 ;; This function uses a non-reentrant model
  7449 ;;
  7450                           
  7451     1ECC                     _init_adc:	
  7452                           ;psect for function _init_adc
  7453                           
  7454     1ECC                     l4354:	
  7455                           ;incstack = 0
  7456                           ; Regs used in _init_adc: []
  7457                           
  7458                           
  7459                           ;adc.c: 6:     ADFM = 1;
  7460     1ECC  1683               	bsf	3,5	;RP0=1, select bank1
  7461     1ECD  1303               	bcf	3,6	;RP1=0, select bank1
  7462     1ECE  179F               	bsf	31,7	;volatile
  7463                           
  7464                           ;adc.c: 9:     ADON = 1;
  7465     1ECF  1283               	bcf	3,5	;RP0=0, select bank0
  7466     1ED0  1303               	bcf	3,6	;RP1=0, select bank0
  7467     1ED1  141F               	bsf	31,0	;volatile
  7468     1ED2                     l174:
  7469     1ED2  0008               	return
  7470     1ED3                     __end_of_init_adc:
  7471                           
  7472                           	psect	text23
  7473     08B9                     __ptext23:	
  7474 ;; *************** function _download_log *****************
  7475 ;; Defined at:
  7476 ;;		line 325 in file "car_black_box_def.c"
  7477 ;; Parameters:    Size  Location     Type
  7478 ;;		None
  7479 ;; Auto vars:     Size  Location     Type
  7480 ;;  i               2    3[BANK0 ] int 
  7481 ;; Return value:  Size  Location     Type
  7482 ;;                  1    wreg      void 
  7483 ;; Registers used:
  7484 ;;		wreg, fsr0l, fsr0h, status,2, status,0, btemp+1, pclath, cstack
  7485 ;; Tracked objects:
  7486 ;;		On entry : 0/0
  7487 ;;		On exit  : 0/0
  7488 ;;		Unchanged: 0/0
  7489 ;; Data sizes:     COMMON   BANK0   BANK1   BANK3   BANK2
  7490 ;;      Params:         0       0       0       0       0
  7491 ;;      Locals:         0       2       0       0       0
  7492 ;;      Temps:          0       3       0       0       0
  7493 ;;      Totals:         0       5       0       0       0
  7494 ;;Total ram usage:        5 bytes
  7495 ;; Hardware stack levels used: 1
  7496 ;; Hardware stack levels required when called: 6
  7497 ;; This function calls:
  7498 ;;		_clcd_print
  7499 ;;		_clear_screen
  7500 ;;		_fetch_logs
  7501 ;;		_puts
  7502 ;; This function is called by:
  7503 ;;		_main
  7504 ;; This function uses a non-reentrant model
  7505 ;;
  7506                           
  7507     08B9                     _download_log:	
  7508                           ;psect for function _download_log
  7509                           
  7510     08B9                     l4802:	
  7511                           ;incstack = 0
  7512                           ; Regs used in _download_log: [wreg-fsr0h+status,2+status,0+btemp+1+pclath+cstack]
  7513                           
  7514                           
  7515                           ;car_black_box_def.c: 327:     if(events_logged == 0 || clear_flag == 1)
  7516     08B9  1683               	bsf	3,5	;RP0=1, select bank1
  7517     08BA  1303               	bcf	3,6	;RP1=0, select bank1
  7518     08BB  0825               	movf	_events_logged^(0+128),w
  7519     08BC  0426               	iorwf	(_events_logged+1)^(0+128),w
  7520     08BD  1903               	btfsc	3,2
  7521     08BE  28C0               	goto	u5241
  7522     08BF  28C1               	goto	u5240
  7523     08C0                     u5241:
  7524     08C0  28C6               	goto	l4806
  7525     08C1                     u5240:
  7526     08C1                     l4804:
  7527     08C1  032B               	decf	_clear_flag^(0+128),w
  7528     08C2  1D03               	btfss	3,2
  7529     08C3  28C5               	goto	u5251
  7530     08C4  28C6               	goto	u5250
  7531     08C5                     u5251:
  7532     08C5  28F5               	goto	l4818
  7533     08C6                     u5250:
  7534     08C6                     l4806:
  7535                           
  7536                           ;car_black_box_def.c: 328:     {;car_black_box_def.c: 329:         clear_screen();
  7537     08C6  160A  158A  2741  120A  158A  	fcall	_clear_screen
  7538     08CB                     l4808:
  7539                           
  7540                           ;car_black_box_def.c: 330:         clcd_print("NO LOGS", (0x80 + 2));
  7541     08CB  3035               	movlw	low (STR_30| (0+32768))
  7542     08CC  00F6               	movwf	clcd_print@str
  7543     08CD  3091               	movlw	high (STR_30| (0+32768))
  7544     08CE  00F7               	movwf	clcd_print@str+1
  7545     08CF  3082               	movlw	130
  7546     08D0  00F8               	movwf	clcd_print@addr
  7547     08D1  160A  118A  2255  120A  158A  	fcall	_clcd_print
  7548     08D6                     l4810:
  7549                           
  7550                           ;car_black_box_def.c: 331:         clcd_print("FOUND", (0xC0 + 2));
  7551     08D6  3044               	movlw	low (STR_31| (0+32768))
  7552     08D7  00F6               	movwf	clcd_print@str
  7553     08D8  3091               	movlw	high (STR_31| (0+32768))
  7554     08D9  00F7               	movwf	clcd_print@str+1
  7555     08DA  30C2               	movlw	194
  7556     08DB  00F8               	movwf	clcd_print@addr
  7557     08DC  160A  118A  2255  120A  158A  	fcall	_clcd_print
  7558     08E1                     l4812:
  7559                           
  7560                           ;car_black_box_def.c: 332:         _delay((unsigned long)((2000)*(20000000/4000.0)));
  7561     08E1  3033               	movlw	51
  7562     08E2  1283               	bcf	3,5	;RP0=0, select bank0
  7563     08E3  1303               	bcf	3,6	;RP1=0, select bank0
  7564     08E4  00A2               	movwf	??_download_log+2
  7565     08E5  30BB               	movlw	187
  7566     08E6  00A1               	movwf	??_download_log+1
  7567     08E7  30DF               	movlw	223
  7568     08E8  00A0               	movwf	??_download_log
  7569     08E9                     u7247:
  7570     08E9  0BA0               	decfsz	??_download_log,f
  7571     08EA  28E9               	goto	u7247
  7572     08EB  0BA1               	decfsz	??_download_log+1,f
  7573     08EC  28E9               	goto	u7247
  7574     08ED  0BA2               	decfsz	??_download_log+2,f
  7575     08EE  28E9               	goto	u7247
  7576     08EF                     l4814:
  7577                           
  7578                           ;car_black_box_def.c: 333:         clear_screen();
  7579     08EF  160A  158A  2741  120A  158A  	fcall	_clear_screen
  7580     08F4  293B               	goto	l404
  7581     08F5                     l4818:
  7582                           
  7583                           ;car_black_box_def.c: 336:     puts("Log: \n");
  7584     08F5  303D               	movlw	low (STR_32| (0+32768))
  7585     08F6  00F3               	movwf	puts@s
  7586     08F7  3091               	movlw	high (STR_32| (0+32768))
  7587     08F8  00F4               	movwf	puts@s+1
  7588     08F9  160A  118A  21AE  120A  158A  	fcall	_puts
  7589     08FE                     l4820:
  7590                           
  7591                           ;car_black_box_def.c: 337:     for(int i=0; i<events_logged; i++)
  7592     08FE  1283               	bcf	3,5	;RP0=0, select bank0
  7593     08FF  1303               	bcf	3,6	;RP1=0, select bank0
  7594     0900  01A3               	clrf	download_log@i
  7595     0901  01A4               	clrf	download_log@i+1
  7596     0902  2925               	goto	l4830
  7597     0903                     l4822:
  7598                           
  7599                           ;car_black_box_def.c: 338:     {;car_black_box_def.c: 339:         fetch_logs(i);
  7600     0903  1283               	bcf	3,5	;RP0=0, select bank0
  7601     0904  1303               	bcf	3,6	;RP1=0, select bank0
  7602     0905  0823               	movf	download_log@i,w
  7603     0906  120A  158A  203A  120A  158A  	fcall	_fetch_logs
  7604     090B                     l4824:
  7605                           
  7606                           ;car_black_box_def.c: 340:         puts(get_log);
  7607     090B  30AE               	movlw	(low (_get_log| 0))& (0+255)
  7608     090C  00F3               	movwf	puts@s
  7609     090D  3000               	movlw	0
  7610     090E  00F4               	movwf	puts@s+1
  7611     090F  160A  118A  21AE  120A  158A  	fcall	_puts
  7612     0914                     l4826:
  7613                           
  7614                           ;car_black_box_def.c: 341:         puts("\n");
  7615     0914  3042               	movlw	low ((STR_32+5)| (0+32768))
  7616     0915  00F3               	movwf	puts@s
  7617     0916  3091               	movlw	high ((STR_32+5)| (0+32768))
  7618     0917  00F4               	movwf	puts@s+1
  7619     0918  160A  118A  21AE  120A  158A  	fcall	_puts
  7620     091D                     l4828:
  7621                           
  7622                           ;car_black_box_def.c: 342:     }
  7623     091D  3001               	movlw	1
  7624     091E  1283               	bcf	3,5	;RP0=0, select bank0
  7625     091F  1303               	bcf	3,6	;RP1=0, select bank0
  7626     0920  07A3               	addwf	download_log@i,f
  7627     0921  1803               	skipnc
  7628     0922  0AA4               	incf	download_log@i+1,f
  7629     0923  3000               	movlw	0
  7630     0924  07A4               	addwf	download_log@i+1,f
  7631     0925                     l4830:
  7632     0925  0824               	movf	download_log@i+1,w
  7633     0926  3A80               	xorlw	128
  7634     0927  00A0               	movwf	??_download_log
  7635     0928  1683               	bsf	3,5	;RP0=1, select bank1
  7636     0929  1303               	bcf	3,6	;RP1=0, select bank1
  7637     092A  0826               	movf	(_events_logged+1)^(0+128),w
  7638     092B  3A80               	xorlw	128
  7639     092C  1283               	bcf	3,5	;RP0=0, select bank0
  7640     092D  1303               	bcf	3,6	;RP1=0, select bank0
  7641     092E  0220               	subwf	??_download_log,w
  7642     092F  1D03               	skipz
  7643     0930  2937               	goto	u5265
  7644     0931  1683               	bsf	3,5	;RP0=1, select bank1
  7645     0932  1303               	bcf	3,6	;RP1=0, select bank1
  7646     0933  0825               	movf	_events_logged^(0+128),w
  7647     0934  1283               	bcf	3,5	;RP0=0, select bank0
  7648     0935  1303               	bcf	3,6	;RP1=0, select bank0
  7649     0936  0223               	subwf	download_log@i,w
  7650     0937                     u5265:
  7651     0937  1C03               	skipc
  7652     0938  293A               	goto	u5261
  7653     0939  293B               	goto	u5260
  7654     093A                     u5261:
  7655     093A  2903               	goto	l4822
  7656     093B                     u5260:
  7657     093B                     l404:
  7658     093B  0008               	return
  7659     093C                     __end_of_download_log:
  7660                           
  7661                           	psect	text24
  7662     11AE                     __ptext24:	
  7663 ;; *************** function _puts *****************
  7664 ;; Defined at:
  7665 ;;		line 26 in file "uart.c"
  7666 ;; Parameters:    Size  Location     Type
  7667 ;;  s               2    3[COMMON] PTR const unsigned char 
  7668 ;;		 -> STR_33(2), STR_32(7), get_log(17), 
  7669 ;; Auto vars:     Size  Location     Type
  7670 ;;		None
  7671 ;; Return value:  Size  Location     Type
  7672 ;;                  1    wreg      void 
  7673 ;; Registers used:
  7674 ;;		wreg, fsr0l, fsr0h, status,2, status,0, btemp+1, pclath, cstack
  7675 ;; Tracked objects:
  7676 ;;		On entry : 0/0
  7677 ;;		On exit  : 0/0
  7678 ;;		Unchanged: 0/0
  7679 ;; Data sizes:     COMMON   BANK0   BANK1   BANK3   BANK2
  7680 ;;      Params:         2       0       0       0       0
  7681 ;;      Locals:         0       0       0       0       0
  7682 ;;      Temps:          0       0       0       0       0
  7683 ;;      Totals:         2       0       0       0       0
  7684 ;;Total ram usage:        2 bytes
  7685 ;; Hardware stack levels used: 1
  7686 ;; Hardware stack levels required when called: 2
  7687 ;; This function calls:
  7688 ;;		_putchar
  7689 ;; This function is called by:
  7690 ;;		_download_log
  7691 ;; This function uses a non-reentrant model
  7692 ;;
  7693                           
  7694     11AE                     _puts:	
  7695                           ;psect for function _puts
  7696                           
  7697     11AE                     l4474:	
  7698                           ;incstack = 0
  7699                           ; Regs used in _puts: [wreg-fsr0h+status,2+status,0+btemp+1+pclath+cstack]
  7700                           
  7701                           
  7702                           ;uart.c: 26: void puts(const char *s);uart.c: 27: {;uart.c: 28:     while (*s)
  7703     11AE  29C3               	goto	l4480
  7704     11AF                     l4476:
  7705                           
  7706                           ;uart.c: 29:     {;uart.c: 30:         putchar(*s++);
  7707     11AF  0874               	movf	puts@s+1,w
  7708     11B0  00FF               	movwf	btemp+1
  7709     11B1  0873               	movf	puts@s,w
  7710     11B2  0084               	movwf	4
  7711     11B3  120A  118A  27EE  160A  118A  	fcall	stringtab
  7712     11B8  160A  158A  2703  160A  118A  	fcall	_putchar
  7713     11BD                     l4478:
  7714     11BD  3001               	movlw	1
  7715     11BE  07F3               	addwf	puts@s,f
  7716     11BF  1803               	skipnc
  7717     11C0  0AF4               	incf	puts@s+1,f
  7718     11C1  3000               	movlw	0
  7719     11C2  07F4               	addwf	puts@s+1,f
  7720     11C3                     l4480:
  7721                           
  7722                           ;uart.c: 28:     while (*s)
  7723     11C3  0874               	movf	puts@s+1,w
  7724     11C4  1283               	bcf	3,5	;RP0=0, select bank0
  7725     11C5  1303               	bcf	3,6	;RP1=0, select bank0
  7726     11C6  00FF               	movwf	btemp+1
  7727     11C7  0873               	movf	puts@s,w
  7728     11C8  0084               	movwf	4
  7729     11C9  120A  118A  27EE  160A  118A  	fcall	stringtab
  7730     11CE  3A00               	xorlw	0
  7731     11CF  1D03               	skipz
  7732     11D0  29D2               	goto	u4851
  7733     11D1  29D3               	goto	u4850
  7734     11D2                     u4851:
  7735     11D2  29AF               	goto	l4476
  7736     11D3                     u4850:
  7737     11D3                     l561:
  7738     11D3  0008               	return
  7739     11D4                     __end_of_puts:
  7740                           
  7741                           	psect	text25
  7742     1F03                     __ptext25:	
  7743 ;; *************** function _putchar *****************
  7744 ;; Defined at:
  7745 ;;		line 16 in file "uart.c"
  7746 ;; Parameters:    Size  Location     Type
  7747 ;;  data            1    wreg     unsigned char 
  7748 ;; Auto vars:     Size  Location     Type
  7749 ;;  data            1    2[COMMON] unsigned char 
  7750 ;; Return value:  Size  Location     Type
  7751 ;;                  1    wreg      void 
  7752 ;; Registers used:
  7753 ;;		wreg
  7754 ;; Tracked objects:
  7755 ;;		On entry : 0/0
  7756 ;;		On exit  : 0/0
  7757 ;;		Unchanged: 0/0
  7758 ;; Data sizes:     COMMON   BANK0   BANK1   BANK3   BANK2
  7759 ;;      Params:         0       0       0       0       0
  7760 ;;      Locals:         1       0       0       0       0
  7761 ;;      Temps:          0       0       0       0       0
  7762 ;;      Totals:         1       0       0       0       0
  7763 ;;Total ram usage:        1 bytes
  7764 ;; Hardware stack levels used: 1
  7765 ;; Hardware stack levels required when called: 1
  7766 ;; This function calls:
  7767 ;;		Nothing
  7768 ;; This function is called by:
  7769 ;;		_puts
  7770 ;; This function uses a non-reentrant model
  7771 ;;
  7772                           
  7773     1F03                     _putchar:	
  7774                           ;psect for function _putchar
  7775                           
  7776                           
  7777                           ;incstack = 0
  7778                           ; Regs used in _putchar: [wreg]
  7779                           ;putchar@data stored from wreg
  7780     1F03  00F2               	movwf	putchar@data
  7781     1F04                     l4220:
  7782                           
  7783                           ;uart.c: 16: void putchar(unsigned char data);uart.c: 17: {;uart.c: 18:     TXREG = data
      +                          ;
  7784     1F04  0872               	movf	putchar@data,w
  7785     1F05  1283               	bcf	3,5	;RP0=0, select bank0
  7786     1F06  1303               	bcf	3,6	;RP1=0, select bank0
  7787     1F07  0099               	movwf	25	;volatile
  7788     1F08                     l553:	
  7789                           ;uart.c: 22:     }while(TXIF != 1);
  7790                           
  7791     1F08  1E0C               	btfss	12,4	;volatile
  7792     1F09  2F0B               	goto	u4431
  7793     1F0A  2F0C               	goto	u4430
  7794     1F0B                     u4431:
  7795     1F0B  2F08               	goto	l553
  7796     1F0C                     u4430:
  7797     1F0C                     l554:
  7798                           
  7799                           ;uart.c: 23:     TXIF = 0;
  7800     1F0C  120C               	bcf	12,4	;volatile
  7801     1F0D                     l555:
  7802     1F0D  0008               	return
  7803     1F0E                     __end_of_putchar:
  7804                           
  7805                           	psect	text26
  7806     083A                     __ptext26:	
  7807 ;; *************** function _fetch_logs *****************
  7808 ;; Defined at:
  7809 ;;		line 286 in file "car_black_box_def.c"
  7810 ;; Parameters:    Size  Location     Type
  7811 ;;  i               1    wreg     unsigned char 
  7812 ;; Auto vars:     Size  Location     Type
  7813 ;;  i               1    6[COMMON] unsigned char 
  7814 ;;  addr            1    7[COMMON] unsigned char 
  7815 ;; Return value:  Size  Location     Type
  7816 ;;                  1    wreg      void 
  7817 ;; Registers used:
  7818 ;;		wreg, status,2, status,0, pclath, cstack
  7819 ;; Tracked objects:
  7820 ;;		On entry : 0/0
  7821 ;;		On exit  : 0/0
  7822 ;;		Unchanged: 0/0
  7823 ;; Data sizes:     COMMON   BANK0   BANK1   BANK3   BANK2
  7824 ;;      Params:         0       0       0       0       0
  7825 ;;      Locals:         2       0       0       0       0
  7826 ;;      Temps:          0       0       0       0       0
  7827 ;;      Totals:         2       0       0       0       0
  7828 ;;Total ram usage:        2 bytes
  7829 ;; Hardware stack levels used: 1
  7830 ;; Hardware stack levels required when called: 5
  7831 ;; This function calls:
  7832 ;;		___bmul
  7833 ;;		_ext_eeprom_24C02_read
  7834 ;; This function is called by:
  7835 ;;		_view_log
  7836 ;;		_download_log
  7837 ;; This function uses a non-reentrant model
  7838 ;;
  7839                           
  7840     083A                     _fetch_logs:	
  7841                           ;psect for function _fetch_logs
  7842                           
  7843                           
  7844                           ;incstack = 0
  7845                           ; Regs used in _fetch_logs: [wreg+status,2+status,0+pclath+cstack]
  7846                           ;fetch_logs@i stored from wreg
  7847     083A  00F6               	movwf	fetch_logs@i
  7848     083B                     l4438:
  7849                           
  7850                           ;car_black_box_def.c: 286: void fetch_logs(char i);car_black_box_def.c: 287: {;car_black
      +                          _box_def.c: 288:     unsigned char addr = 0x05 + i*10;
  7851     083B  300A               	movlw	10
  7852     083C  00F2               	movwf	___bmul@multiplicand
  7853     083D  0876               	movf	fetch_logs@i,w
  7854     083E  160A  158A  2776  120A  158A  	fcall	___bmul
  7855     0843  3E05               	addlw	5
  7856     0844  00F7               	movwf	fetch_logs@addr
  7857     0845                     l4440:
  7858                           
  7859                           ;car_black_box_def.c: 289:     get_log[0] = i+'0';
  7860     0845  0876               	movf	fetch_logs@i,w
  7861     0846  3E30               	addlw	48
  7862     0847  1683               	bsf	3,5	;RP0=1, select bank1
  7863     0848  1303               	bcf	3,6	;RP1=0, select bank1
  7864     0849  00AE               	movwf	_get_log^(0+128)
  7865     084A                     l4442:
  7866                           
  7867                           ;car_black_box_def.c: 290:     get_log[1] = ' ';
  7868     084A  3020               	movlw	32
  7869     084B  00AF               	movwf	(_get_log^(0+128)+1)
  7870     084C                     l4444:
  7871                           
  7872                           ;car_black_box_def.c: 291:     get_log[2] = ext_eeprom_24C02_read(addr);
  7873     084C  0877               	movf	fetch_logs@addr,w
  7874     084D  160A  118A  222A  120A  158A  	fcall	_ext_eeprom_24C02_read
  7875     0852  1683               	bsf	3,5	;RP0=1, select bank1
  7876     0853  1303               	bcf	3,6	;RP1=0, select bank1
  7877     0854  00B0               	movwf	(_get_log^(0+128)+2)
  7878     0855                     l4446:
  7879                           
  7880                           ;car_black_box_def.c: 292:     get_log[3] = ext_eeprom_24C02_read(addr+1);
  7881     0855  0877               	movf	fetch_logs@addr,w
  7882     0856  3E01               	addlw	1
  7883     0857  160A  118A  222A  120A  158A  	fcall	_ext_eeprom_24C02_read
  7884     085C  1683               	bsf	3,5	;RP0=1, select bank1
  7885     085D  1303               	bcf	3,6	;RP1=0, select bank1
  7886     085E  00B1               	movwf	(_get_log^(0+128)+3)
  7887     085F                     l4448:
  7888                           
  7889                           ;car_black_box_def.c: 293:     get_log[4] = ':';
  7890     085F  303A               	movlw	58
  7891     0860  00B2               	movwf	(_get_log^(0+128)+4)
  7892     0861                     l4450:
  7893                           
  7894                           ;car_black_box_def.c: 294:     get_log[5] = ext_eeprom_24C02_read(addr+2);
  7895     0861  0877               	movf	fetch_logs@addr,w
  7896     0862  3E02               	addlw	2
  7897     0863  160A  118A  222A  120A  158A  	fcall	_ext_eeprom_24C02_read
  7898     0868  1683               	bsf	3,5	;RP0=1, select bank1
  7899     0869  1303               	bcf	3,6	;RP1=0, select bank1
  7900     086A  00B3               	movwf	(_get_log^(0+128)+5)
  7901     086B                     l4452:
  7902                           
  7903                           ;car_black_box_def.c: 295:     get_log[6] = ext_eeprom_24C02_read(addr+3);
  7904     086B  0877               	movf	fetch_logs@addr,w
  7905     086C  3E03               	addlw	3
  7906     086D  160A  118A  222A  120A  158A  	fcall	_ext_eeprom_24C02_read
  7907     0872  1683               	bsf	3,5	;RP0=1, select bank1
  7908     0873  1303               	bcf	3,6	;RP1=0, select bank1
  7909     0874  00B4               	movwf	(_get_log^(0+128)+6)
  7910     0875                     l4454:
  7911                           
  7912                           ;car_black_box_def.c: 296:     get_log[7] = ':';
  7913     0875  303A               	movlw	58
  7914     0876  00B5               	movwf	(_get_log^(0+128)+7)
  7915     0877                     l4456:
  7916                           
  7917                           ;car_black_box_def.c: 297:     get_log[8] = ext_eeprom_24C02_read(addr+4);
  7918     0877  0877               	movf	fetch_logs@addr,w
  7919     0878  3E04               	addlw	4
  7920     0879  160A  118A  222A  120A  158A  	fcall	_ext_eeprom_24C02_read
  7921     087E  1683               	bsf	3,5	;RP0=1, select bank1
  7922     087F  1303               	bcf	3,6	;RP1=0, select bank1
  7923     0880  00B6               	movwf	(_get_log^(0+128)+8)
  7924     0881                     l4458:
  7925                           
  7926                           ;car_black_box_def.c: 298:     get_log[9] = ext_eeprom_24C02_read(addr+5);
  7927     0881  0877               	movf	fetch_logs@addr,w
  7928     0882  3E05               	addlw	5
  7929     0883  160A  118A  222A  120A  158A  	fcall	_ext_eeprom_24C02_read
  7930     0888  1683               	bsf	3,5	;RP0=1, select bank1
  7931     0889  1303               	bcf	3,6	;RP1=0, select bank1
  7932     088A  00B7               	movwf	(_get_log^(0+128)+9)
  7933     088B                     l4460:
  7934                           
  7935                           ;car_black_box_def.c: 299:     get_log[10] = ' ';
  7936     088B  3020               	movlw	32
  7937     088C  00B8               	movwf	(_get_log^(0+128)+10)
  7938     088D                     l4462:
  7939                           
  7940                           ;car_black_box_def.c: 300:     get_log[11] = ext_eeprom_24C02_read(addr+6);
  7941     088D  0877               	movf	fetch_logs@addr,w
  7942     088E  3E06               	addlw	6
  7943     088F  160A  118A  222A  120A  158A  	fcall	_ext_eeprom_24C02_read
  7944     0894  1683               	bsf	3,5	;RP0=1, select bank1
  7945     0895  1303               	bcf	3,6	;RP1=0, select bank1
  7946     0896  00B9               	movwf	(_get_log^(0+128)+11)
  7947     0897                     l4464:
  7948                           
  7949                           ;car_black_box_def.c: 301:     get_log[12] = ext_eeprom_24C02_read(addr+7);
  7950     0897  0877               	movf	fetch_logs@addr,w
  7951     0898  3E07               	addlw	7
  7952     0899  160A  118A  222A  120A  158A  	fcall	_ext_eeprom_24C02_read
  7953     089E  1683               	bsf	3,5	;RP0=1, select bank1
  7954     089F  1303               	bcf	3,6	;RP1=0, select bank1
  7955     08A0  00BA               	movwf	(_get_log^(0+128)+12)
  7956     08A1                     l4466:
  7957                           
  7958                           ;car_black_box_def.c: 302:     get_log[13] = ' ';
  7959     08A1  3020               	movlw	32
  7960     08A2  00BB               	movwf	(_get_log^(0+128)+13)
  7961     08A3                     l4468:
  7962                           
  7963                           ;car_black_box_def.c: 303:     get_log[14] = ext_eeprom_24C02_read(addr+8);
  7964     08A3  0877               	movf	fetch_logs@addr,w
  7965     08A4  3E08               	addlw	8
  7966     08A5  160A  118A  222A  120A  158A  	fcall	_ext_eeprom_24C02_read
  7967     08AA  1683               	bsf	3,5	;RP0=1, select bank1
  7968     08AB  1303               	bcf	3,6	;RP1=0, select bank1
  7969     08AC  00BC               	movwf	(_get_log^(0+128)+14)
  7970     08AD                     l4470:
  7971                           
  7972                           ;car_black_box_def.c: 304:     get_log[15] = ext_eeprom_24C02_read(addr+9);
  7973     08AD  0877               	movf	fetch_logs@addr,w
  7974     08AE  3E09               	addlw	9
  7975     08AF  160A  118A  222A  120A  158A  	fcall	_ext_eeprom_24C02_read
  7976     08B4  1683               	bsf	3,5	;RP0=1, select bank1
  7977     08B5  1303               	bcf	3,6	;RP1=0, select bank1
  7978     08B6  00BD               	movwf	(_get_log^(0+128)+15)
  7979     08B7                     l4472:
  7980                           
  7981                           ;car_black_box_def.c: 305:     get_log[16] = '\0';
  7982     08B7  01BE               	clrf	(_get_log^(0+128)+16)
  7983     08B8                     l390:
  7984     08B8  0008               	return
  7985     08B9                     __end_of_fetch_logs:
  7986                           
  7987                           	psect	text27
  7988     122A                     __ptext27:	
  7989 ;; *************** function _ext_eeprom_24C02_read *****************
  7990 ;; Defined at:
  7991 ;;		line 4 in file "EEprom.c"
  7992 ;; Parameters:    Size  Location     Type
  7993 ;;  addr            1    wreg     unsigned char 
  7994 ;; Auto vars:     Size  Location     Type
  7995 ;;  addr            1    4[COMMON] unsigned char 
  7996 ;;  data            1    5[COMMON] unsigned char 
  7997 ;; Return value:  Size  Location     Type
  7998 ;;                  1    wreg      unsigned char 
  7999 ;; Registers used:
  8000 ;;		wreg, status,2, status,0, pclath, cstack
  8001 ;; Tracked objects:
  8002 ;;		On entry : 0/0
  8003 ;;		On exit  : 0/0
  8004 ;;		Unchanged: 0/0
  8005 ;; Data sizes:     COMMON   BANK0   BANK1   BANK3   BANK2
  8006 ;;      Params:         0       0       0       0       0
  8007 ;;      Locals:         2       0       0       0       0
  8008 ;;      Temps:          0       0       0       0       0
  8009 ;;      Totals:         2       0       0       0       0
  8010 ;;Total ram usage:        2 bytes
  8011 ;; Hardware stack levels used: 1
  8012 ;; Hardware stack levels required when called: 4
  8013 ;; This function calls:
  8014 ;;		_i2c_read
  8015 ;;		_i2c_rep_start
  8016 ;;		_i2c_start
  8017 ;;		_i2c_stop
  8018 ;;		_i2c_write
  8019 ;; This function is called by:
  8020 ;;		_login
  8021 ;;		_fetch_logs
  8022 ;; This function uses a non-reentrant model
  8023 ;;
  8024                           
  8025     122A                     _ext_eeprom_24C02_read:	
  8026                           ;psect for function _ext_eeprom_24C02_read
  8027                           
  8028                           
  8029                           ;incstack = 0
  8030                           ; Regs used in _ext_eeprom_24C02_read: [wreg+status,2+status,0+pclath+cstack]
  8031                           ;ext_eeprom_24C02_read@addr stored from wreg
  8032     122A  00F4               	movwf	ext_eeprom_24C02_read@addr
  8033     122B                     l4214:
  8034                           
  8035                           ;EEprom.c: 6:     unsigned char data;;EEprom.c: 8:     i2c_start();
  8036     122B  160A  158A  26DB  160A  118A  	fcall	_i2c_start
  8037                           
  8038                           ;EEprom.c: 10:     i2c_write(0b10100000);
  8039     1230  30A0               	movlw	160
  8040     1231  160A  158A  26ED  160A  118A  	fcall	_i2c_write
  8041                           
  8042                           ;EEprom.c: 12:     i2c_write(addr);
  8043     1236  0874               	movf	ext_eeprom_24C02_read@addr,w
  8044     1237  160A  158A  26ED  160A  118A  	fcall	_i2c_write
  8045                           
  8046                           ;EEprom.c: 14:     i2c_rep_start();
  8047     123C  160A  158A  26F8  160A  118A  	fcall	_i2c_rep_start
  8048                           
  8049                           ;EEprom.c: 16:     i2c_write(0b10100001);
  8050     1241  30A1               	movlw	161
  8051     1242  160A  158A  26ED  160A  118A  	fcall	_i2c_write
  8052                           
  8053                           ;EEprom.c: 19:     data = i2c_read(0);
  8054     1247  3000               	movlw	0
  8055     1248  160A  118A  216C  160A  118A  	fcall	_i2c_read
  8056     124D  00F5               	movwf	ext_eeprom_24C02_read@data
  8057                           
  8058                           ;EEprom.c: 21:     i2c_stop();
  8059     124E  160A  158A  26E4  160A  118A  	fcall	_i2c_stop
  8060     1253                     l4216:
  8061                           
  8062                           ;EEprom.c: 23:     return data;
  8063     1253  0875               	movf	ext_eeprom_24C02_read@data,w
  8064     1254                     l484:
  8065     1254  0008               	return
  8066     1255                     __end_of_ext_eeprom_24C02_read:
  8067                           
  8068                           	psect	text28
  8069     1F76                     __ptext28:	
  8070 ;; *************** function ___bmul *****************
  8071 ;; Defined at:
  8072 ;;		line 4 in file "C:\Program Files\Microchip\xc8\v3.00\pic\sources\c99\common\Umul8.c"
  8073 ;; Parameters:    Size  Location     Type
  8074 ;;  multiplier      1    wreg     unsigned char 
  8075 ;;  multiplicand    1    2[COMMON] unsigned char 
  8076 ;; Auto vars:     Size  Location     Type
  8077 ;;  multiplier      1    4[COMMON] unsigned char 
  8078 ;;  product         1    3[COMMON] unsigned char 
  8079 ;; Return value:  Size  Location     Type
  8080 ;;                  1    wreg      unsigned char 
  8081 ;; Registers used:
  8082 ;;		wreg, status,2, status,0
  8083 ;; Tracked objects:
  8084 ;;		On entry : 0/0
  8085 ;;		On exit  : 0/0
  8086 ;;		Unchanged: 0/0
  8087 ;; Data sizes:     COMMON   BANK0   BANK1   BANK3   BANK2
  8088 ;;      Params:         1       0       0       0       0
  8089 ;;      Locals:         2       0       0       0       0
  8090 ;;      Temps:          0       0       0       0       0
  8091 ;;      Totals:         3       0       0       0       0
  8092 ;;Total ram usage:        3 bytes
  8093 ;; Hardware stack levels used: 1
  8094 ;; Hardware stack levels required when called: 1
  8095 ;; This function calls:
  8096 ;;		Nothing
  8097 ;; This function is called by:
  8098 ;;		_store_event
  8099 ;;		_fetch_logs
  8100 ;;		_set_time
  8101 ;;		_save_time
  8102 ;; This function uses a non-reentrant model
  8103 ;;
  8104                           
  8105     1F76                     ___bmul:	
  8106                           ;psect for function ___bmul
  8107                           
  8108                           
  8109                           ;incstack = 0
  8110                           ; Regs used in ___bmul: [wreg+status,2+status,0]
  8111                           ;___bmul@multiplier stored from wreg
  8112     1F76  00F4               	movwf	___bmul@multiplier
  8113     1F77                     l4222:
  8114     1F77  01F3               	clrf	___bmul@product
  8115     1F78                     l4224:
  8116     1F78  1C74               	btfss	___bmul@multiplier,0
  8117     1F79  2F7B               	goto	u4441
  8118     1F7A  2F7C               	goto	u4440
  8119     1F7B                     u4441:
  8120     1F7B  2F7E               	goto	l4228
  8121     1F7C                     u4440:
  8122     1F7C                     l4226:
  8123     1F7C  0872               	movf	___bmul@multiplicand,w
  8124     1F7D  07F3               	addwf	___bmul@product,f
  8125     1F7E                     l4228:
  8126     1F7E  1003               	clrc
  8127     1F7F  0DF2               	rlf	___bmul@multiplicand,f
  8128     1F80                     l4230:
  8129     1F80  1003               	clrc
  8130     1F81  0CF4               	rrf	___bmul@multiplier,f
  8131     1F82  0874               	movf	___bmul@multiplier,w
  8132     1F83  1D03               	btfss	3,2
  8133     1F84  2F86               	goto	u4451
  8134     1F85  2F87               	goto	u4450
  8135     1F86                     u4451:
  8136     1F86  2F78               	goto	l4224
  8137     1F87                     u4450:
  8138     1F87                     l4232:
  8139     1F87  0873               	movf	___bmul@product,w
  8140     1F88                     l673:
  8141     1F88  0008               	return
  8142     1F89                     __end_of___bmul:
  8143                           
  8144                           	psect	text29
  8145     14F0                     __ptext29:	
  8146 ;; *************** function _display_dashboard *****************
  8147 ;; Defined at:
  8148 ;;		line 53 in file "car_black_box_def.c"
  8149 ;; Parameters:    Size  Location     Type
  8150 ;;  event           1    2[BANK0 ] PTR unsigned char 
  8151 ;;		 -> main@event(3), 
  8152 ;;  speed           1    3[BANK0 ] unsigned char 
  8153 ;; Auto vars:     Size  Location     Type
  8154 ;;		None
  8155 ;; Return value:  Size  Location     Type
  8156 ;;                  1    wreg      void 
  8157 ;; Registers used:
  8158 ;;		wreg, fsr0l, fsr0h, status,2, status,0, btemp+1, pclath, cstack
  8159 ;; Tracked objects:
  8160 ;;		On entry : 0/0
  8161 ;;		On exit  : 0/0
  8162 ;;		Unchanged: 0/0
  8163 ;; Data sizes:     COMMON   BANK0   BANK1   BANK3   BANK2
  8164 ;;      Params:         0       2       0       0       0
  8165 ;;      Locals:         0       0       0       0       0
  8166 ;;      Temps:          0       2       0       0       0
  8167 ;;      Totals:         0       4       0       0       0
  8168 ;;Total ram usage:        4 bytes
  8169 ;; Hardware stack levels used: 1
  8170 ;; Hardware stack levels required when called: 7
  8171 ;; This function calls:
  8172 ;;		___awdiv
  8173 ;;		___awmod
  8174 ;;		_clcd_print
  8175 ;;		_clcd_putch
  8176 ;;		_display_time
  8177 ;; This function is called by:
  8178 ;;		_main
  8179 ;; This function uses a non-reentrant model
  8180 ;;
  8181                           
  8182     14F0                     _display_dashboard:	
  8183                           ;psect for function _display_dashboard
  8184                           
  8185     14F0                     l4560:	
  8186                           ;incstack = 0
  8187                           ; Regs used in _display_dashboard: [wreg-fsr0h+status,2+status,0+btemp+1+pclath+cstack]
  8188                           
  8189                           
  8190                           ;car_black_box_def.c: 53: void display_dashboard(unsigned char event[], unsigned char sp
      +                          eed);car_black_box_def.c: 54: {;car_black_box_def.c: 55:     clcd_print("TIME     E  SP"
      +                          , (0x80 + 2));
  8191     14F0  3002               	movlw	low ((STR_26+2)| (0+32768))
  8192     14F1  00F6               	movwf	clcd_print@str
  8193     14F2  3090               	movlw	high ((STR_26+2)| (0+32768))
  8194     14F3  00F7               	movwf	clcd_print@str+1
  8195     14F4  3082               	movlw	130
  8196     14F5  00F8               	movwf	clcd_print@addr
  8197     14F6  160A  118A  2255  160A  118A  	fcall	_clcd_print
  8198     14FB                     l4562:
  8199                           
  8200                           ;car_black_box_def.c: 57:     display_time();
  8201     14FB  160A  118A  25FC  160A  118A  	fcall	_display_time
  8202     1500                     l4564:
  8203                           
  8204                           ;car_black_box_def.c: 59:     clcd_print(event,(0xC0 + 11));
  8205     1500  1283               	bcf	3,5	;RP0=0, select bank0
  8206     1501  1303               	bcf	3,6	;RP1=0, select bank0
  8207     1502  0822               	movf	display_dashboard@event,w
  8208     1503  00F6               	movwf	clcd_print@str
  8209     1504  3001               	movlw	1
  8210     1505  00F7               	movwf	clcd_print@str+1
  8211     1506  30CB               	movlw	203
  8212     1507  00F8               	movwf	clcd_print@addr
  8213     1508  160A  118A  2255  160A  118A  	fcall	_clcd_print
  8214                           
  8215                           ;car_black_box_def.c: 61:     clcd_putch(speed/10 + '0', (0xC0 + 14));
  8216     150D  30CE               	movlw	206
  8217     150E  1283               	bcf	3,5	;RP0=0, select bank0
  8218     150F  1303               	bcf	3,6	;RP1=0, select bank0
  8219     1510  00A0               	movwf	clcd_putch@addr
  8220     1511  300A               	movlw	10
  8221     1512  00F2               	movwf	___awdiv@divisor
  8222     1513  3000               	movlw	0
  8223     1514  00F3               	movwf	___awdiv@divisor+1
  8224     1515  0823               	movf	display_dashboard@speed,w
  8225     1516  00A4               	movwf	??_display_dashboard
  8226     1517  01A5               	clrf	??_display_dashboard+1
  8227     1518  0824               	movf	??_display_dashboard,w
  8228     1519  00F4               	movwf	___awdiv@dividend
  8229     151A  0825               	movf	??_display_dashboard+1,w
  8230     151B  00F5               	movwf	___awdiv@dividend+1
  8231     151C  160A  118A  265E  160A  118A  	fcall	___awdiv
  8232     1521  0872               	movf	?___awdiv,w
  8233     1522  3E30               	addlw	48
  8234     1523  160A  158A  27AF  160A  118A  	fcall	_clcd_putch
  8235                           
  8236                           ;car_black_box_def.c: 62:     clcd_putch(speed%10 + '0', (0xC0 + 15));
  8237     1528  30CF               	movlw	207
  8238     1529  1283               	bcf	3,5	;RP0=0, select bank0
  8239     152A  1303               	bcf	3,6	;RP1=0, select bank0
  8240     152B  00A0               	movwf	clcd_putch@addr
  8241     152C  300A               	movlw	10
  8242     152D  00F2               	movwf	___awmod@divisor
  8243     152E  3000               	movlw	0
  8244     152F  00F3               	movwf	___awmod@divisor+1
  8245     1530  0823               	movf	display_dashboard@speed,w
  8246     1531  00A4               	movwf	??_display_dashboard
  8247     1532  01A5               	clrf	??_display_dashboard+1
  8248     1533  0824               	movf	??_display_dashboard,w
  8249     1534  00F4               	movwf	___awmod@dividend
  8250     1535  0825               	movf	??_display_dashboard+1,w
  8251     1536  00F5               	movwf	___awmod@dividend+1
  8252     1537  160A  118A  2544  160A  118A  	fcall	___awmod
  8253     153C  0872               	movf	?___awmod,w
  8254     153D  3E30               	addlw	48
  8255     153E  160A  158A  27AF  160A  118A  	fcall	_clcd_putch
  8256     1543                     l331:
  8257     1543  0008               	return
  8258     1544                     __end_of_display_dashboard:
  8259                           
  8260                           	psect	text30
  8261     15FC                     __ptext30:	
  8262 ;; *************** function _display_time *****************
  8263 ;; Defined at:
  8264 ;;		line 36 in file "car_black_box_def.c"
  8265 ;; Parameters:    Size  Location     Type
  8266 ;;		None
  8267 ;; Auto vars:     Size  Location     Type
  8268 ;;		None
  8269 ;; Return value:  Size  Location     Type
  8270 ;;                  1    wreg      void 
  8271 ;; Registers used:
  8272 ;;		wreg, status,2, status,0, pclath, cstack
  8273 ;; Tracked objects:
  8274 ;;		On entry : 0/0
  8275 ;;		On exit  : 0/0
  8276 ;;		Unchanged: 0/0
  8277 ;; Data sizes:     COMMON   BANK0   BANK1   BANK3   BANK2
  8278 ;;      Params:         0       0       0       0       0
  8279 ;;      Locals:         0       0       0       0       0
  8280 ;;      Temps:          0       0       0       0       0
  8281 ;;      Totals:         0       0       0       0       0
  8282 ;;Total ram usage:        0 bytes
  8283 ;; Hardware stack levels used: 1
  8284 ;; Hardware stack levels required when called: 6
  8285 ;; This function calls:
  8286 ;;		_clcd_putch
  8287 ;;		_get_time
  8288 ;; This function is called by:
  8289 ;;		_display_dashboard
  8290 ;; This function uses a non-reentrant model
  8291 ;;
  8292                           
  8293     15FC                     _display_time:	
  8294                           ;psect for function _display_time
  8295                           
  8296     15FC                     l4384:	
  8297                           ;incstack = 0
  8298                           ; Regs used in _display_time: [wreg+status,2+status,0+pclath+cstack]
  8299                           
  8300                           
  8301                           ;car_black_box_def.c: 38:    get_time();
  8302     15FC  160A  118A  2454  160A  118A  	fcall	_get_time
  8303                           
  8304                           ;car_black_box_def.c: 40:    clcd_putch(time[0], (0xC0 + 2));
  8305     1601  30C2               	movlw	194
  8306     1602  1283               	bcf	3,5	;RP0=0, select bank0
  8307     1603  1303               	bcf	3,6	;RP1=0, select bank0
  8308     1604  00A0               	movwf	clcd_putch@addr
  8309     1605  1683               	bsf	3,5	;RP0=1, select bank1
  8310     1606  1303               	bcf	3,6	;RP1=0, select bank1
  8311     1607  0848               	movf	_time^(0+128),w
  8312     1608  160A  158A  27AF  160A  118A  	fcall	_clcd_putch
  8313                           
  8314                           ;car_black_box_def.c: 41:    clcd_putch(time[1], (0xC0 + 3));
  8315     160D  30C3               	movlw	195
  8316     160E  1283               	bcf	3,5	;RP0=0, select bank0
  8317     160F  1303               	bcf	3,6	;RP1=0, select bank0
  8318     1610  00A0               	movwf	clcd_putch@addr
  8319     1611  1683               	bsf	3,5	;RP0=1, select bank1
  8320     1612  1303               	bcf	3,6	;RP1=0, select bank1
  8321     1613  0849               	movf	(_time^(0+128)+1),w
  8322     1614  160A  158A  27AF  160A  118A  	fcall	_clcd_putch
  8323                           
  8324                           ;car_black_box_def.c: 42:    clcd_putch(':', (0xC0 + 4));
  8325     1619  30C4               	movlw	196
  8326     161A  1283               	bcf	3,5	;RP0=0, select bank0
  8327     161B  1303               	bcf	3,6	;RP1=0, select bank0
  8328     161C  00A0               	movwf	clcd_putch@addr
  8329     161D  303A               	movlw	58
  8330     161E  160A  158A  27AF  160A  118A  	fcall	_clcd_putch
  8331                           
  8332                           ;car_black_box_def.c: 43:    clcd_putch(time[2], (0xC0 + 5));
  8333     1623  30C5               	movlw	197
  8334     1624  1283               	bcf	3,5	;RP0=0, select bank0
  8335     1625  1303               	bcf	3,6	;RP1=0, select bank0
  8336     1626  00A0               	movwf	clcd_putch@addr
  8337     1627  1683               	bsf	3,5	;RP0=1, select bank1
  8338     1628  1303               	bcf	3,6	;RP1=0, select bank1
  8339     1629  084A               	movf	(_time^(0+128)+2),w
  8340     162A  160A  158A  27AF  160A  118A  	fcall	_clcd_putch
  8341                           
  8342                           ;car_black_box_def.c: 44:    clcd_putch(time[3], (0xC0 + 6));
  8343     162F  30C6               	movlw	198
  8344     1630  1283               	bcf	3,5	;RP0=0, select bank0
  8345     1631  1303               	bcf	3,6	;RP1=0, select bank0
  8346     1632  00A0               	movwf	clcd_putch@addr
  8347     1633  1683               	bsf	3,5	;RP0=1, select bank1
  8348     1634  1303               	bcf	3,6	;RP1=0, select bank1
  8349     1635  084B               	movf	(_time^(0+128)+3),w
  8350     1636  160A  158A  27AF  160A  118A  	fcall	_clcd_putch
  8351                           
  8352                           ;car_black_box_def.c: 45:    clcd_putch(':', (0xC0 + 7));
  8353     163B  30C7               	movlw	199
  8354     163C  1283               	bcf	3,5	;RP0=0, select bank0
  8355     163D  1303               	bcf	3,6	;RP1=0, select bank0
  8356     163E  00A0               	movwf	clcd_putch@addr
  8357     163F  303A               	movlw	58
  8358     1640  160A  158A  27AF  160A  118A  	fcall	_clcd_putch
  8359                           
  8360                           ;car_black_box_def.c: 46:    clcd_putch(time[4], (0xC0 + 8));
  8361     1645  30C8               	movlw	200
  8362     1646  1283               	bcf	3,5	;RP0=0, select bank0
  8363     1647  1303               	bcf	3,6	;RP1=0, select bank0
  8364     1648  00A0               	movwf	clcd_putch@addr
  8365     1649  1683               	bsf	3,5	;RP0=1, select bank1
  8366     164A  1303               	bcf	3,6	;RP1=0, select bank1
  8367     164B  084C               	movf	(_time^(0+128)+4),w
  8368     164C  160A  158A  27AF  160A  118A  	fcall	_clcd_putch
  8369                           
  8370                           ;car_black_box_def.c: 47:    clcd_putch(time[5], (0xC0 + 9));
  8371     1651  30C9               	movlw	201
  8372     1652  1283               	bcf	3,5	;RP0=0, select bank0
  8373     1653  1303               	bcf	3,6	;RP1=0, select bank0
  8374     1654  00A0               	movwf	clcd_putch@addr
  8375     1655  1683               	bsf	3,5	;RP0=1, select bank1
  8376     1656  1303               	bcf	3,6	;RP1=0, select bank1
  8377     1657  084D               	movf	(_time^(0+128)+5),w
  8378     1658  160A  158A  27AF  160A  118A  	fcall	_clcd_putch
  8379     165D                     l328:
  8380     165D  0008               	return
  8381     165E                     __end_of_display_time:
  8382                           
  8383                           	psect	text31
  8384     1454                     __ptext31:	
  8385 ;; *************** function _get_time *****************
  8386 ;; Defined at:
  8387 ;;		line 17 in file "car_black_box_def.c"
  8388 ;; Parameters:    Size  Location     Type
  8389 ;;		None
  8390 ;; Auto vars:     Size  Location     Type
  8391 ;;		None
  8392 ;; Return value:  Size  Location     Type
  8393 ;;                  1    wreg      void 
  8394 ;; Registers used:
  8395 ;;		wreg, status,2, status,0, pclath, cstack
  8396 ;; Tracked objects:
  8397 ;;		On entry : 0/0
  8398 ;;		On exit  : 0/0
  8399 ;;		Unchanged: 0/0
  8400 ;; Data sizes:     COMMON   BANK0   BANK1   BANK3   BANK2
  8401 ;;      Params:         0       0       0       0       0
  8402 ;;      Locals:         0       0       0       0       0
  8403 ;;      Temps:          1       0       0       0       0
  8404 ;;      Totals:         1       0       0       0       0
  8405 ;;Total ram usage:        1 bytes
  8406 ;; Hardware stack levels used: 1
  8407 ;; Hardware stack levels required when called: 5
  8408 ;; This function calls:
  8409 ;;		_read_ds1307
  8410 ;; This function is called by:
  8411 ;;		_display_time
  8412 ;;		_log_event
  8413 ;;		_set_time
  8414 ;; This function uses a non-reentrant model
  8415 ;;
  8416                           
  8417     1454                     _get_time:	
  8418                           ;psect for function _get_time
  8419                           
  8420     1454                     l4198:	
  8421                           ;incstack = 0
  8422                           ; Regs used in _get_time: [wreg+status,2+status,0+pclath+cstack]
  8423                           
  8424                           
  8425                           ;car_black_box_def.c: 19:     clock_reg[0] = read_ds1307(0x02);
  8426     1454  3002               	movlw	2
  8427     1455  160A  118A  21FF  160A  118A  	fcall	_read_ds1307
  8428     145A  1683               	bsf	3,5	;RP0=1, select bank1
  8429     145B  1303               	bcf	3,6	;RP1=0, select bank1
  8430     145C  00A0               	movwf	_clock_reg^(0+128)
  8431                           
  8432                           ;car_black_box_def.c: 20:     clock_reg[1] = read_ds1307(0x01);
  8433     145D  3001               	movlw	1
  8434     145E  160A  118A  21FF  160A  118A  	fcall	_read_ds1307
  8435     1463  1683               	bsf	3,5	;RP0=1, select bank1
  8436     1464  1303               	bcf	3,6	;RP1=0, select bank1
  8437     1465  00A1               	movwf	(_clock_reg^(0+128)+1)
  8438                           
  8439                           ;car_black_box_def.c: 21:     clock_reg[2] = read_ds1307(0x00);
  8440     1466  3000               	movlw	0
  8441     1467  160A  118A  21FF  160A  118A  	fcall	_read_ds1307
  8442     146C  1683               	bsf	3,5	;RP0=1, select bank1
  8443     146D  1303               	bcf	3,6	;RP1=0, select bank1
  8444     146E  00A2               	movwf	(_clock_reg^(0+128)+2)
  8445     146F                     l4200:
  8446                           
  8447                           ;car_black_box_def.c: 24:     time[0] = ((clock_reg[0] >> 4) & 0x03) + '0';
  8448     146F  0820               	movf	_clock_reg^(0+128),w
  8449     1470  00F6               	movwf	??_get_time
  8450     1471  3004               	movlw	4
  8451     1472                     u4405:
  8452     1472  1003               	clrc
  8453     1473  0CF6               	rrf	??_get_time,f
  8454     1474  3EFF               	addlw	-1
  8455     1475  1D03               	skipz
  8456     1476  2C72               	goto	u4405
  8457     1477  0876               	movf	??_get_time,w
  8458     1478  3903               	andlw	3
  8459     1479  3E30               	addlw	48
  8460     147A  00C8               	movwf	_time^(0+128)
  8461     147B                     l4202:
  8462                           
  8463                           ;car_black_box_def.c: 25:     time[1] = (clock_reg[0] & 0x0F) + '0';
  8464     147B  0820               	movf	_clock_reg^(0+128),w
  8465     147C  390F               	andlw	15
  8466     147D  3E30               	addlw	48
  8467     147E  00C9               	movwf	(_time^(0+128)+1)
  8468     147F                     l4204:
  8469                           
  8470                           ;car_black_box_def.c: 27:     time[2] = ((clock_reg[1] >> 4) & 0x07) + '0';
  8471     147F  0821               	movf	(_clock_reg^(0+128)+1),w
  8472     1480  00F6               	movwf	??_get_time
  8473     1481  3004               	movlw	4
  8474     1482                     u4415:
  8475     1482  1003               	clrc
  8476     1483  0CF6               	rrf	??_get_time,f
  8477     1484  3EFF               	addlw	-1
  8478     1485  1D03               	skipz
  8479     1486  2C82               	goto	u4415
  8480     1487  0876               	movf	??_get_time,w
  8481     1488  3907               	andlw	7
  8482     1489  3E30               	addlw	48
  8483     148A  00CA               	movwf	(_time^(0+128)+2)
  8484     148B                     l4206:
  8485                           
  8486                           ;car_black_box_def.c: 28:     time[3] = (clock_reg[1] & 0x0F) + '0';
  8487     148B  0821               	movf	(_clock_reg^(0+128)+1),w
  8488     148C  390F               	andlw	15
  8489     148D  3E30               	addlw	48
  8490     148E  00CB               	movwf	(_time^(0+128)+3)
  8491     148F                     l4208:
  8492                           
  8493                           ;car_black_box_def.c: 30:     time[4] = ((clock_reg[2] >> 4) & 0x07) + '0';
  8494     148F  0822               	movf	(_clock_reg^(0+128)+2),w
  8495     1490  00F6               	movwf	??_get_time
  8496     1491  3004               	movlw	4
  8497     1492                     u4425:
  8498     1492  1003               	clrc
  8499     1493  0CF6               	rrf	??_get_time,f
  8500     1494  3EFF               	addlw	-1
  8501     1495  1D03               	skipz
  8502     1496  2C92               	goto	u4425
  8503     1497  0876               	movf	??_get_time,w
  8504     1498  3907               	andlw	7
  8505     1499  3E30               	addlw	48
  8506     149A  00CC               	movwf	(_time^(0+128)+4)
  8507     149B                     l4210:
  8508                           
  8509                           ;car_black_box_def.c: 31:     time[5] = (clock_reg[2] & 0x0F) + '0';
  8510     149B  0822               	movf	(_clock_reg^(0+128)+2),w
  8511     149C  390F               	andlw	15
  8512     149D  3E30               	addlw	48
  8513     149E  00CD               	movwf	(_time^(0+128)+5)
  8514     149F                     l4212:
  8515                           
  8516                           ;car_black_box_def.c: 32:     time[6] = '\0';
  8517     149F  01CE               	clrf	(_time^(0+128)+6)
  8518     14A0                     l325:
  8519     14A0  0008               	return
  8520     14A1                     __end_of_get_time:
  8521                           
  8522                           	psect	text32
  8523     11FF                     __ptext32:	
  8524 ;; *************** function _read_ds1307 *****************
  8525 ;; Defined at:
  8526 ;;		line 14 in file "ds1307.c"
  8527 ;; Parameters:    Size  Location     Type
  8528 ;;  addr            1    wreg     unsigned char 
  8529 ;; Auto vars:     Size  Location     Type
  8530 ;;  addr            1    4[COMMON] unsigned char 
  8531 ;;  data            1    5[COMMON] unsigned char 
  8532 ;; Return value:  Size  Location     Type
  8533 ;;                  1    wreg      unsigned char 
  8534 ;; Registers used:
  8535 ;;		wreg, status,2, status,0, pclath, cstack
  8536 ;; Tracked objects:
  8537 ;;		On entry : 0/0
  8538 ;;		On exit  : 0/0
  8539 ;;		Unchanged: 0/0
  8540 ;; Data sizes:     COMMON   BANK0   BANK1   BANK3   BANK2
  8541 ;;      Params:         0       0       0       0       0
  8542 ;;      Locals:         2       0       0       0       0
  8543 ;;      Temps:          0       0       0       0       0
  8544 ;;      Totals:         2       0       0       0       0
  8545 ;;Total ram usage:        2 bytes
  8546 ;; Hardware stack levels used: 1
  8547 ;; Hardware stack levels required when called: 4
  8548 ;; This function calls:
  8549 ;;		_i2c_read
  8550 ;;		_i2c_rep_start
  8551 ;;		_i2c_start
  8552 ;;		_i2c_stop
  8553 ;;		_i2c_write
  8554 ;; This function is called by:
  8555 ;;		_init_ds1307
  8556 ;;		_get_time
  8557 ;; This function uses a non-reentrant model
  8558 ;;
  8559                           
  8560     11FF                     _read_ds1307:	
  8561                           ;psect for function _read_ds1307
  8562                           
  8563                           
  8564                           ;incstack = 0
  8565                           ; Regs used in _read_ds1307: [wreg+status,2+status,0+pclath+cstack]
  8566                           ;read_ds1307@addr stored from wreg
  8567     11FF  00F4               	movwf	read_ds1307@addr
  8568     1200                     l4152:
  8569                           
  8570                           ;ds1307.c: 14: unsigned char read_ds1307(unsigned char addr);ds1307.c: 15: {;ds1307.c: 1
      +                          6:     unsigned char data;;ds1307.c: 18:     i2c_start();
  8571     1200  160A  158A  26DB  160A  118A  	fcall	_i2c_start
  8572                           
  8573                           ;ds1307.c: 19:     i2c_write(0b11010000);
  8574     1205  30D0               	movlw	208
  8575     1206  160A  158A  26ED  160A  118A  	fcall	_i2c_write
  8576                           
  8577                           ;ds1307.c: 20:     i2c_write(addr);
  8578     120B  0874               	movf	read_ds1307@addr,w
  8579     120C  160A  158A  26ED  160A  118A  	fcall	_i2c_write
  8580                           
  8581                           ;ds1307.c: 21:     i2c_rep_start();
  8582     1211  160A  158A  26F8  160A  118A  	fcall	_i2c_rep_start
  8583                           
  8584                           ;ds1307.c: 22:     i2c_write(0b11010001);
  8585     1216  30D1               	movlw	209
  8586     1217  160A  158A  26ED  160A  118A  	fcall	_i2c_write
  8587                           
  8588                           ;ds1307.c: 23:     data = i2c_read(0);
  8589     121C  3000               	movlw	0
  8590     121D  160A  118A  216C  160A  118A  	fcall	_i2c_read
  8591     1222  00F5               	movwf	read_ds1307@data
  8592                           
  8593                           ;ds1307.c: 24:     i2c_stop();
  8594     1223  160A  158A  26E4  160A  118A  	fcall	_i2c_stop
  8595     1228                     l4154:
  8596                           
  8597                           ;ds1307.c: 26:     return data;
  8598     1228  0875               	movf	read_ds1307@data,w
  8599     1229                     l252:
  8600     1229  0008               	return
  8601     122A                     __end_of_read_ds1307:
  8602                           
  8603                           	psect	text33
  8604     1EF8                     __ptext33:	
  8605 ;; *************** function _i2c_rep_start *****************
  8606 ;; Defined at:
  8607 ;;		line 28 in file "i2c.c"
  8608 ;; Parameters:    Size  Location     Type
  8609 ;;		None
  8610 ;; Auto vars:     Size  Location     Type
  8611 ;;		None
  8612 ;; Return value:  Size  Location     Type
  8613 ;;                  1    wreg      void 
  8614 ;; Registers used:
  8615 ;;		wreg, status,2, status,0, pclath, cstack
  8616 ;; Tracked objects:
  8617 ;;		On entry : 0/0
  8618 ;;		On exit  : 0/0
  8619 ;;		Unchanged: 0/0
  8620 ;; Data sizes:     COMMON   BANK0   BANK1   BANK3   BANK2
  8621 ;;      Params:         0       0       0       0       0
  8622 ;;      Locals:         0       0       0       0       0
  8623 ;;      Temps:          0       0       0       0       0
  8624 ;;      Totals:         0       0       0       0       0
  8625 ;;Total ram usage:        0 bytes
  8626 ;; Hardware stack levels used: 1
  8627 ;; Hardware stack levels required when called: 3
  8628 ;; This function calls:
  8629 ;;		_i2c_start
  8630 ;;		_i2c_stop
  8631 ;; This function is called by:
  8632 ;;		_read_ds1307
  8633 ;;		_ext_eeprom_24C02_read
  8634 ;; This function uses a non-reentrant model
  8635 ;;
  8636                           
  8637     1EF8                     _i2c_rep_start:	
  8638                           ;psect for function _i2c_rep_start
  8639                           
  8640     1EF8                     l4108:	
  8641                           ;incstack = 0
  8642                           ; Regs used in _i2c_rep_start: [wreg+status,2+status,0+pclath+cstack]
  8643                           
  8644                           
  8645                           ;i2c.c: 30:     i2c_stop();
  8646     1EF8  160A  158A  26E4  160A  158A  	fcall	_i2c_stop
  8647                           
  8648                           ;i2c.c: 31:     i2c_start();
  8649     1EFD  160A  158A  26DB  160A  158A  	fcall	_i2c_start
  8650     1F02                     l221:
  8651     1F02  0008               	return
  8652     1F03                     __end_of_i2c_rep_start:
  8653                           
  8654                           	psect	text34
  8655     116C                     __ptext34:	
  8656 ;; *************** function _i2c_read *****************
  8657 ;; Defined at:
  8658 ;;		line 41 in file "i2c.c"
  8659 ;; Parameters:    Size  Location     Type
  8660 ;;  ack             1    wreg     unsigned char 
  8661 ;; Auto vars:     Size  Location     Type
  8662 ;;  ack             1    2[COMMON] unsigned char 
  8663 ;;  data            1    3[COMMON] unsigned char 
  8664 ;; Return value:  Size  Location     Type
  8665 ;;                  1    wreg      unsigned char 
  8666 ;; Registers used:
  8667 ;;		wreg, status,2, status,0, pclath, cstack
  8668 ;; Tracked objects:
  8669 ;;		On entry : 0/0
  8670 ;;		On exit  : 0/0
  8671 ;;		Unchanged: 0/0
  8672 ;; Data sizes:     COMMON   BANK0   BANK1   BANK3   BANK2
  8673 ;;      Params:         0       0       0       0       0
  8674 ;;      Locals:         2       0       0       0       0
  8675 ;;      Temps:          0       0       0       0       0
  8676 ;;      Totals:         2       0       0       0       0
  8677 ;;Total ram usage:        2 bytes
  8678 ;; Hardware stack levels used: 1
  8679 ;; Hardware stack levels required when called: 2
  8680 ;; This function calls:
  8681 ;;		_i2c_wait_for_idle
  8682 ;; This function is called by:
  8683 ;;		_read_ds1307
  8684 ;;		_ext_eeprom_24C02_read
  8685 ;; This function uses a non-reentrant model
  8686 ;;
  8687                           
  8688     116C                     _i2c_read:	
  8689                           ;psect for function _i2c_read
  8690                           
  8691                           
  8692                           ;incstack = 0
  8693                           ; Regs used in _i2c_read: [wreg+status,2+status,0+pclath+cstack]
  8694                           ;i2c_read@ack stored from wreg
  8695     116C  00F2               	movwf	i2c_read@ack
  8696     116D                     l4110:
  8697                           
  8698                           ;i2c.c: 41: unsigned char i2c_read(unsigned char ack);i2c.c: 42: {;i2c.c: 43:     unsign
      +                          ed char data;;i2c.c: 45:     i2c_wait_for_idle();
  8699     116D  160A  158A  2719  160A  118A  	fcall	_i2c_wait_for_idle
  8700     1172                     l4112:
  8701                           
  8702                           ;i2c.c: 46:     RCEN = 1;
  8703     1172  1683               	bsf	3,5	;RP0=1, select bank1
  8704     1173  1303               	bcf	3,6	;RP1=0, select bank1
  8705     1174  1591               	bsf	17,3	;volatile
  8706                           
  8707                           ;i2c.c: 48:     i2c_wait_for_idle();
  8708     1175  160A  158A  2719  160A  118A  	fcall	_i2c_wait_for_idle
  8709     117A                     l4114:
  8710                           
  8711                           ;i2c.c: 49:     data = SSPBUF;
  8712     117A  1283               	bcf	3,5	;RP0=0, select bank0
  8713     117B  1303               	bcf	3,6	;RP1=0, select bank0
  8714     117C  0813               	movf	19,w	;volatile
  8715     117D  00F3               	movwf	i2c_read@data
  8716     117E                     l4116:
  8717                           
  8718                           ;i2c.c: 51:     if (ack == 1)
  8719     117E  0372               	decf	i2c_read@ack,w
  8720     117F  1D03               	btfss	3,2
  8721     1180  2982               	goto	u4351
  8722     1181  2983               	goto	u4350
  8723     1182                     u4351:
  8724     1182  2987               	goto	l227
  8725     1183                     u4350:
  8726     1183                     l4118:
  8727                           
  8728                           ;i2c.c: 52:     {;i2c.c: 53:         ACKDT = 1;
  8729     1183  1683               	bsf	3,5	;RP0=1, select bank1
  8730     1184  1303               	bcf	3,6	;RP1=0, select bank1
  8731     1185  1691               	bsf	17,5	;volatile
  8732                           
  8733                           ;i2c.c: 54:     }
  8734     1186  298A               	goto	l228
  8735     1187                     l227:	
  8736                           ;i2c.c: 55:     else
  8737                           
  8738                           
  8739                           ;i2c.c: 56:     {;i2c.c: 57:         ACKDT = 0;
  8740     1187  1683               	bsf	3,5	;RP0=1, select bank1
  8741     1188  1303               	bcf	3,6	;RP1=0, select bank1
  8742     1189  1291               	bcf	17,5	;volatile
  8743     118A                     l228:	
  8744                           ;i2c.c: 58:     }
  8745                           
  8746                           
  8747                           ;i2c.c: 60:     ACKEN = 1;
  8748     118A  1611               	bsf	17,4	;volatile
  8749     118B                     l4120:
  8750                           
  8751                           ;i2c.c: 62:     return data;
  8752     118B  0873               	movf	i2c_read@data,w
  8753     118C                     l229:
  8754     118C  0008               	return
  8755     118D                     __end_of_i2c_read:
  8756                           
  8757                           	psect	text35
  8758     1544                     __ptext35:	
  8759 ;; *************** function ___awmod *****************
  8760 ;; Defined at:
  8761 ;;		line 5 in file "C:\Program Files\Microchip\xc8\v3.00\pic\sources\c99\common\awmod.c"
  8762 ;; Parameters:    Size  Location     Type
  8763 ;;  divisor         2    2[COMMON] int 
  8764 ;;  dividend        2    4[COMMON] int 
  8765 ;; Auto vars:     Size  Location     Type
  8766 ;;  sign            1    7[COMMON] unsigned char 
  8767 ;;  counter         1    6[COMMON] unsigned char 
  8768 ;; Return value:  Size  Location     Type
  8769 ;;                  2    2[COMMON] int 
  8770 ;; Registers used:
  8771 ;;		wreg, status,2, status,0
  8772 ;; Tracked objects:
  8773 ;;		On entry : 0/0
  8774 ;;		On exit  : 0/0
  8775 ;;		Unchanged: 0/0
  8776 ;; Data sizes:     COMMON   BANK0   BANK1   BANK3   BANK2
  8777 ;;      Params:         4       0       0       0       0
  8778 ;;      Locals:         2       0       0       0       0
  8779 ;;      Temps:          0       0       0       0       0
  8780 ;;      Totals:         6       0       0       0       0
  8781 ;;Total ram usage:        6 bytes
  8782 ;; Hardware stack levels used: 1
  8783 ;; Hardware stack levels required when called: 1
  8784 ;; This function calls:
  8785 ;;		Nothing
  8786 ;; This function is called by:
  8787 ;;		_display_dashboard
  8788 ;;		_log_event
  8789 ;;		_login
  8790 ;;		_view_log
  8791 ;;		_set_time
  8792 ;;		_save_time
  8793 ;; This function uses a non-reentrant model
  8794 ;;
  8795                           
  8796     1544                     ___awmod:	
  8797                           ;psect for function ___awmod
  8798                           
  8799     1544                     l4304:	
  8800                           ;incstack = 0
  8801                           ; Regs used in ___awmod: [wreg+status,2+status,0]
  8802                           
  8803     1544  01F7               	clrf	___awmod@sign
  8804     1545                     l4306:
  8805     1545  1FF5               	btfss	___awmod@dividend+1,7
  8806     1546  2D48               	goto	u4631
  8807     1547  2D49               	goto	u4630
  8808     1548                     u4631:
  8809     1548  2D50               	goto	l4312
  8810     1549                     u4630:
  8811     1549                     l4308:
  8812     1549  09F4               	comf	___awmod@dividend,f
  8813     154A  09F5               	comf	___awmod@dividend+1,f
  8814     154B  0AF4               	incf	___awmod@dividend,f
  8815     154C  1903               	skipnz
  8816     154D  0AF5               	incf	___awmod@dividend+1,f
  8817     154E                     l4310:
  8818     154E  3001               	movlw	1
  8819     154F  00F7               	movwf	___awmod@sign
  8820     1550                     l4312:
  8821     1550  1FF3               	btfss	___awmod@divisor+1,7
  8822     1551  2D53               	goto	u4641
  8823     1552  2D54               	goto	u4640
  8824     1553                     u4641:
  8825     1553  2D59               	goto	l4316
  8826     1554                     u4640:
  8827     1554                     l4314:
  8828     1554  09F2               	comf	___awmod@divisor,f
  8829     1555  09F3               	comf	___awmod@divisor+1,f
  8830     1556  0AF2               	incf	___awmod@divisor,f
  8831     1557  1903               	skipnz
  8832     1558  0AF3               	incf	___awmod@divisor+1,f
  8833     1559                     l4316:
  8834     1559  0872               	movf	___awmod@divisor,w
  8835     155A  0473               	iorwf	___awmod@divisor+1,w
  8836     155B  1903               	btfsc	3,2
  8837     155C  2D5E               	goto	u4651
  8838     155D  2D5F               	goto	u4650
  8839     155E                     u4651:
  8840     155E  2D8C               	goto	l4334
  8841     155F                     u4650:
  8842     155F                     l4318:
  8843     155F  3001               	movlw	1
  8844     1560  00F6               	movwf	___awmod@counter
  8845     1561  2D6B               	goto	l4324
  8846     1562                     l4320:
  8847     1562  3001               	movlw	1
  8848     1563                     u4665:
  8849     1563  1003               	clrc
  8850     1564  0DF2               	rlf	___awmod@divisor,f
  8851     1565  0DF3               	rlf	___awmod@divisor+1,f
  8852     1566  3EFF               	addlw	-1
  8853     1567  1D03               	skipz
  8854     1568  2D63               	goto	u4665
  8855     1569                     l4322:
  8856     1569  3001               	movlw	1
  8857     156A  07F6               	addwf	___awmod@counter,f
  8858     156B                     l4324:
  8859     156B  1FF3               	btfss	___awmod@divisor+1,7
  8860     156C  2D6E               	goto	u4671
  8861     156D  2D6F               	goto	u4670
  8862     156E                     u4671:
  8863     156E  2D62               	goto	l4320
  8864     156F                     u4670:
  8865     156F                     l4326:
  8866     156F  0873               	movf	___awmod@divisor+1,w
  8867     1570  0275               	subwf	___awmod@dividend+1,w
  8868     1571  1D03               	skipz
  8869     1572  2D75               	goto	u4685
  8870     1573  0872               	movf	___awmod@divisor,w
  8871     1574  0274               	subwf	___awmod@dividend,w
  8872     1575                     u4685:
  8873     1575  1C03               	skipc
  8874     1576  2D78               	goto	u4681
  8875     1577  2D79               	goto	u4680
  8876     1578                     u4681:
  8877     1578  2D7F               	goto	l4330
  8878     1579                     u4680:
  8879     1579                     l4328:
  8880     1579  0872               	movf	___awmod@divisor,w
  8881     157A  02F4               	subwf	___awmod@dividend,f
  8882     157B  0873               	movf	___awmod@divisor+1,w
  8883     157C  1C03               	skipc
  8884     157D  03F5               	decf	___awmod@dividend+1,f
  8885     157E  02F5               	subwf	___awmod@dividend+1,f
  8886     157F                     l4330:
  8887     157F  3001               	movlw	1
  8888     1580                     u4695:
  8889     1580  1003               	clrc
  8890     1581  0CF3               	rrf	___awmod@divisor+1,f
  8891     1582  0CF2               	rrf	___awmod@divisor,f
  8892     1583  3EFF               	addlw	-1
  8893     1584  1D03               	skipz
  8894     1585  2D80               	goto	u4695
  8895     1586                     l4332:
  8896     1586  3001               	movlw	1
  8897     1587  02F6               	subwf	___awmod@counter,f
  8898     1588  1D03               	btfss	3,2
  8899     1589  2D8B               	goto	u4701
  8900     158A  2D8C               	goto	u4700
  8901     158B                     u4701:
  8902     158B  2D6F               	goto	l4326
  8903     158C                     u4700:
  8904     158C                     l4334:
  8905     158C  0877               	movf	___awmod@sign,w
  8906     158D  1903               	btfsc	3,2
  8907     158E  2D90               	goto	u4711
  8908     158F  2D91               	goto	u4710
  8909     1590                     u4711:
  8910     1590  2D96               	goto	l4338
  8911     1591                     u4710:
  8912     1591                     l4336:
  8913     1591  09F4               	comf	___awmod@dividend,f
  8914     1592  09F5               	comf	___awmod@dividend+1,f
  8915     1593  0AF4               	incf	___awmod@dividend,f
  8916     1594  1903               	skipnz
  8917     1595  0AF5               	incf	___awmod@dividend+1,f
  8918     1596                     l4338:
  8919     1596  0875               	movf	___awmod@dividend+1,w
  8920     1597  00F3               	movwf	?___awmod+1
  8921     1598  0874               	movf	___awmod@dividend,w
  8922     1599  00F2               	movwf	?___awmod
  8923     159A                     l813:
  8924     159A  0008               	return
  8925     159B                     __end_of___awmod:
  8926                           
  8927                           	psect	text36
  8928     165E                     __ptext36:	
  8929 ;; *************** function ___awdiv *****************
  8930 ;; Defined at:
  8931 ;;		line 5 in file "C:\Program Files\Microchip\xc8\v3.00\pic\sources\c99\common\awdiv.c"
  8932 ;; Parameters:    Size  Location     Type
  8933 ;;  divisor         2    2[COMMON] int 
  8934 ;;  dividend        2    4[COMMON] int 
  8935 ;; Auto vars:     Size  Location     Type
  8936 ;;  quotient        2    8[COMMON] int 
  8937 ;;  sign            1    7[COMMON] unsigned char 
  8938 ;;  counter         1    6[COMMON] unsigned char 
  8939 ;; Return value:  Size  Location     Type
  8940 ;;                  2    2[COMMON] int 
  8941 ;; Registers used:
  8942 ;;		wreg, status,2, status,0
  8943 ;; Tracked objects:
  8944 ;;		On entry : 0/0
  8945 ;;		On exit  : 0/0
  8946 ;;		Unchanged: 0/0
  8947 ;; Data sizes:     COMMON   BANK0   BANK1   BANK3   BANK2
  8948 ;;      Params:         4       0       0       0       0
  8949 ;;      Locals:         4       0       0       0       0
  8950 ;;      Temps:          0       0       0       0       0
  8951 ;;      Totals:         8       0       0       0       0
  8952 ;;Total ram usage:        8 bytes
  8953 ;; Hardware stack levels used: 1
  8954 ;; Hardware stack levels required when called: 1
  8955 ;; This function calls:
  8956 ;;		Nothing
  8957 ;; This function is called by:
  8958 ;;		_display_dashboard
  8959 ;;		_log_event
  8960 ;;		_login
  8961 ;;		_set_time
  8962 ;;		_save_time
  8963 ;; This function uses a non-reentrant model
  8964 ;;
  8965                           
  8966     165E                     ___awdiv:	
  8967                           ;psect for function ___awdiv
  8968                           
  8969     165E                     l4260:	
  8970                           ;incstack = 0
  8971                           ; Regs used in ___awdiv: [wreg+status,2+status,0]
  8972                           
  8973     165E  01F7               	clrf	___awdiv@sign
  8974     165F                     l4262:
  8975     165F  1FF3               	btfss	___awdiv@divisor+1,7
  8976     1660  2E62               	goto	u4531
  8977     1661  2E63               	goto	u4530
  8978     1662                     u4531:
  8979     1662  2E6A               	goto	l4268
  8980     1663                     u4530:
  8981     1663                     l4264:
  8982     1663  09F2               	comf	___awdiv@divisor,f
  8983     1664  09F3               	comf	___awdiv@divisor+1,f
  8984     1665  0AF2               	incf	___awdiv@divisor,f
  8985     1666  1903               	skipnz
  8986     1667  0AF3               	incf	___awdiv@divisor+1,f
  8987     1668                     l4266:
  8988     1668  3001               	movlw	1
  8989     1669  00F7               	movwf	___awdiv@sign
  8990     166A                     l4268:
  8991     166A  1FF5               	btfss	___awdiv@dividend+1,7
  8992     166B  2E6D               	goto	u4541
  8993     166C  2E6E               	goto	u4540
  8994     166D                     u4541:
  8995     166D  2E75               	goto	l4274
  8996     166E                     u4540:
  8997     166E                     l4270:
  8998     166E  09F4               	comf	___awdiv@dividend,f
  8999     166F  09F5               	comf	___awdiv@dividend+1,f
  9000     1670  0AF4               	incf	___awdiv@dividend,f
  9001     1671  1903               	skipnz
  9002     1672  0AF5               	incf	___awdiv@dividend+1,f
  9003     1673                     l4272:
  9004     1673  3001               	movlw	1
  9005     1674  06F7               	xorwf	___awdiv@sign,f
  9006     1675                     l4274:
  9007     1675  01F8               	clrf	___awdiv@quotient
  9008     1676  01F9               	clrf	___awdiv@quotient+1
  9009     1677                     l4276:
  9010     1677  0872               	movf	___awdiv@divisor,w
  9011     1678  0473               	iorwf	___awdiv@divisor+1,w
  9012     1679  1903               	btfsc	3,2
  9013     167A  2E7C               	goto	u4551
  9014     167B  2E7D               	goto	u4550
  9015     167C                     u4551:
  9016     167C  2EB2               	goto	l4296
  9017     167D                     u4550:
  9018     167D                     l4278:
  9019     167D  3001               	movlw	1
  9020     167E  00F6               	movwf	___awdiv@counter
  9021     167F  2E89               	goto	l4284
  9022     1680                     l4280:
  9023     1680  3001               	movlw	1
  9024     1681                     u4565:
  9025     1681  1003               	clrc
  9026     1682  0DF2               	rlf	___awdiv@divisor,f
  9027     1683  0DF3               	rlf	___awdiv@divisor+1,f
  9028     1684  3EFF               	addlw	-1
  9029     1685  1D03               	skipz
  9030     1686  2E81               	goto	u4565
  9031     1687                     l4282:
  9032     1687  3001               	movlw	1
  9033     1688  07F6               	addwf	___awdiv@counter,f
  9034     1689                     l4284:
  9035     1689  1FF3               	btfss	___awdiv@divisor+1,7
  9036     168A  2E8C               	goto	u4571
  9037     168B  2E8D               	goto	u4570
  9038     168C                     u4571:
  9039     168C  2E80               	goto	l4280
  9040     168D                     u4570:
  9041     168D                     l4286:
  9042     168D  3001               	movlw	1
  9043     168E                     u4585:
  9044     168E  1003               	clrc
  9045     168F  0DF8               	rlf	___awdiv@quotient,f
  9046     1690  0DF9               	rlf	___awdiv@quotient+1,f
  9047     1691  3EFF               	addlw	-1
  9048     1692  1D03               	skipz
  9049     1693  2E8E               	goto	u4585
  9050     1694  0873               	movf	___awdiv@divisor+1,w
  9051     1695  0275               	subwf	___awdiv@dividend+1,w
  9052     1696  1D03               	skipz
  9053     1697  2E9A               	goto	u4595
  9054     1698  0872               	movf	___awdiv@divisor,w
  9055     1699  0274               	subwf	___awdiv@dividend,w
  9056     169A                     u4595:
  9057     169A  1C03               	skipc
  9058     169B  2E9D               	goto	u4591
  9059     169C  2E9E               	goto	u4590
  9060     169D                     u4591:
  9061     169D  2EA5               	goto	l4292
  9062     169E                     u4590:
  9063     169E                     l4288:
  9064     169E  0872               	movf	___awdiv@divisor,w
  9065     169F  02F4               	subwf	___awdiv@dividend,f
  9066     16A0  0873               	movf	___awdiv@divisor+1,w
  9067     16A1  1C03               	skipc
  9068     16A2  03F5               	decf	___awdiv@dividend+1,f
  9069     16A3  02F5               	subwf	___awdiv@dividend+1,f
  9070     16A4                     l4290:
  9071     16A4  1478               	bsf	___awdiv@quotient,0
  9072     16A5                     l4292:
  9073     16A5  3001               	movlw	1
  9074     16A6                     u4605:
  9075     16A6  1003               	clrc
  9076     16A7  0CF3               	rrf	___awdiv@divisor+1,f
  9077     16A8  0CF2               	rrf	___awdiv@divisor,f
  9078     16A9  3EFF               	addlw	-1
  9079     16AA  1D03               	skipz
  9080     16AB  2EA6               	goto	u4605
  9081     16AC                     l4294:
  9082     16AC  3001               	movlw	1
  9083     16AD  02F6               	subwf	___awdiv@counter,f
  9084     16AE  1D03               	btfss	3,2
  9085     16AF  2EB1               	goto	u4611
  9086     16B0  2EB2               	goto	u4610
  9087     16B1                     u4611:
  9088     16B1  2E8D               	goto	l4286
  9089     16B2                     u4610:
  9090     16B2                     l4296:
  9091     16B2  0877               	movf	___awdiv@sign,w
  9092     16B3  1903               	btfsc	3,2
  9093     16B4  2EB6               	goto	u4621
  9094     16B5  2EB7               	goto	u4620
  9095     16B6                     u4621:
  9096     16B6  2EBC               	goto	l4300
  9097     16B7                     u4620:
  9098     16B7                     l4298:
  9099     16B7  09F8               	comf	___awdiv@quotient,f
  9100     16B8  09F9               	comf	___awdiv@quotient+1,f
  9101     16B9  0AF8               	incf	___awdiv@quotient,f
  9102     16BA  1903               	skipnz
  9103     16BB  0AF9               	incf	___awdiv@quotient+1,f
  9104     16BC                     l4300:
  9105     16BC  0879               	movf	___awdiv@quotient+1,w
  9106     16BD  00F3               	movwf	?___awdiv+1
  9107     16BE  0878               	movf	___awdiv@quotient,w
  9108     16BF  00F2               	movwf	?___awdiv
  9109     16C0                     l800:
  9110     16C0  0008               	return
  9111     16C1                     __end_of___awdiv:
  9112                           
  9113                           	psect	text37
  9114     1409                     __ptext37:	
  9115 ;; *************** function _clear_log *****************
  9116 ;; Defined at:
  9117 ;;		line 309 in file "car_black_box_def.c"
  9118 ;; Parameters:    Size  Location     Type
  9119 ;;  key             1    wreg     unsigned char 
  9120 ;; Auto vars:     Size  Location     Type
  9121 ;;  key             1    0[COMMON] unsigned char 
  9122 ;;  i               1    2[BANK0 ] unsigned char 
  9123 ;;  temp            2    0[BANK0 ] unsigned char [2]
  9124 ;; Return value:  Size  Location     Type
  9125 ;;                  1    wreg      void 
  9126 ;; Registers used:
  9127 ;;		wreg, fsr0l, fsr0h, status,2, status,0, btemp+1, pclath, cstack
  9128 ;; Tracked objects:
  9129 ;;		On entry : 0/0
  9130 ;;		On exit  : 0/0
  9131 ;;		Unchanged: 0/0
  9132 ;; Data sizes:     COMMON   BANK0   BANK1   BANK3   BANK2
  9133 ;;      Params:         0       0       0       0       0
  9134 ;;      Locals:         0       3       0       0       0
  9135 ;;      Temps:          0       0       0       0       0
  9136 ;;      Totals:         0       3       0       0       0
  9137 ;;Total ram usage:        3 bytes
  9138 ;; Hardware stack levels used: 1
  9139 ;; Hardware stack levels required when called: 5
  9140 ;; This function calls:
  9141 ;;		_clcd_print
  9142 ;;		_clear_screen
  9143 ;;		_ext_eeprom_24C02_str_write
  9144 ;; This function is called by:
  9145 ;;		_main
  9146 ;; This function uses a non-reentrant model
  9147 ;;
  9148                           
  9149     1409                     _clear_log:	
  9150                           ;psect for function _clear_log
  9151                           
  9152     1409                     l4778:	
  9153                           ;incstack = 0
  9154                           ; Regs used in _clear_log: [wreg-fsr0h+status,2+status,0+btemp+1+pclath+cstack]
  9155                           
  9156                           
  9157                           ;car_black_box_def.c: 309: void clear_log(unsigned char key);car_black_box_def.c: 310: {
      +                          ;car_black_box_def.c: 311:     if(clear_flag == 0)
  9158     1409  1683               	bsf	3,5	;RP0=1, select bank1
  9159     140A  1303               	bcf	3,6	;RP1=0, select bank1
  9160     140B  082B               	movf	_clear_flag^(0+128),w
  9161     140C  1D03               	btfss	3,2
  9162     140D  2C0F               	goto	u5221
  9163     140E  2C10               	goto	u5220
  9164     140F                     u5221:
  9165     140F  2C53               	goto	l398
  9166     1410                     u5220:
  9167     1410                     l4780:
  9168                           
  9169                           ;car_black_box_def.c: 312:     {;car_black_box_def.c: 313:         clear_flag = 1;
  9170     1410  3001               	movlw	1
  9171     1411  00AB               	movwf	_clear_flag^(0+128)
  9172     1412                     l4782:
  9173                           
  9174                           ;car_black_box_def.c: 314:         clear_screen();
  9175     1412  160A  158A  2741  160A  118A  	fcall	_clear_screen
  9176     1417                     l4784:
  9177                           
  9178                           ;car_black_box_def.c: 315:         char temp[2] = {0xFF, '\0'};
  9179     1417  1683               	bsf	3,5	;RP0=1, select bank1
  9180     1418  1303               	bcf	3,6	;RP1=0, select bank1
  9181     1419  0869               	movf	(clear_log@F1289+1)^(0+128),w
  9182     141A  1283               	bcf	3,5	;RP0=0, select bank0
  9183     141B  1303               	bcf	3,6	;RP1=0, select bank0
  9184     141C  00A1               	movwf	clear_log@temp+1
  9185     141D  1683               	bsf	3,5	;RP0=1, select bank1
  9186     141E  1303               	bcf	3,6	;RP1=0, select bank1
  9187     141F  0868               	movf	clear_log@F1289^(0+128),w
  9188     1420  1283               	bcf	3,5	;RP0=0, select bank0
  9189     1421  1303               	bcf	3,6	;RP1=0, select bank0
  9190     1422  00A0               	movwf	clear_log@temp
  9191     1423                     l4786:
  9192                           
  9193                           ;car_black_box_def.c: 316:         for(unsigned char i = 0; i < 100; i++)
  9194     1423  01A2               	clrf	clear_log@i
  9195     1424                     l4792:
  9196                           
  9197                           ;car_black_box_def.c: 317:         {;car_black_box_def.c: 318:             ext_eeprom_24
      +                          C02_str_write(0x05 + i, temp);
  9198     1424  3020               	movlw	(low (clear_log@temp| 0))& (0+255)
  9199     1425  00F5               	movwf	ext_eeprom_24C02_str_write@str
  9200     1426  3000               	movlw	0
  9201     1427  00F6               	movwf	ext_eeprom_24C02_str_write@str+1
  9202     1428  0822               	movf	clear_log@i,w
  9203     1429  3E05               	addlw	5
  9204     142A  160A  118A  21D4  160A  118A  	fcall	_ext_eeprom_24C02_str_write
  9205     142F                     l4794:
  9206                           
  9207                           ;car_black_box_def.c: 319:         }
  9208     142F  3001               	movlw	1
  9209     1430  1283               	bcf	3,5	;RP0=0, select bank0
  9210     1431  1303               	bcf	3,6	;RP1=0, select bank0
  9211     1432  07A2               	addwf	clear_log@i,f
  9212     1433                     l4796:
  9213     1433  3064               	movlw	100
  9214     1434  0222               	subwf	clear_log@i,w
  9215     1435  1C03               	skipc
  9216     1436  2C38               	goto	u5231
  9217     1437  2C39               	goto	u5230
  9218     1438                     u5231:
  9219     1438  2C24               	goto	l4792
  9220     1439                     u5230:
  9221     1439                     l4798:
  9222                           
  9223                           ;car_black_box_def.c: 320:         clcd_print("Logs Cleared", (0x80 + 1));
  9224     1439  30C6               	movlw	low (STR_28| (0+32768))
  9225     143A  00F6               	movwf	clcd_print@str
  9226     143B  3090               	movlw	high (STR_28| (0+32768))
  9227     143C  00F7               	movwf	clcd_print@str+1
  9228     143D  3081               	movlw	129
  9229     143E  00F8               	movwf	clcd_print@addr
  9230     143F  160A  118A  2255  160A  118A  	fcall	_clcd_print
  9231                           
  9232                           ;car_black_box_def.c: 321:         clcd_print("Successfully", (0xC0 + 1));
  9233     1444  30ED               	movlw	low (STR_29| (0+32768))
  9234     1445  00F6               	movwf	clcd_print@str
  9235     1446  3090               	movlw	high (STR_29| (0+32768))
  9236     1447  00F7               	movwf	clcd_print@str+1
  9237     1448  30C1               	movlw	193
  9238     1449  00F8               	movwf	clcd_print@addr
  9239     144A  160A  118A  2255  160A  118A  	fcall	_clcd_print
  9240     144F                     l4800:
  9241                           
  9242                           ;car_black_box_def.c: 322:         log_pos = 0;
  9243     144F  1683               	bsf	3,5	;RP0=1, select bank1
  9244     1450  1303               	bcf	3,6	;RP1=0, select bank1
  9245     1451  01EA               	clrf	_log_pos^(0+128)
  9246     1452  01EB               	clrf	(_log_pos+1)^(0+128)
  9247     1453                     l398:
  9248     1453  0008               	return
  9249     1454                     __end_of_clear_log:
  9250                           
  9251                           	psect	text38
  9252     0666                     __ptext38:	
  9253 ;; *************** function _change_pwd *****************
  9254 ;; Defined at:
  9255 ;;		line 466 in file "car_black_box_def.c"
  9256 ;; Parameters:    Size  Location     Type
  9257 ;;  key             1    wreg     unsigned char 
  9258 ;;  reset_flag      1    2[BANK0 ] unsigned char 
  9259 ;; Auto vars:     Size  Location     Type
  9260 ;;  key             1    6[BANK0 ] unsigned char 
  9261 ;;  i               2    9[BANK0 ] int 
  9262 ;;  i               2    7[BANK0 ] int 
  9263 ;; Return value:  Size  Location     Type
  9264 ;;                  1    wreg      unsigned char 
  9265 ;; Registers used:
  9266 ;;		wreg, fsr0l, fsr0h, status,2, status,0, btemp+1, pclath, cstack
  9267 ;; Tracked objects:
  9268 ;;		On entry : 0/0
  9269 ;;		On exit  : 0/0
  9270 ;;		Unchanged: 0/0
  9271 ;; Data sizes:     COMMON   BANK0   BANK1   BANK3   BANK2
  9272 ;;      Params:         0       1       0       0       0
  9273 ;;      Locals:         0       5       0       0       0
  9274 ;;      Temps:          0       3       0       0       0
  9275 ;;      Totals:         0       9       0       0       0
  9276 ;;Total ram usage:        9 bytes
  9277 ;; Hardware stack levels used: 1
  9278 ;; Hardware stack levels required when called: 5
  9279 ;; This function calls:
  9280 ;;		_clcd_print
  9281 ;;		_clcd_putch
  9282 ;;		_clcd_write
  9283 ;;		_clear_screen
  9284 ;;		_ext_eeprom_24C02_str_write
  9285 ;;		_strncmp
  9286 ;; This function is called by:
  9287 ;;		_main
  9288 ;; This function uses a non-reentrant model
  9289 ;;
  9290                           
  9291     0666                     _change_pwd:	
  9292                           ;psect for function _change_pwd
  9293                           
  9294                           
  9295                           ;incstack = 0
  9296                           ; Regs used in _change_pwd: [wreg-fsr0h+status,2+status,0+btemp+1+pclath+cstack]
  9297                           ;change_pwd@key stored from wreg
  9298     0666  1283               	bcf	3,5	;RP0=0, select bank0
  9299     0667  1303               	bcf	3,6	;RP1=0, select bank0
  9300     0668  00A6               	movwf	change_pwd@key
  9301     0669                     l4980:
  9302                           
  9303                           ;car_black_box_def.c: 466: unsigned char change_pwd(unsigned char key, unsigned char res
      +                          et_flag);car_black_box_def.c: 467: {;car_black_box_def.c: 468:     static char i = 0, ne
      +                          w_pwd[4], reenter_pwd[4], clear = 0;;car_black_box_def.c: 469:     if(reset_flag == 0x58
      +                          )
  9304     0669  3058               	movlw	88
  9305     066A  0622               	xorwf	change_pwd@reset_flag,w
  9306     066B  1D03               	btfss	3,2
  9307     066C  2E6E               	goto	u5531
  9308     066D  2E6F               	goto	u5530
  9309     066E                     u5531:
  9310     066E  2EB6               	goto	l5006
  9311     066F                     u5530:
  9312     066F                     l4982:
  9313                           
  9314                           ;car_black_box_def.c: 470:     {;car_black_box_def.c: 471:         for(int i=0; i<4; i++
      +                          )
  9315     066F  01A7               	clrf	change_pwd@i_420
  9316     0670  01A8               	clrf	change_pwd@i_420+1
  9317     0671                     l4988:
  9318                           
  9319                           ;car_black_box_def.c: 472:         {;car_black_box_def.c: 473:             new_pwd[i] = 
      +                          '\0';
  9320     0671  1283               	bcf	3,5	;RP0=0, select bank0
  9321     0672  1303               	bcf	3,6	;RP1=0, select bank0
  9322     0673  0827               	movf	change_pwd@i_420,w
  9323     0674  3ED3               	addlw	(low (change_pwd@new_pwd| 0))& (0+255)
  9324     0675  0084               	movwf	4
  9325     0676  1383               	bcf	3,7	;select IRP bank1
  9326     0677  0180               	clrf	0
  9327                           
  9328                           ;car_black_box_def.c: 474:             reenter_pwd[i] = '\0';
  9329     0678  0827               	movf	change_pwd@i_420,w
  9330     0679  3ECF               	addlw	(low (change_pwd@reenter_pwd| 0))& (0+255)
  9331     067A  0084               	movwf	4
  9332     067B  0180               	clrf	0
  9333     067C                     l4990:
  9334                           
  9335                           ;car_black_box_def.c: 475:         }
  9336     067C  3001               	movlw	1
  9337     067D  07A7               	addwf	change_pwd@i_420,f
  9338     067E  1803               	skipnc
  9339     067F  0AA8               	incf	change_pwd@i_420+1,f
  9340     0680  3000               	movlw	0
  9341     0681  07A8               	addwf	change_pwd@i_420+1,f
  9342     0682                     l4992:
  9343     0682  0828               	movf	change_pwd@i_420+1,w
  9344     0683  3A80               	xorlw	128
  9345     0684  00FF               	movwf	btemp+1
  9346     0685  3080               	movlw	128
  9347     0686  027F               	subwf	btemp+1,w
  9348     0687  1D03               	skipz
  9349     0688  2E8B               	goto	u5545
  9350     0689  3004               	movlw	4
  9351     068A  0227               	subwf	change_pwd@i_420,w
  9352     068B                     u5545:
  9353     068B  1C03               	skipc
  9354     068C  2E8E               	goto	u5541
  9355     068D  2E8F               	goto	u5540
  9356     068E                     u5541:
  9357     068E  2E71               	goto	l4988
  9358     068F                     u5540:
  9359     068F                     l455:
  9360                           
  9361                           ;car_black_box_def.c: 476:         key = 0x3F;
  9362     068F  303F               	movlw	63
  9363     0690  1283               	bcf	3,5	;RP0=0, select bank0
  9364     0691  1303               	bcf	3,6	;RP1=0, select bank0
  9365     0692  00A6               	movwf	change_pwd@key
  9366                           
  9367                           ;car_black_box_def.c: 477:         clear = 1;
  9368     0693  3001               	movlw	1
  9369     0694  1683               	bsf	3,5	;RP0=1, select bank1
  9370     0695  1303               	bcf	3,6	;RP1=0, select bank1
  9371     0696  00A7               	movwf	change_pwd@clear^(0+128)
  9372     0697                     l4994:
  9373                           
  9374                           ;car_black_box_def.c: 478:         i = 0;
  9375     0697  1283               	bcf	3,5	;RP0=0, select bank0
  9376     0698  1303               	bcf	3,6	;RP1=0, select bank0
  9377     0699  01D2               	clrf	change_pwd@i
  9378     069A                     l4996:
  9379     069A                     l4998:
  9380                           
  9381                           ;car_black_box_def.c: 480:         clcd_write(0xC2 , 0);
  9382     069A  01F2               	clrf	clcd_write@mode
  9383     069B  30C2               	movlw	194
  9384     069C  160A  118A  234B  120A  118A  	fcall	_clcd_write
  9385     06A1                     l5000:
  9386                           
  9387                           ;car_black_box_def.c: 481:         _delay((unsigned long)((100)*(20000000/4000000.0)));
  9388     06A1  30A5               	movlw	165
  9389     06A2  1283               	bcf	3,5	;RP0=0, select bank0
  9390     06A3  1303               	bcf	3,6	;RP1=0, select bank0
  9391     06A4  00A3               	movwf	??_change_pwd
  9392     06A5                     u7257:
  9393     06A5  0BA3               	decfsz	??_change_pwd,f
  9394     06A6  2EA5               	goto	u7257
  9395     06A7  2EA8               	nop2
  9396     06A8                     l5002:
  9397                           
  9398                           ;car_black_box_def.c: 482:         clcd_write(0x0F, 0);
  9399     06A8  01F2               	clrf	clcd_write@mode
  9400     06A9  300F               	movlw	15
  9401     06AA  160A  118A  234B  120A  118A  	fcall	_clcd_write
  9402     06AF                     l5004:
  9403                           
  9404                           ;car_black_box_def.c: 483:         _delay((unsigned long)((100)*(20000000/4000000.0)));
  9405     06AF  30A5               	movlw	165
  9406     06B0  1283               	bcf	3,5	;RP0=0, select bank0
  9407     06B1  1303               	bcf	3,6	;RP1=0, select bank0
  9408     06B2  00A3               	movwf	??_change_pwd
  9409     06B3                     u7267:
  9410     06B3  0BA3               	decfsz	??_change_pwd,f
  9411     06B4  2EB3               	goto	u7267
  9412     06B5  2EB6               	nop2
  9413     06B6                     l5006:
  9414                           
  9415                           ;car_black_box_def.c: 486:     if(key == 0x37)
  9416     06B6  3037               	movlw	55
  9417     06B7  1283               	bcf	3,5	;RP0=0, select bank0
  9418     06B8  1303               	bcf	3,6	;RP1=0, select bank0
  9419     06B9  0626               	xorwf	change_pwd@key,w
  9420     06BA  1D03               	btfss	3,2
  9421     06BB  2EBD               	goto	u5551
  9422     06BC  2EBE               	goto	u5550
  9423     06BD                     u5551:
  9424     06BD  2EE0               	goto	l5018
  9425     06BE                     u5550:
  9426     06BE                     l5008:
  9427                           
  9428                           ;car_black_box_def.c: 487:     {;car_black_box_def.c: 488:         if(i<4){
  9429     06BE  3004               	movlw	4
  9430     06BF  0252               	subwf	change_pwd@i,w
  9431     06C0  1803               	skipnc
  9432     06C1  2EC3               	goto	u5561
  9433     06C2  2EC4               	goto	u5560
  9434     06C3                     u5561:
  9435     06C3  2ECB               	goto	l5012
  9436     06C4                     u5560:
  9437     06C4                     l5010:
  9438                           
  9439                           ;car_black_box_def.c: 489:             new_pwd[i] = '1';
  9440     06C4  0852               	movf	change_pwd@i,w
  9441     06C5  3ED3               	addlw	(low (change_pwd@new_pwd| 0))& (0+255)
  9442     06C6  0084               	movwf	4
  9443     06C7  3031               	movlw	49
  9444     06C8  1383               	bcf	3,7	;select IRP bank1
  9445     06C9  0080               	movwf	0
  9446                           
  9447                           ;car_black_box_def.c: 490:         }
  9448     06CA  2ED2               	goto	l5014
  9449     06CB                     l5012:
  9450                           
  9451                           ;car_black_box_def.c: 492:             reenter_pwd[i%4] = '1';
  9452     06CB  0852               	movf	change_pwd@i,w
  9453     06CC  3903               	andlw	3
  9454     06CD  3ECF               	addlw	(low (change_pwd@reenter_pwd| 0))& (0+255)
  9455     06CE  0084               	movwf	4
  9456     06CF  3031               	movlw	49
  9457     06D0  1383               	bcf	3,7	;select IRP bank1
  9458     06D1  0080               	movwf	0
  9459     06D2                     l5014:
  9460                           
  9461                           ;car_black_box_def.c: 494:             clcd_putch('*',0xC2+(i%4));
  9462     06D2  0852               	movf	change_pwd@i,w
  9463     06D3  3903               	andlw	3
  9464     06D4  3EC2               	addlw	194
  9465     06D5  00A0               	movwf	clcd_putch@addr
  9466     06D6  302A               	movlw	42
  9467     06D7  160A  158A  27AF  120A  118A  	fcall	_clcd_putch
  9468     06DC                     l5016:
  9469                           
  9470                           ;car_black_box_def.c: 495:             i++;
  9471     06DC  3001               	movlw	1
  9472     06DD  1283               	bcf	3,5	;RP0=0, select bank0
  9473     06DE  1303               	bcf	3,6	;RP1=0, select bank0
  9474     06DF  07D2               	addwf	change_pwd@i,f
  9475     06E0                     l5018:
  9476                           
  9477                           ;car_black_box_def.c: 499:     if(key == 0x2F)
  9478     06E0  302F               	movlw	47
  9479     06E1  0626               	xorwf	change_pwd@key,w
  9480     06E2  1D03               	btfss	3,2
  9481     06E3  2EE5               	goto	u5571
  9482     06E4  2EE6               	goto	u5570
  9483     06E5                     u5571:
  9484     06E5  2F08               	goto	l5030
  9485     06E6                     u5570:
  9486     06E6                     l5020:
  9487                           
  9488                           ;car_black_box_def.c: 500:     {;car_black_box_def.c: 501:         if(i<4){
  9489     06E6  3004               	movlw	4
  9490     06E7  0252               	subwf	change_pwd@i,w
  9491     06E8  1803               	skipnc
  9492     06E9  2EEB               	goto	u5581
  9493     06EA  2EEC               	goto	u5580
  9494     06EB                     u5581:
  9495     06EB  2EF3               	goto	l5024
  9496     06EC                     u5580:
  9497     06EC                     l5022:
  9498                           
  9499                           ;car_black_box_def.c: 502:             new_pwd[i] = '0';
  9500     06EC  0852               	movf	change_pwd@i,w
  9501     06ED  3ED3               	addlw	(low (change_pwd@new_pwd| 0))& (0+255)
  9502     06EE  0084               	movwf	4
  9503     06EF  3030               	movlw	48
  9504     06F0  1383               	bcf	3,7	;select IRP bank1
  9505     06F1  0080               	movwf	0
  9506                           
  9507                           ;car_black_box_def.c: 503:         }
  9508     06F2  2EFA               	goto	l5026
  9509     06F3                     l5024:
  9510                           
  9511                           ;car_black_box_def.c: 505:             reenter_pwd[i%4] = '0';
  9512     06F3  0852               	movf	change_pwd@i,w
  9513     06F4  3903               	andlw	3
  9514     06F5  3ECF               	addlw	(low (change_pwd@reenter_pwd| 0))& (0+255)
  9515     06F6  0084               	movwf	4
  9516     06F7  3030               	movlw	48
  9517     06F8  1383               	bcf	3,7	;select IRP bank1
  9518     06F9  0080               	movwf	0
  9519     06FA                     l5026:
  9520                           
  9521                           ;car_black_box_def.c: 507:             clcd_putch('*',0xC2+(i%4));
  9522     06FA  0852               	movf	change_pwd@i,w
  9523     06FB  3903               	andlw	3
  9524     06FC  3EC2               	addlw	194
  9525     06FD  00A0               	movwf	clcd_putch@addr
  9526     06FE  302A               	movlw	42
  9527     06FF  160A  158A  27AF  120A  118A  	fcall	_clcd_putch
  9528     0704                     l5028:
  9529                           
  9530                           ;car_black_box_def.c: 508:             i++;
  9531     0704  3001               	movlw	1
  9532     0705  1283               	bcf	3,5	;RP0=0, select bank0
  9533     0706  1303               	bcf	3,6	;RP1=0, select bank0
  9534     0707  07D2               	addwf	change_pwd@i,f
  9535     0708                     l5030:
  9536                           
  9537                           ;car_black_box_def.c: 511:     if(i==4 && clear){
  9538     0708  3004               	movlw	4
  9539     0709  0652               	xorwf	change_pwd@i,w
  9540     070A  1D03               	btfss	3,2
  9541     070B  2F0D               	goto	u5591
  9542     070C  2F0E               	goto	u5590
  9543     070D                     u5591:
  9544     070D  2F57               	goto	l5052
  9545     070E                     u5590:
  9546     070E                     l5032:
  9547     070E  1683               	bsf	3,5	;RP0=1, select bank1
  9548     070F  1303               	bcf	3,6	;RP1=0, select bank1
  9549     0710  0827               	movf	change_pwd@clear^(0+128),w
  9550     0711  1903               	btfsc	3,2
  9551     0712  2F14               	goto	u5601
  9552     0713  2F15               	goto	u5600
  9553     0714                     u5601:
  9554     0714  2F57               	goto	l5052
  9555     0715                     u5600:
  9556     0715                     l5034:
  9557                           
  9558                           ;car_black_box_def.c: 512:         clear = !clear;
  9559     0715  0827               	movf	change_pwd@clear^(0+128),w
  9560     0716  1903               	btfsc	3,2
  9561     0717  2F19               	goto	u5611
  9562     0718  2F1B               	goto	u5610
  9563     0719                     u5611:
  9564     0719  3001               	movlw	1
  9565     071A  2F1C               	goto	u5620
  9566     071B                     u5610:
  9567     071B  3000               	movlw	0
  9568     071C                     u5620:
  9569     071C  00A7               	movwf	change_pwd@clear^(0+128)
  9570     071D                     l5036:
  9571                           
  9572                           ;car_black_box_def.c: 513:         clear_screen();
  9573     071D  160A  158A  2741  120A  118A  	fcall	_clear_screen
  9574     0722                     l5038:
  9575                           
  9576                           ;car_black_box_def.c: 514:         clcd_print("RE-ENTER PASS :" , (0x80 + 0));
  9577     0722  3033               	movlw	low (STR_36| (0+32768))
  9578     0723  00F6               	movwf	clcd_print@str
  9579     0724  3090               	movlw	high (STR_36| (0+32768))
  9580     0725  00F7               	movwf	clcd_print@str+1
  9581     0726  3080               	movlw	128
  9582     0727  00F8               	movwf	clcd_print@addr
  9583     0728  160A  118A  2255  120A  118A  	fcall	_clcd_print
  9584     072D                     l5040:
  9585                           
  9586                           ;car_black_box_def.c: 515:         clcd_write(0x0C, 0);
  9587     072D  01F2               	clrf	clcd_write@mode
  9588     072E  300C               	movlw	12
  9589     072F  160A  118A  234B  120A  118A  	fcall	_clcd_write
  9590     0734                     l5042:
  9591                           
  9592                           ;car_black_box_def.c: 516:         _delay((unsigned long)((100)*(20000000/4000000.0)));
  9593     0734  30A5               	movlw	165
  9594     0735  1283               	bcf	3,5	;RP0=0, select bank0
  9595     0736  1303               	bcf	3,6	;RP1=0, select bank0
  9596     0737  00A3               	movwf	??_change_pwd
  9597     0738                     u7277:
  9598     0738  0BA3               	decfsz	??_change_pwd,f
  9599     0739  2F38               	goto	u7277
  9600     073A  2F3B               	nop2
  9601     073B                     l5044:
  9602                           
  9603                           ;car_black_box_def.c: 517:         clcd_write(0xC2 , 0);
  9604     073B  01F2               	clrf	clcd_write@mode
  9605     073C  30C2               	movlw	194
  9606     073D  160A  118A  234B  120A  118A  	fcall	_clcd_write
  9607     0742                     l5046:
  9608                           
  9609                           ;car_black_box_def.c: 518:         _delay((unsigned long)((100)*(20000000/4000000.0)));
  9610     0742  30A5               	movlw	165
  9611     0743  1283               	bcf	3,5	;RP0=0, select bank0
  9612     0744  1303               	bcf	3,6	;RP1=0, select bank0
  9613     0745  00A3               	movwf	??_change_pwd
  9614     0746                     u7287:
  9615     0746  0BA3               	decfsz	??_change_pwd,f
  9616     0747  2F46               	goto	u7287
  9617     0748  2F49               	nop2
  9618     0749                     l5048:
  9619                           
  9620                           ;car_black_box_def.c: 519:         clcd_write(0x0F, 0);
  9621     0749  01F2               	clrf	clcd_write@mode
  9622     074A  300F               	movlw	15
  9623     074B  160A  118A  234B  120A  118A  	fcall	_clcd_write
  9624     0750                     l5050:
  9625                           
  9626                           ;car_black_box_def.c: 520:         _delay((unsigned long)((100)*(20000000/4000000.0)));
  9627     0750  30A5               	movlw	165
  9628     0751  1283               	bcf	3,5	;RP0=0, select bank0
  9629     0752  1303               	bcf	3,6	;RP1=0, select bank0
  9630     0753  00A3               	movwf	??_change_pwd
  9631     0754                     u7297:
  9632     0754  0BA3               	decfsz	??_change_pwd,f
  9633     0755  2F54               	goto	u7297
  9634     0756  2F57               	nop2
  9635     0757                     l5052:
  9636                           
  9637                           ;car_black_box_def.c: 522:     if(i==8){
  9638     0757  3008               	movlw	8
  9639     0758  1283               	bcf	3,5	;RP0=0, select bank0
  9640     0759  1303               	bcf	3,6	;RP1=0, select bank0
  9641     075A  0652               	xorwf	change_pwd@i,w
  9642     075B  1D03               	btfss	3,2
  9643     075C  2F5E               	goto	u5631
  9644     075D  2F5F               	goto	u5630
  9645     075E                     u5631:
  9646     075E  2FED               	goto	l467
  9647     075F                     u5630:
  9648     075F                     l5054:
  9649                           
  9650                           ;car_black_box_def.c: 523:         clear_screen();
  9651     075F  160A  158A  2741  120A  118A  	fcall	_clear_screen
  9652                           
  9653                           ;car_black_box_def.c: 524:         clcd_write(0x0C, 0);
  9654     0764  01F2               	clrf	clcd_write@mode
  9655     0765  300C               	movlw	12
  9656     0766  160A  118A  234B  120A  118A  	fcall	_clcd_write
  9657     076B                     l5056:
  9658                           
  9659                           ;car_black_box_def.c: 525:         _delay((unsigned long)((100)*(20000000/4000000.0)));
  9660     076B  30A5               	movlw	165
  9661     076C  1283               	bcf	3,5	;RP0=0, select bank0
  9662     076D  1303               	bcf	3,6	;RP1=0, select bank0
  9663     076E  00A3               	movwf	??_change_pwd
  9664     076F                     u7307:
  9665     076F  0BA3               	decfsz	??_change_pwd,f
  9666     0770  2F6F               	goto	u7307
  9667     0771  2F72               	nop2
  9668     0772                     l5058:
  9669                           
  9670                           ;car_black_box_def.c: 526:         if(strncmp(new_pwd, reenter_pwd,4)==0){
  9671     0772  30D3               	movlw	(low (change_pwd@new_pwd| 0))& (0+255)
  9672     0773  00F2               	movwf	strncmp@l
  9673     0774  30CF               	movlw	(low (change_pwd@reenter_pwd| 0))& (0+255)
  9674     0775  00F3               	movwf	strncmp@r
  9675     0776  3004               	movlw	4
  9676     0777  00F4               	movwf	strncmp@n
  9677     0778  3000               	movlw	0
  9678     0779  00F5               	movwf	strncmp@n+1
  9679     077A  160A  118A  23BE  120A  118A  	fcall	_strncmp
  9680     077F  0872               	movf	?_strncmp,w
  9681     0780  0473               	iorwf	?_strncmp+1,w
  9682     0781  1D03               	btfss	3,2
  9683     0782  2F84               	goto	u5641
  9684     0783  2F85               	goto	u5640
  9685     0784                     u5641:
  9686     0784  2FD3               	goto	l5082
  9687     0785                     u5640:
  9688     0785                     l5060:
  9689                           
  9690                           ;car_black_box_def.c: 527:             for(int i=0; i<4; i++){
  9691     0785  1283               	bcf	3,5	;RP0=0, select bank0
  9692     0786  1303               	bcf	3,6	;RP1=0, select bank0
  9693     0787  01A9               	clrf	change_pwd@i_422
  9694     0788  01AA               	clrf	change_pwd@i_422+1
  9695     0789                     l5066:
  9696                           
  9697                           ;car_black_box_def.c: 528:                 ext_eeprom_24C02_str_write(i,&new_pwd[i]);
  9698     0789  30D3               	movlw	(low (change_pwd@new_pwd| 0))& (0+255)
  9699     078A  1283               	bcf	3,5	;RP0=0, select bank0
  9700     078B  1303               	bcf	3,6	;RP1=0, select bank0
  9701     078C  0729               	addwf	change_pwd@i_422,w
  9702     078D  00A3               	movwf	??_change_pwd
  9703     078E  0823               	movf	??_change_pwd,w
  9704     078F  00F5               	movwf	ext_eeprom_24C02_str_write@str
  9705     0790  3000               	movlw	0
  9706     0791  00F6               	movwf	ext_eeprom_24C02_str_write@str+1
  9707     0792  0829               	movf	change_pwd@i_422,w
  9708     0793  160A  118A  21D4  120A  118A  	fcall	_ext_eeprom_24C02_str_write
  9709     0798                     l5068:
  9710                           
  9711                           ;car_black_box_def.c: 529:             }
  9712     0798  3001               	movlw	1
  9713     0799  1283               	bcf	3,5	;RP0=0, select bank0
  9714     079A  1303               	bcf	3,6	;RP1=0, select bank0
  9715     079B  07A9               	addwf	change_pwd@i_422,f
  9716     079C  1803               	skipnc
  9717     079D  0AAA               	incf	change_pwd@i_422+1,f
  9718     079E  3000               	movlw	0
  9719     079F  07AA               	addwf	change_pwd@i_422+1,f
  9720     07A0                     l5070:
  9721     07A0  082A               	movf	change_pwd@i_422+1,w
  9722     07A1  3A80               	xorlw	128
  9723     07A2  00FF               	movwf	btemp+1
  9724     07A3  3080               	movlw	128
  9725     07A4  027F               	subwf	btemp+1,w
  9726     07A5  1D03               	skipz
  9727     07A6  2FA9               	goto	u5655
  9728     07A7  3004               	movlw	4
  9729     07A8  0229               	subwf	change_pwd@i_422,w
  9730     07A9                     u5655:
  9731     07A9  1C03               	skipc
  9732     07AA  2FAC               	goto	u5651
  9733     07AB  2FAD               	goto	u5650
  9734     07AC                     u5651:
  9735     07AC  2F89               	goto	l5066
  9736     07AD                     u5650:
  9737     07AD                     l5072:
  9738                           
  9739                           ;car_black_box_def.c: 530:             clcd_print("Password change", (0x80 + 0));
  9740     07AD  3053               	movlw	low (STR_37| (0+32768))
  9741     07AE  00F6               	movwf	clcd_print@str
  9742     07AF  3090               	movlw	high (STR_37| (0+32768))
  9743     07B0  00F7               	movwf	clcd_print@str+1
  9744     07B1  3080               	movlw	128
  9745     07B2  00F8               	movwf	clcd_print@addr
  9746     07B3  160A  118A  2255  120A  118A  	fcall	_clcd_print
  9747                           
  9748                           ;car_black_box_def.c: 531:             clcd_print("successful..",(0xC0 + 0));
  9749     07B8  30B9               	movlw	low (STR_38| (0+32768))
  9750     07B9  00F6               	movwf	clcd_print@str
  9751     07BA  3090               	movlw	high (STR_38| (0+32768))
  9752     07BB  00F7               	movwf	clcd_print@str+1
  9753     07BC  30C0               	movlw	192
  9754     07BD  00F8               	movwf	clcd_print@addr
  9755     07BE  160A  118A  2255  120A  118A  	fcall	_clcd_print
  9756     07C3                     l5074:
  9757                           
  9758                           ;car_black_box_def.c: 532:             _delay((unsigned long)((200)*(20000000/4000.0)));
  9759     07C3  3006               	movlw	6
  9760     07C4  1283               	bcf	3,5	;RP0=0, select bank0
  9761     07C5  1303               	bcf	3,6	;RP1=0, select bank0
  9762     07C6  00A5               	movwf	??_change_pwd+2
  9763     07C7  3013               	movlw	19
  9764     07C8  00A4               	movwf	??_change_pwd+1
  9765     07C9  30AD               	movlw	173
  9766     07CA  00A3               	movwf	??_change_pwd
  9767     07CB                     u7317:
  9768     07CB  0BA3               	decfsz	??_change_pwd,f
  9769     07CC  2FCB               	goto	u7317
  9770     07CD  0BA4               	decfsz	??_change_pwd+1,f
  9771     07CE  2FCB               	goto	u7317
  9772     07CF  0BA5               	decfsz	??_change_pwd+2,f
  9773     07D0  2FCB               	goto	u7317
  9774     07D1                     l5076:
  9775                           
  9776                           ;car_black_box_def.c: 533:             return 0x70;
  9777     07D1  3070               	movlw	112
  9778     07D2  2FED               	goto	l467
  9779     07D3                     l5082:
  9780                           
  9781                           ;car_black_box_def.c: 536:         {;car_black_box_def.c: 537:            clcd_print("NO
      +                          T MATCHED..",(0x80 + 0));
  9782     07D3  3081               	movlw	low (STR_39| (0+32768))
  9783     07D4  00F6               	movwf	clcd_print@str
  9784     07D5  3090               	movlw	high (STR_39| (0+32768))
  9785     07D6  00F7               	movwf	clcd_print@str+1
  9786     07D7  3080               	movlw	128
  9787     07D8  00F8               	movwf	clcd_print@addr
  9788     07D9  160A  118A  2255  120A  118A  	fcall	_clcd_print
  9789     07DE                     l5084:
  9790                           
  9791                           ;car_black_box_def.c: 538:            _delay((unsigned long)((2000)*(20000000/4000.0)));
  9792     07DE  3033               	movlw	51
  9793     07DF  1283               	bcf	3,5	;RP0=0, select bank0
  9794     07E0  1303               	bcf	3,6	;RP1=0, select bank0
  9795     07E1  00A5               	movwf	??_change_pwd+2
  9796     07E2  30BB               	movlw	187
  9797     07E3  00A4               	movwf	??_change_pwd+1
  9798     07E4  30DF               	movlw	223
  9799     07E5  00A3               	movwf	??_change_pwd
  9800     07E6                     u7327:
  9801     07E6  0BA3               	decfsz	??_change_pwd,f
  9802     07E7  2FE6               	goto	u7327
  9803     07E8  0BA4               	decfsz	??_change_pwd+1,f
  9804     07E9  2FE6               	goto	u7327
  9805     07EA  0BA5               	decfsz	??_change_pwd+2,f
  9806     07EB  2FE6               	goto	u7327
  9807     07EC                     l5086:
  9808                           
  9809                           ;car_black_box_def.c: 539:            return 0x71;
  9810     07EC  3071               	movlw	113
  9811     07ED                     l467:
  9812     07ED  0008               	return
  9813     07EE                     __end_of_change_pwd:
  9814                           
  9815                           	psect	text39
  9816     13BE                     __ptext39:	
  9817 ;; *************** function _strncmp *****************
  9818 ;; Defined at:
  9819 ;;		line 3 in file "C:\Program Files\Microchip\xc8\v3.00\pic\sources\c99\common\strncmp.c"
  9820 ;; Parameters:    Size  Location     Type
  9821 ;;  l               1    2[COMMON] PTR const unsigned char 
  9822 ;;		 -> change_pwd@new_pwd(4), login@stored_pwd(4), 
  9823 ;;  r               1    3[COMMON] PTR const unsigned char 
  9824 ;;		 -> change_pwd@reenter_pwd(4), login@user_password(4), 
  9825 ;;  n               2    4[COMMON] unsigned int 
  9826 ;; Auto vars:     Size  Location     Type
  9827 ;;		None
  9828 ;; Return value:  Size  Location     Type
  9829 ;;                  2    2[COMMON] int 
  9830 ;; Registers used:
  9831 ;;		wreg, fsr0l, fsr0h, status,2, status,0
  9832 ;; Tracked objects:
  9833 ;;		On entry : 0/0
  9834 ;;		On exit  : 0/0
  9835 ;;		Unchanged: 0/0
  9836 ;; Data sizes:     COMMON   BANK0   BANK1   BANK3   BANK2
  9837 ;;      Params:         4       0       0       0       0
  9838 ;;      Locals:         0       0       0       0       0
  9839 ;;      Temps:          2       0       0       0       0
  9840 ;;      Totals:         6       0       0       0       0
  9841 ;;Total ram usage:        6 bytes
  9842 ;; Hardware stack levels used: 1
  9843 ;; Hardware stack levels required when called: 1
  9844 ;; This function calls:
  9845 ;;		Nothing
  9846 ;; This function is called by:
  9847 ;;		_login
  9848 ;;		_change_pwd
  9849 ;; This function uses a non-reentrant model
  9850 ;;
  9851                           
  9852     13BE                     _strncmp:	
  9853                           ;psect for function _strncmp
  9854                           
  9855     13BE                     l4416:	
  9856                           ;incstack = 0
  9857                           ; Regs used in _strncmp: [wreg-fsr0h+status,2+status,0]
  9858                           
  9859     13BE  3001               	movlw	1
  9860     13BF  02F4               	subwf	strncmp@n,f
  9861     13C0  3000               	movlw	0
  9862     13C1  1C03               	skipc
  9863     13C2  03F5               	decf	strncmp@n+1,f
  9864     13C3  02F5               	subwf	strncmp@n+1,f
  9865     13C4  0A74               	incf	strncmp@n,w
  9866     13C5  1D03               	skipz
  9867     13C6  2BCB               	goto	u4801
  9868     13C7  0A75               	incf	strncmp@n+1,w
  9869     13C8  1D03               	btfss	3,2
  9870     13C9  2BCB               	goto	u4801
  9871     13CA  2BCC               	goto	u4800
  9872     13CB                     u4801:
  9873     13CB  2BD9               	goto	l4426
  9874     13CC                     u4800:
  9875     13CC                     l4418:
  9876     13CC  01F2               	clrf	?_strncmp
  9877     13CD  01F3               	clrf	?_strncmp+1
  9878     13CE  2C08               	goto	l1113
  9879     13CF                     l4422:
  9880     13CF  3001               	movlw	1
  9881     13D0  07F2               	addwf	strncmp@l,f
  9882     13D1  3001               	movlw	1
  9883     13D2  07F3               	addwf	strncmp@r,f
  9884     13D3                     l4424:
  9885     13D3  3001               	movlw	1
  9886     13D4  02F4               	subwf	strncmp@n,f
  9887     13D5  3000               	movlw	0
  9888     13D6  1C03               	skipc
  9889     13D7  03F5               	decf	strncmp@n+1,f
  9890     13D8  02F5               	subwf	strncmp@n+1,f
  9891     13D9                     l4426:
  9892     13D9  0872               	movf	strncmp@l,w
  9893     13DA  0084               	movwf	4
  9894     13DB  1383               	bcf	3,7	;select IRP bank0
  9895     13DC  0800               	movf	0,w
  9896     13DD  1903               	btfsc	3,2
  9897     13DE  2BE0               	goto	u4811
  9898     13DF  2BE1               	goto	u4810
  9899     13E0                     u4811:
  9900     13E0  2BFA               	goto	l4434
  9901     13E1                     u4810:
  9902     13E1                     l4428:
  9903     13E1  0873               	movf	strncmp@r,w
  9904     13E2  0084               	movwf	4
  9905     13E3  0800               	movf	0,w
  9906     13E4  1903               	btfsc	3,2
  9907     13E5  2BE7               	goto	u4821
  9908     13E6  2BE8               	goto	u4820
  9909     13E7                     u4821:
  9910     13E7  2BFA               	goto	l4434
  9911     13E8                     u4820:
  9912     13E8                     l4430:
  9913     13E8  0874               	movf	strncmp@n,w
  9914     13E9  0475               	iorwf	strncmp@n+1,w
  9915     13EA  1903               	btfsc	3,2
  9916     13EB  2BED               	goto	u4831
  9917     13EC  2BEE               	goto	u4830
  9918     13ED                     u4831:
  9919     13ED  2BFA               	goto	l4434
  9920     13EE                     u4830:
  9921     13EE                     l4432:
  9922     13EE  0873               	movf	strncmp@r,w
  9923     13EF  0084               	movwf	4
  9924     13F0  0800               	movf	0,w
  9925     13F1  00F6               	movwf	??_strncmp
  9926     13F2  0872               	movf	strncmp@l,w
  9927     13F3  0084               	movwf	4
  9928     13F4  0800               	movf	0,w
  9929     13F5  0676               	xorwf	??_strncmp,w
  9930     13F6  1903               	skipnz
  9931     13F7  2BF9               	goto	u4841
  9932     13F8  2BFA               	goto	u4840
  9933     13F9                     u4841:
  9934     13F9  2BCF               	goto	l4422
  9935     13FA                     u4840:
  9936     13FA                     l4434:
  9937     13FA  0873               	movf	strncmp@r,w
  9938     13FB  0084               	movwf	4
  9939     13FC  0800               	movf	0,w
  9940     13FD  00F6               	movwf	??_strncmp
  9941     13FE  0872               	movf	strncmp@l,w
  9942     13FF  0084               	movwf	4
  9943     1400  0800               	movf	0,w
  9944     1401  00F7               	movwf	??_strncmp+1
  9945     1402  0876               	movf	??_strncmp,w
  9946     1403  0277               	subwf	??_strncmp+1,w
  9947     1404  00F2               	movwf	?_strncmp
  9948     1405  01F3               	clrf	?_strncmp+1
  9949     1406  1C03               	skipc
  9950     1407  03F3               	decf	?_strncmp+1,f
  9951     1408                     l1113:
  9952     1408  0008               	return
  9953     1409                     __end_of_strncmp:
  9954                           
  9955                           	psect	text40
  9956     11D4                     __ptext40:	
  9957 ;; *************** function _ext_eeprom_24C02_str_write *****************
  9958 ;; Defined at:
  9959 ;;		line 41 in file "EEprom.c"
  9960 ;; Parameters:    Size  Location     Type
  9961 ;;  addr            1    wreg     unsigned char 
  9962 ;;  str             2    5[COMMON] PTR unsigned char 
  9963 ;;		 -> change_pwd@new_pwd(4), clear_log@temp(2), log(11), STR_8(5), 
  9964 ;; Auto vars:     Size  Location     Type
  9965 ;;  addr            1    7[COMMON] unsigned char 
  9966 ;; Return value:  Size  Location     Type
  9967 ;;                  1    wreg      void 
  9968 ;; Registers used:
  9969 ;;		wreg, fsr0l, fsr0h, status,2, status,0, btemp+1, pclath, cstack
  9970 ;; Tracked objects:
  9971 ;;		On entry : 0/0
  9972 ;;		On exit  : 0/0
  9973 ;;		Unchanged: 0/0
  9974 ;; Data sizes:     COMMON   BANK0   BANK1   BANK3   BANK2
  9975 ;;      Params:         2       0       0       0       0
  9976 ;;      Locals:         1       0       0       0       0
  9977 ;;      Temps:          0       0       0       0       0
  9978 ;;      Totals:         3       0       0       0       0
  9979 ;;Total ram usage:        3 bytes
  9980 ;; Hardware stack levels used: 1
  9981 ;; Hardware stack levels required when called: 4
  9982 ;; This function calls:
  9983 ;;		_ext_eeprom_24C02_byte_write
  9984 ;; This function is called by:
  9985 ;;		_main
  9986 ;;		_store_event
  9987 ;;		_clear_log
  9988 ;;		_change_pwd
  9989 ;; This function uses a non-reentrant model
  9990 ;;
  9991                           
  9992     11D4                     _ext_eeprom_24C02_str_write:	
  9993                           ;psect for function _ext_eeprom_24C02_str_write
  9994                           
  9995                           
  9996                           ;incstack = 0
  9997                           ; Regs used in _ext_eeprom_24C02_str_write: [wreg-fsr0h+status,2+status,0+btemp+1+pclath
      +                          +cstack]
  9998                           ;ext_eeprom_24C02_str_write@addr stored from wreg
  9999     11D4  00F7               	movwf	ext_eeprom_24C02_str_write@addr
 10000     11D5                     l4160:
 10001                           
 10002                           ;EEprom.c: 42:     while (*str != '\0')
 10003     11D5  29EE               	goto	l4168
 10004     11D6                     l4162:
 10005                           
 10006                           ;EEprom.c: 43:     {;EEprom.c: 44:         ext_eeprom_24C02_byte_write(addr, *str);
 10007     11D6  0876               	movf	ext_eeprom_24C02_str_write@str+1,w
 10008     11D7  00FF               	movwf	btemp+1
 10009     11D8  0875               	movf	ext_eeprom_24C02_str_write@str,w
 10010     11D9  0084               	movwf	4
 10011     11DA  120A  118A  27EE  160A  118A  	fcall	stringtab
 10012     11DF  00F3               	movwf	ext_eeprom_24C02_byte_write@data
 10013     11E0  0877               	movf	ext_eeprom_24C02_str_write@addr,w
 10014     11E1  160A  158A  27C4  160A  118A  	fcall	_ext_eeprom_24C02_byte_write
 10015     11E6                     l4164:
 10016                           
 10017                           ;EEprom.c: 45:         addr++;
 10018     11E6  3001               	movlw	1
 10019     11E7  07F7               	addwf	ext_eeprom_24C02_str_write@addr,f
 10020     11E8                     l4166:
 10021                           
 10022                           ;EEprom.c: 46:         str++;
 10023     11E8  3001               	movlw	1
 10024     11E9  07F5               	addwf	ext_eeprom_24C02_str_write@str,f
 10025     11EA  1803               	skipnc
 10026     11EB  0AF6               	incf	ext_eeprom_24C02_str_write@str+1,f
 10027     11EC  3000               	movlw	0
 10028     11ED  07F6               	addwf	ext_eeprom_24C02_str_write@str+1,f
 10029     11EE                     l4168:
 10030                           
 10031                           ;EEprom.c: 42:     while (*str != '\0')
 10032     11EE  0876               	movf	ext_eeprom_24C02_str_write@str+1,w
 10033     11EF  1283               	bcf	3,5	;RP0=0, select bank0
 10034     11F0  1303               	bcf	3,6	;RP1=0, select bank0
 10035     11F1  00FF               	movwf	btemp+1
 10036     11F2  0875               	movf	ext_eeprom_24C02_str_write@str,w
 10037     11F3  0084               	movwf	4
 10038     11F4  120A  118A  27EE  160A  118A  	fcall	stringtab
 10039     11F9  3A00               	xorlw	0
 10040     11FA  1D03               	skipz
 10041     11FB  29FD               	goto	u4391
 10042     11FC  29FE               	goto	u4390
 10043     11FD                     u4391:
 10044     11FD  29D6               	goto	l4162
 10045     11FE                     u4390:
 10046     11FE                     l493:
 10047     11FE  0008               	return
 10048     11FF                     __end_of_ext_eeprom_24C02_str_write:
 10049                           
 10050                           	psect	text41
 10051     1FC4                     __ptext41:	
 10052 ;; *************** function _ext_eeprom_24C02_byte_write *****************
 10053 ;; Defined at:
 10054 ;;		line 27 in file "EEprom.c"
 10055 ;; Parameters:    Size  Location     Type
 10056 ;;  addr            1    wreg     unsigned char 
 10057 ;;  data            1    3[COMMON] unsigned char 
 10058 ;; Auto vars:     Size  Location     Type
 10059 ;;  addr            1    4[COMMON] unsigned char 
 10060 ;; Return value:  Size  Location     Type
 10061 ;;                  1    wreg      void 
 10062 ;; Registers used:
 10063 ;;		wreg, status,2, status,0, pclath, cstack
 10064 ;; Tracked objects:
 10065 ;;		On entry : 0/0
 10066 ;;		On exit  : 0/0
 10067 ;;		Unchanged: 0/0
 10068 ;; Data sizes:     COMMON   BANK0   BANK1   BANK3   BANK2
 10069 ;;      Params:         1       0       0       0       0
 10070 ;;      Locals:         1       0       0       0       0
 10071 ;;      Temps:          0       0       0       0       0
 10072 ;;      Totals:         2       0       0       0       0
 10073 ;;Total ram usage:        2 bytes
 10074 ;; Hardware stack levels used: 1
 10075 ;; Hardware stack levels required when called: 3
 10076 ;; This function calls:
 10077 ;;		_i2c_start
 10078 ;;		_i2c_stop
 10079 ;;		_i2c_write
 10080 ;; This function is called by:
 10081 ;;		_ext_eeprom_24C02_str_write
 10082 ;; This function uses a non-reentrant model
 10083 ;;
 10084                           
 10085     1FC4                     _ext_eeprom_24C02_byte_write:	
 10086                           ;psect for function _ext_eeprom_24C02_byte_write
 10087                           
 10088                           
 10089                           ;incstack = 0
 10090                           ; Regs used in _ext_eeprom_24C02_byte_write: [wreg+status,2+status,0+pclath+cstack]
 10091                           ;ext_eeprom_24C02_byte_write@addr stored from wreg
 10092     1FC4  00F4               	movwf	ext_eeprom_24C02_byte_write@addr
 10093     1FC5                     l4158:
 10094                           
 10095                           ;EEprom.c: 29:     i2c_start();
 10096     1FC5  160A  158A  26DB  160A  158A  	fcall	_i2c_start
 10097                           
 10098                           ;EEprom.c: 31:     i2c_write(0b10100000);
 10099     1FCA  30A0               	movlw	160
 10100     1FCB  160A  158A  26ED  160A  158A  	fcall	_i2c_write
 10101                           
 10102                           ;EEprom.c: 33:     i2c_write(addr);
 10103     1FD0  0874               	movf	ext_eeprom_24C02_byte_write@addr,w
 10104     1FD1  160A  158A  26ED  160A  158A  	fcall	_i2c_write
 10105                           
 10106                           ;EEprom.c: 35:     i2c_write(data);
 10107     1FD6  0873               	movf	ext_eeprom_24C02_byte_write@data,w
 10108     1FD7  160A  158A  26ED  160A  158A  	fcall	_i2c_write
 10109                           
 10110                           ;EEprom.c: 37:     i2c_stop();
 10111     1FDC  160A  158A  26E4  160A  158A  	fcall	_i2c_stop
 10112     1FE1                     l487:
 10113     1FE1  0008               	return
 10114     1FE2                     __end_of_ext_eeprom_24C02_byte_write:
 10115                           
 10116                           	psect	text42
 10117     1EED                     __ptext42:	
 10118 ;; *************** function _i2c_write *****************
 10119 ;; Defined at:
 10120 ;;		line 65 in file "i2c.c"
 10121 ;; Parameters:    Size  Location     Type
 10122 ;;  data            1    wreg     unsigned char 
 10123 ;; Auto vars:     Size  Location     Type
 10124 ;;  data            1    2[COMMON] unsigned char 
 10125 ;; Return value:  Size  Location     Type
 10126 ;;                  2  231[None  ] int 
 10127 ;; Registers used:
 10128 ;;		wreg, status,2, status,0, pclath, cstack
 10129 ;; Tracked objects:
 10130 ;;		On entry : 0/0
 10131 ;;		On exit  : 0/0
 10132 ;;		Unchanged: 0/0
 10133 ;; Data sizes:     COMMON   BANK0   BANK1   BANK3   BANK2
 10134 ;;      Params:         0       0       0       0       0
 10135 ;;      Locals:         1       0       0       0       0
 10136 ;;      Temps:          0       0       0       0       0
 10137 ;;      Totals:         1       0       0       0       0
 10138 ;;Total ram usage:        1 bytes
 10139 ;; Hardware stack levels used: 1
 10140 ;; Hardware stack levels required when called: 2
 10141 ;; This function calls:
 10142 ;;		_i2c_wait_for_idle
 10143 ;; This function is called by:
 10144 ;;		_read_ds1307
 10145 ;;		_write_ds1307
 10146 ;;		_ext_eeprom_24C02_read
 10147 ;;		_ext_eeprom_24C02_byte_write
 10148 ;; This function uses a non-reentrant model
 10149 ;;
 10150                           
 10151     1EED                     _i2c_write:	
 10152                           ;psect for function _i2c_write
 10153                           
 10154                           
 10155                           ;incstack = 0
 10156                           ; Regs used in _i2c_write: [wreg+status,2+status,0+pclath+cstack]
 10157                           ;i2c_write@data stored from wreg
 10158     1EED  00F2               	movwf	i2c_write@data
 10159     1EEE                     l4124:
 10160                           
 10161                           ;i2c.c: 65: int i2c_write(unsigned char data);i2c.c: 66: {;i2c.c: 67:     i2c_wait_for_i
      +                          dle();
 10162     1EEE  160A  158A  2719  160A  158A  	fcall	_i2c_wait_for_idle
 10163     1EF3                     l4126:
 10164                           
 10165                           ;i2c.c: 68:     SSPBUF = data;
 10166     1EF3  0872               	movf	i2c_write@data,w
 10167     1EF4  1283               	bcf	3,5	;RP0=0, select bank0
 10168     1EF5  1303               	bcf	3,6	;RP1=0, select bank0
 10169     1EF6  0093               	movwf	19	;volatile
 10170     1EF7                     l4128:
 10171     1EF7                     l232:	
 10172                           ;i2c.c: 70:     return !ACKSTAT;;	Return value of _i2c_write is never used
 10173                           
 10174     1EF7  0008               	return
 10175     1EF8                     __end_of_i2c_write:
 10176                           
 10177                           	psect	text43
 10178     1EE4                     __ptext43:	
 10179 ;; *************** function _i2c_stop *****************
 10180 ;; Defined at:
 10181 ;;		line 35 in file "i2c.c"
 10182 ;; Parameters:    Size  Location     Type
 10183 ;;		None
 10184 ;; Auto vars:     Size  Location     Type
 10185 ;;		None
 10186 ;; Return value:  Size  Location     Type
 10187 ;;                  1    wreg      void 
 10188 ;; Registers used:
 10189 ;;		wreg, status,2, status,0, pclath, cstack
 10190 ;; Tracked objects:
 10191 ;;		On entry : 0/0
 10192 ;;		On exit  : 0/0
 10193 ;;		Unchanged: 0/0
 10194 ;; Data sizes:     COMMON   BANK0   BANK1   BANK3   BANK2
 10195 ;;      Params:         0       0       0       0       0
 10196 ;;      Locals:         0       0       0       0       0
 10197 ;;      Temps:          0       0       0       0       0
 10198 ;;      Totals:         0       0       0       0       0
 10199 ;;Total ram usage:        0 bytes
 10200 ;; Hardware stack levels used: 1
 10201 ;; Hardware stack levels required when called: 2
 10202 ;; This function calls:
 10203 ;;		_i2c_wait_for_idle
 10204 ;; This function is called by:
 10205 ;;		_i2c_rep_start
 10206 ;;		_read_ds1307
 10207 ;;		_write_ds1307
 10208 ;;		_ext_eeprom_24C02_read
 10209 ;;		_ext_eeprom_24C02_byte_write
 10210 ;; This function uses a non-reentrant model
 10211 ;;
 10212                           
 10213     1EE4                     _i2c_stop:	
 10214                           ;psect for function _i2c_stop
 10215                           
 10216     1EE4                     l4104:	
 10217                           ;incstack = 0
 10218                           ; Regs used in _i2c_stop: [wreg+status,2+status,0+pclath+cstack]
 10219                           
 10220                           
 10221                           ;i2c.c: 37:     i2c_wait_for_idle();
 10222     1EE4  160A  158A  2719  160A  158A  	fcall	_i2c_wait_for_idle
 10223     1EE9                     l4106:
 10224                           
 10225                           ;i2c.c: 38:     PEN = 1;
 10226     1EE9  1683               	bsf	3,5	;RP0=1, select bank1
 10227     1EEA  1303               	bcf	3,6	;RP1=0, select bank1
 10228     1EEB  1511               	bsf	17,2	;volatile
 10229     1EEC                     l224:
 10230     1EEC  0008               	return
 10231     1EED                     __end_of_i2c_stop:
 10232                           
 10233                           	psect	text44
 10234     1EDB                     __ptext44:	
 10235 ;; *************** function _i2c_start *****************
 10236 ;; Defined at:
 10237 ;;		line 22 in file "i2c.c"
 10238 ;; Parameters:    Size  Location     Type
 10239 ;;		None
 10240 ;; Auto vars:     Size  Location     Type
 10241 ;;		None
 10242 ;; Return value:  Size  Location     Type
 10243 ;;                  1    wreg      void 
 10244 ;; Registers used:
 10245 ;;		wreg, status,2, status,0, pclath, cstack
 10246 ;; Tracked objects:
 10247 ;;		On entry : 0/0
 10248 ;;		On exit  : 0/0
 10249 ;;		Unchanged: 0/0
 10250 ;; Data sizes:     COMMON   BANK0   BANK1   BANK3   BANK2
 10251 ;;      Params:         0       0       0       0       0
 10252 ;;      Locals:         0       0       0       0       0
 10253 ;;      Temps:          0       0       0       0       0
 10254 ;;      Totals:         0       0       0       0       0
 10255 ;;Total ram usage:        0 bytes
 10256 ;; Hardware stack levels used: 1
 10257 ;; Hardware stack levels required when called: 2
 10258 ;; This function calls:
 10259 ;;		_i2c_wait_for_idle
 10260 ;; This function is called by:
 10261 ;;		_i2c_rep_start
 10262 ;;		_read_ds1307
 10263 ;;		_write_ds1307
 10264 ;;		_ext_eeprom_24C02_read
 10265 ;;		_ext_eeprom_24C02_byte_write
 10266 ;; This function uses a non-reentrant model
 10267 ;;
 10268                           
 10269     1EDB                     _i2c_start:	
 10270                           ;psect for function _i2c_start
 10271                           
 10272     1EDB                     l4100:	
 10273                           ;incstack = 0
 10274                           ; Regs used in _i2c_start: [wreg+status,2+status,0+pclath+cstack]
 10275                           
 10276                           
 10277                           ;i2c.c: 24:     i2c_wait_for_idle();
 10278     1EDB  160A  158A  2719  160A  158A  	fcall	_i2c_wait_for_idle
 10279     1EE0                     l4102:
 10280                           
 10281                           ;i2c.c: 25:     SEN = 1;
 10282     1EE0  1683               	bsf	3,5	;RP0=1, select bank1
 10283     1EE1  1303               	bcf	3,6	;RP1=0, select bank1
 10284     1EE2  1411               	bsf	17,0	;volatile
 10285     1EE3                     l218:
 10286     1EE3  0008               	return
 10287     1EE4                     __end_of_i2c_start:
 10288                           
 10289                           	psect	text45
 10290     1F19                     __ptext45:	
 10291 ;; *************** function _i2c_wait_for_idle *****************
 10292 ;; Defined at:
 10293 ;;		line 16 in file "i2c.c"
 10294 ;; Parameters:    Size  Location     Type
 10295 ;;		None
 10296 ;; Auto vars:     Size  Location     Type
 10297 ;;		None
 10298 ;; Return value:  Size  Location     Type
 10299 ;;                  1    wreg      void 
 10300 ;; Registers used:
 10301 ;;		wreg, status,2
 10302 ;; Tracked objects:
 10303 ;;		On entry : 0/0
 10304 ;;		On exit  : 0/0
 10305 ;;		Unchanged: 0/0
 10306 ;; Data sizes:     COMMON   BANK0   BANK1   BANK3   BANK2
 10307 ;;      Params:         0       0       0       0       0
 10308 ;;      Locals:         0       0       0       0       0
 10309 ;;      Temps:          0       0       0       0       0
 10310 ;;      Totals:         0       0       0       0       0
 10311 ;;Total ram usage:        0 bytes
 10312 ;; Hardware stack levels used: 1
 10313 ;; Hardware stack levels required when called: 1
 10314 ;; This function calls:
 10315 ;;		Nothing
 10316 ;; This function is called by:
 10317 ;;		_i2c_start
 10318 ;;		_i2c_stop
 10319 ;;		_i2c_read
 10320 ;;		_i2c_write
 10321 ;; This function uses a non-reentrant model
 10322 ;;
 10323                           
 10324     1F19                     _i2c_wait_for_idle:	
 10325                           ;psect for function _i2c_wait_for_idle
 10326                           
 10327     1F19                     l4096:	
 10328                           ;incstack = 0
 10329                           ; Regs used in _i2c_wait_for_idle: [wreg+status,2]
 10330                           
 10331     1F19                     l212:	
 10332                           ;i2c.c: 19:     while (R_nW || (SSPCON2 & 0x1F));
 10333                           
 10334     1F19  1683               	bsf	3,5	;RP0=1, select bank1
 10335     1F1A  1303               	bcf	3,6	;RP1=0, select bank1
 10336     1F1B  1914               	btfsc	20,2	;volatile
 10337     1F1C  2F1E               	goto	u4331
 10338     1F1D  2F1F               	goto	u4330
 10339     1F1E                     u4331:
 10340     1F1E  2F19               	goto	l212
 10341     1F1F                     u4330:
 10342     1F1F                     l4098:
 10343     1F1F  0811               	movf	17,w	;volatile
 10344     1F20  391F               	andlw	31
 10345     1F21  1D03               	btfss	3,2
 10346     1F22  2F24               	goto	u4341
 10347     1F23  2F25               	goto	u4340
 10348     1F24                     u4341:
 10349     1F24  2F19               	goto	l212
 10350     1F25                     u4340:
 10351     1F25                     l215:
 10352     1F25  0008               	return
 10353     1F26                     __end_of_i2c_wait_for_idle:
 10354                           
 10355                           	psect	text46
 10356     1F41                     __ptext46:	
 10357 ;; *************** function _clear_screen *****************
 10358 ;; Defined at:
 10359 ;;		line 546 in file "car_black_box_def.c"
 10360 ;; Parameters:    Size  Location     Type
 10361 ;;		None
 10362 ;; Auto vars:     Size  Location     Type
 10363 ;;		None
 10364 ;; Return value:  Size  Location     Type
 10365 ;;                  1    wreg      void 
 10366 ;; Registers used:
 10367 ;;		wreg, status,2, status,0, pclath, cstack
 10368 ;; Tracked objects:
 10369 ;;		On entry : 0/0
 10370 ;;		On exit  : 0/0
 10371 ;;		Unchanged: 0/0
 10372 ;; Data sizes:     COMMON   BANK0   BANK1   BANK3   BANK2
 10373 ;;      Params:         0       0       0       0       0
 10374 ;;      Locals:         0       0       0       0       0
 10375 ;;      Temps:          2       0       0       0       0
 10376 ;;      Totals:         2       0       0       0       0
 10377 ;;Total ram usage:        2 bytes
 10378 ;; Hardware stack levels used: 1
 10379 ;; Hardware stack levels required when called: 2
 10380 ;; This function calls:
 10381 ;;		_clcd_write
 10382 ;; This function is called by:
 10383 ;;		_main
 10384 ;;		_login
 10385 ;;		_menu_screen
 10386 ;;		_view_log
 10387 ;;		_clear_log
 10388 ;;		_download_log
 10389 ;;		_set_time
 10390 ;;		_change_pwd
 10391 ;; This function uses a non-reentrant model
 10392 ;;
 10393                           
 10394     1F41                     _clear_screen:	
 10395                           ;psect for function _clear_screen
 10396                           
 10397     1F41                     l4380:	
 10398                           ;incstack = 0
 10399                           ; Regs used in _clear_screen: [wreg+status,2+status,0+pclath+cstack]
 10400                           
 10401                           
 10402                           ;car_black_box_def.c: 548:     clcd_write(0x01,0);
 10403     1F41  01F2               	clrf	clcd_write@mode
 10404     1F42  3001               	movlw	1
 10405     1F43  160A  118A  234B  160A  158A  	fcall	_clcd_write
 10406     1F48                     l4382:
 10407                           
 10408                           ;car_black_box_def.c: 549:     _delay((unsigned long)((500)*(20000000/4000000.0)));
 10409     1F48  3004               	movlw	4
 10410     1F49  00F7               	movwf	??_clear_screen+1
 10411     1F4A  303D               	movlw	61
 10412     1F4B  00F6               	movwf	??_clear_screen
 10413     1F4C                     u7337:
 10414     1F4C  0BF6               	decfsz	??_clear_screen,f
 10415     1F4D  2F4C               	goto	u7337
 10416     1F4E  0BF7               	decfsz	??_clear_screen+1,f
 10417     1F4F  2F4C               	goto	u7337
 10418     1F50  2F51               	nop2
 10419     1F51                     l471:
 10420     1F51  0008               	return
 10421     1F52                     __end_of_clear_screen:
 10422                           
 10423                           	psect	text47
 10424     1FAF                     __ptext47:	
 10425 ;; *************** function _clcd_putch *****************
 10426 ;; Defined at:
 10427 ;;		line 56 in file "clcd.c"
 10428 ;; Parameters:    Size  Location     Type
 10429 ;;  data            1    wreg     const unsigned char 
 10430 ;;  addr            1    0[BANK0 ] unsigned char 
 10431 ;; Auto vars:     Size  Location     Type
 10432 ;;  data            1    1[BANK0 ] const unsigned char 
 10433 ;; Return value:  Size  Location     Type
 10434 ;;                  1    wreg      void 
 10435 ;; Registers used:
 10436 ;;		wreg, status,2, status,0, pclath, cstack
 10437 ;; Tracked objects:
 10438 ;;		On entry : 0/0
 10439 ;;		On exit  : 0/0
 10440 ;;		Unchanged: 0/0
 10441 ;; Data sizes:     COMMON   BANK0   BANK1   BANK3   BANK2
 10442 ;;      Params:         0       1       0       0       0
 10443 ;;      Locals:         0       1       0       0       0
 10444 ;;      Temps:          0       0       0       0       0
 10445 ;;      Totals:         0       2       0       0       0
 10446 ;;Total ram usage:        2 bytes
 10447 ;; Hardware stack levels used: 1
 10448 ;; Hardware stack levels required when called: 2
 10449 ;; This function calls:
 10450 ;;		_clcd_write
 10451 ;; This function is called by:
 10452 ;;		_display_time
 10453 ;;		_display_dashboard
 10454 ;;		_login
 10455 ;;		_menu_screen
 10456 ;;		_set_time
 10457 ;;		_change_pwd
 10458 ;; This function uses a non-reentrant model
 10459 ;;
 10460                           
 10461     1FAF                     _clcd_putch:	
 10462                           ;psect for function _clcd_putch
 10463                           
 10464                           
 10465                           ;incstack = 0
 10466                           ; Regs used in _clcd_putch: [wreg+status,2+status,0+pclath+cstack]
 10467                           ;clcd_putch@data stored from wreg
 10468     1FAF  1283               	bcf	3,5	;RP0=0, select bank0
 10469     1FB0  1303               	bcf	3,6	;RP1=0, select bank0
 10470     1FB1  00A1               	movwf	clcd_putch@data
 10471     1FB2                     l4194:
 10472                           
 10473                           ;clcd.c: 56: void clcd_putch(const char data, unsigned char addr);clcd.c: 57: {;clcd.c: 
      +                          58:     clcd_write(addr, 0);
 10474     1FB2  01F2               	clrf	clcd_write@mode
 10475     1FB3  0820               	movf	clcd_putch@addr,w
 10476     1FB4  160A  118A  234B  160A  158A  	fcall	_clcd_write
 10477                           
 10478                           ;clcd.c: 59:     clcd_write(data, 1);
 10479     1FB9  01F2               	clrf	clcd_write@mode
 10480     1FBA  0AF2               	incf	clcd_write@mode,f
 10481     1FBB  1283               	bcf	3,5	;RP0=0, select bank0
 10482     1FBC  1303               	bcf	3,6	;RP1=0, select bank0
 10483     1FBD  0821               	movf	clcd_putch@data,w
 10484     1FBE  160A  118A  234B  160A  158A  	fcall	_clcd_write
 10485     1FC3                     l153:
 10486     1FC3  0008               	return
 10487     1FC4                     __end_of_clcd_putch:
 10488                           
 10489                           	psect	text48
 10490     1255                     __ptext48:	
 10491 ;; *************** function _clcd_print *****************
 10492 ;; Defined at:
 10493 ;;		line 62 in file "clcd.c"
 10494 ;; Parameters:    Size  Location     Type
 10495 ;;  str             2    6[COMMON] PTR const unsigned char 
 10496 ;;		 -> STR_39(14), STR_38(13), STR_37(16), STR_36(16), 
 10497 ;;		 -> STR_35(12), STR_34(10), STR_31(6), STR_30(8), 
 10498 ;;		 -> STR_29(13), STR_28(13), STR_27(14), get_log(17), 
 10499 ;;		 -> STR_26(17), STR_25(15), STR_24(14), STR_23(15), 
 10500 ;;		 -> STR_22(5), STR_21(9), STR_20(16), STR_19(14), 
 10501 ;;		 -> STR_18(15), STR_17(13), STR_16(9), STR_15(13), 
 10502 ;;		 -> STR_14(10), STR_13(9), STR_12(17), STR_11(17), 
 10503 ;;		 -> STR_10(15), main@event(3), 
 10504 ;;  addr            1    8[COMMON] unsigned char 
 10505 ;; Auto vars:     Size  Location     Type
 10506 ;;		None
 10507 ;; Return value:  Size  Location     Type
 10508 ;;                  1    wreg      void 
 10509 ;; Registers used:
 10510 ;;		wreg, fsr0l, fsr0h, status,2, status,0, btemp+1, pclath, cstack
 10511 ;; Tracked objects:
 10512 ;;		On entry : 0/0
 10513 ;;		On exit  : 0/0
 10514 ;;		Unchanged: 0/0
 10515 ;; Data sizes:     COMMON   BANK0   BANK1   BANK3   BANK2
 10516 ;;      Params:         3       0       0       0       0
 10517 ;;      Locals:         0       0       0       0       0
 10518 ;;      Temps:          0       0       0       0       0
 10519 ;;      Totals:         3       0       0       0       0
 10520 ;;Total ram usage:        3 bytes
 10521 ;; Hardware stack levels used: 1
 10522 ;; Hardware stack levels required when called: 2
 10523 ;; This function calls:
 10524 ;;		_clcd_write
 10525 ;; This function is called by:
 10526 ;;		_main
 10527 ;;		_display_dashboard
 10528 ;;		_login
 10529 ;;		_menu_screen
 10530 ;;		_view_log
 10531 ;;		_clear_log
 10532 ;;		_download_log
 10533 ;;		_set_time
 10534 ;;		_change_pwd
 10535 ;; This function uses a non-reentrant model
 10536 ;;
 10537                           
 10538     1255                     _clcd_print:	
 10539                           ;psect for function _clcd_print
 10540                           
 10541     1255                     l4372:	
 10542                           ;incstack = 0
 10543                           ; Regs used in _clcd_print: [wreg-fsr0h+status,2+status,0+btemp+1+pclath+cstack]
 10544                           
 10545                           
 10546                           ;clcd.c: 62: void clcd_print(const char *str, unsigned char addr);clcd.c: 63: {;clcd.c: 
      +                          64:     clcd_write(addr, 0);
 10547     1255  01F2               	clrf	clcd_write@mode
 10548     1256  0878               	movf	clcd_print@addr,w
 10549     1257  160A  118A  234B  160A  118A  	fcall	_clcd_write
 10550                           
 10551                           ;clcd.c: 66:     while (*str != '\0')
 10552     125C  2A73               	goto	l4378
 10553     125D                     l4374:
 10554                           
 10555                           ;clcd.c: 67:     {;clcd.c: 68:         clcd_write(*str, 1);
 10556     125D  01F2               	clrf	clcd_write@mode
 10557     125E  0AF2               	incf	clcd_write@mode,f
 10558     125F  0877               	movf	clcd_print@str+1,w
 10559     1260  00FF               	movwf	btemp+1
 10560     1261  0876               	movf	clcd_print@str,w
 10561     1262  0084               	movwf	4
 10562     1263  120A  118A  27EE  160A  118A  	fcall	stringtab
 10563     1268  160A  118A  234B  160A  118A  	fcall	_clcd_write
 10564     126D                     l4376:
 10565                           
 10566                           ;clcd.c: 69:         str++;
 10567     126D  3001               	movlw	1
 10568     126E  07F6               	addwf	clcd_print@str,f
 10569     126F  1803               	skipnc
 10570     1270  0AF7               	incf	clcd_print@str+1,f
 10571     1271  3000               	movlw	0
 10572     1272  07F7               	addwf	clcd_print@str+1,f
 10573     1273                     l4378:
 10574                           
 10575                           ;clcd.c: 66:     while (*str != '\0')
 10576     1273  0877               	movf	clcd_print@str+1,w
 10577     1274  1283               	bcf	3,5	;RP0=0, select bank0
 10578     1275  1303               	bcf	3,6	;RP1=0, select bank0
 10579     1276  00FF               	movwf	btemp+1
 10580     1277  0876               	movf	clcd_print@str,w
 10581     1278  0084               	movwf	4
 10582     1279  120A  118A  27EE  160A  118A  	fcall	stringtab
 10583     127E  3A00               	xorlw	0
 10584     127F  1D03               	skipz
 10585     1280  2A82               	goto	u4741
 10586     1281  2A83               	goto	u4740
 10587     1282                     u4741:
 10588     1282  2A5D               	goto	l4374
 10589     1283                     u4740:
 10590     1283                     l159:
 10591     1283  0008               	return
 10592     1284                     __end_of_clcd_print:
 10593                           
 10594                           	psect	text49
 10595     134B                     __ptext49:	
 10596 ;; *************** function _clcd_write *****************
 10597 ;; Defined at:
 10598 ;;		line 4 in file "clcd.c"
 10599 ;; Parameters:    Size  Location     Type
 10600 ;;  byte            1    wreg     unsigned char 
 10601 ;;  mode            1    2[COMMON] unsigned char 
 10602 ;; Auto vars:     Size  Location     Type
 10603 ;;  byte            1    5[COMMON] unsigned char 
 10604 ;; Return value:  Size  Location     Type
 10605 ;;                  1    wreg      void 
 10606 ;; Registers used:
 10607 ;;		wreg, status,2, status,0
 10608 ;; Tracked objects:
 10609 ;;		On entry : 0/0
 10610 ;;		On exit  : 0/0
 10611 ;;		Unchanged: 0/0
 10612 ;; Data sizes:     COMMON   BANK0   BANK1   BANK3   BANK2
 10613 ;;      Params:         1       0       0       0       0
 10614 ;;      Locals:         1       0       0       0       0
 10615 ;;      Temps:          2       0       0       0       0
 10616 ;;      Totals:         4       0       0       0       0
 10617 ;;Total ram usage:        4 bytes
 10618 ;; Hardware stack levels used: 1
 10619 ;; Hardware stack levels required when called: 1
 10620 ;; This function calls:
 10621 ;;		Nothing
 10622 ;; This function is called by:
 10623 ;;		_main
 10624 ;;		_init_display_controller
 10625 ;;		_clcd_putch
 10626 ;;		_clcd_print
 10627 ;;		_login
 10628 ;;		_change_pwd
 10629 ;;		_clear_screen
 10630 ;; This function uses a non-reentrant model
 10631 ;;
 10632                           
 10633     134B                     _clcd_write:	
 10634                           ;psect for function _clcd_write
 10635                           
 10636                           
 10637                           ;incstack = 0
 10638                           ; Regs used in _clcd_write: [wreg+status,2+status,0]
 10639                           ;clcd_write@byte stored from wreg
 10640     134B  00F5               	movwf	clcd_write@byte
 10641     134C                     l4132:
 10642                           
 10643                           ;clcd.c: 4: void clcd_write(unsigned char byte, unsigned char mode);clcd.c: 5: {;clcd.c:
      +                           6:     RE2 = mode;
 10644     134C  1872               	btfsc	clcd_write@mode,0
 10645     134D  2B4F               	goto	u4361
 10646     134E  2B53               	goto	u4360
 10647     134F                     u4361:
 10648     134F  1283               	bcf	3,5	;RP0=0, select bank0
 10649     1350  1303               	bcf	3,6	;RP1=0, select bank0
 10650     1351  1509               	bsf	9,2	;volatile
 10651     1352  2B56               	goto	u4374
 10652     1353                     u4360:
 10653     1353  1283               	bcf	3,5	;RP0=0, select bank0
 10654     1354  1303               	bcf	3,6	;RP1=0, select bank0
 10655     1355  1109               	bcf	9,2	;volatile
 10656     1356                     u4374:
 10657     1356                     l4134:
 10658                           
 10659                           ;clcd.c: 8:     PORTD = byte & 0xF0;
 10660     1356  0875               	movf	clcd_write@byte,w
 10661     1357  39F0               	andlw	240
 10662     1358  0088               	movwf	8	;volatile
 10663     1359                     l4136:
 10664                           
 10665                           ;clcd.c: 9:     RE1 = 1;
 10666     1359  1489               	bsf	9,1	;volatile
 10667     135A                     l4138:
 10668                           
 10669                           ;clcd.c: 10:     _delay((unsigned long)((100)*(20000000/4000000.0)));
 10670     135A  30A6               	movlw	166
 10671     135B  00F3               	movwf	??_clcd_write
 10672     135C                     u7347:
 10673     135C  0BF3               	decfsz	??_clcd_write,f
 10674     135D  2B5C               	goto	u7347
 10675     135E  0000               	nop
 10676     135F                     l4140:
 10677                           
 10678                           ;clcd.c: 11:     RE1 = 0;
 10679     135F  1283               	bcf	3,5	;RP0=0, select bank0
 10680     1360  1303               	bcf	3,6	;RP1=0, select bank0
 10681     1361  1089               	bcf	9,1	;volatile
 10682     1362                     l4142:
 10683                           
 10684                           ;clcd.c: 13:     PORTD = (byte & 0x0F) << 4;
 10685     1362  0875               	movf	clcd_write@byte,w
 10686     1363  390F               	andlw	15
 10687     1364  00F3               	movwf	??_clcd_write
 10688     1365  3003               	movlw	3
 10689     1366                     u4385:
 10690     1366  1003               	clrc
 10691     1367  0DF3               	rlf	??_clcd_write,f
 10692     1368  3EFF               	addlw	-1
 10693     1369  1D03               	skipz
 10694     136A  2B66               	goto	u4385
 10695     136B  1003               	clrc
 10696     136C  0D73               	rlf	??_clcd_write,w
 10697     136D  0088               	movwf	8	;volatile
 10698     136E                     l4144:
 10699                           
 10700                           ;clcd.c: 14:     RE1 = 1;
 10701     136E  1489               	bsf	9,1	;volatile
 10702     136F                     l4146:
 10703                           
 10704                           ;clcd.c: 15:     _delay((unsigned long)((100)*(20000000/4000000.0)));
 10705     136F  30A6               	movlw	166
 10706     1370  00F3               	movwf	??_clcd_write
 10707     1371                     u7357:
 10708     1371  0BF3               	decfsz	??_clcd_write,f
 10709     1372  2B71               	goto	u7357
 10710     1373  0000               	nop
 10711     1374                     l4148:
 10712                           
 10713                           ;clcd.c: 16:     RE1 = 0;
 10714     1374  1283               	bcf	3,5	;RP0=0, select bank0
 10715     1375  1303               	bcf	3,6	;RP1=0, select bank0
 10716     1376  1089               	bcf	9,1	;volatile
 10717     1377                     l4150:
 10718                           
 10719                           ;clcd.c: 18:     _delay((unsigned long)((4100)*(20000000/4000000.0)));
 10720     1377  301B               	movlw	27
 10721     1378  00F4               	movwf	??_clcd_write+1
 10722     1379  309E               	movlw	158
 10723     137A  00F3               	movwf	??_clcd_write
 10724     137B                     u7367:
 10725     137B  0BF3               	decfsz	??_clcd_write,f
 10726     137C  2B7B               	goto	u7367
 10727     137D  0BF4               	decfsz	??_clcd_write+1,f
 10728     137E  2B7B               	goto	u7367
 10729     137F  0000               	nop
 10730     1380                     l144:
 10731     1380  0008               	return
 10732     1381                     __end_of_clcd_write:
 10733                           
 10734                           	psect	text50
 10735     09EF                     __ptext50:	
 10736 ;; *************** function ___xxtofl *****************
 10737 ;; Defined at:
 10738 ;;		line 10 in file "C:\Program Files\Microchip\xc8\v3.00\pic\sources\c99\common\xxtofl.c"
 10739 ;; Parameters:    Size  Location     Type
 10740 ;;  sign            1    wreg     unsigned char 
 10741 ;;  val             4    6[COMMON] long 
 10742 ;; Auto vars:     Size  Location     Type
 10743 ;;  sign            1    4[BANK0 ] unsigned char 
 10744 ;;  arg             4    6[BANK0 ] unsigned long 
 10745 ;;  exp             1    5[BANK0 ] unsigned char 
 10746 ;; Return value:  Size  Location     Type
 10747 ;;                  4    6[COMMON] unsigned char 
 10748 ;; Registers used:
 10749 ;;		wreg, status,2, status,0
 10750 ;; Tracked objects:
 10751 ;;		On entry : 0/0
 10752 ;;		On exit  : 0/0
 10753 ;;		Unchanged: 0/0
 10754 ;; Data sizes:     COMMON   BANK0   BANK1   BANK3   BANK2
 10755 ;;      Params:         4       0       0       0       0
 10756 ;;      Locals:         0       6       0       0       0
 10757 ;;      Temps:          0       4       0       0       0
 10758 ;;      Totals:         4      10       0       0       0
 10759 ;;Total ram usage:       14 bytes
 10760 ;; Hardware stack levels used: 1
 10761 ;; Hardware stack levels required when called: 1
 10762 ;; This function calls:
 10763 ;;		Nothing
 10764 ;; This function is called by:
 10765 ;;		_main
 10766 ;; This function uses a non-reentrant model
 10767 ;;
 10768                           
 10769     09EF                     ___xxtofl:	
 10770                           ;psect for function ___xxtofl
 10771                           
 10772                           
 10773                           ;incstack = 0
 10774                           ; Regs used in ___xxtofl: [wreg+status,2+status,0]
 10775                           ;___xxtofl@sign stored from wreg
 10776     09EF  1283               	bcf	3,5	;RP0=0, select bank0
 10777     09F0  1303               	bcf	3,6	;RP1=0, select bank0
 10778     09F1  00A4               	movwf	___xxtofl@sign
 10779     09F2                     l5272:
 10780     09F2  0824               	movf	___xxtofl@sign,w
 10781     09F3  1903               	btfsc	3,2
 10782     09F4  29F6               	goto	u6051
 10783     09F5  29F7               	goto	u6050
 10784     09F6                     u6051:
 10785     09F6  2A0B               	goto	l5278
 10786     09F7                     u6050:
 10787     09F7                     l5274:
 10788     09F7  1FF9               	btfss	___xxtofl@val+3,7
 10789     09F8  29FA               	goto	u6061
 10790     09F9  29FB               	goto	u6060
 10791     09FA                     u6061:
 10792     09FA  2A0B               	goto	l5278
 10793     09FB                     u6060:
 10794     09FB                     l5276:
 10795     09FB  0976               	comf	___xxtofl@val,w
 10796     09FC  00A6               	movwf	___xxtofl@arg
 10797     09FD  0977               	comf	___xxtofl@val+1,w
 10798     09FE  00A7               	movwf	___xxtofl@arg+1
 10799     09FF  0978               	comf	___xxtofl@val+2,w
 10800     0A00  00A8               	movwf	___xxtofl@arg+2
 10801     0A01  0979               	comf	___xxtofl@val+3,w
 10802     0A02  00A9               	movwf	___xxtofl@arg+3
 10803     0A03  0AA6               	incf	___xxtofl@arg,f
 10804     0A04  1903               	skipnz
 10805     0A05  0AA7               	incf	___xxtofl@arg+1,f
 10806     0A06  1903               	skipnz
 10807     0A07  0AA8               	incf	___xxtofl@arg+2,f
 10808     0A08  1903               	skipnz
 10809     0A09  0AA9               	incf	___xxtofl@arg+3,f
 10810     0A0A  2A13               	goto	l1088
 10811     0A0B                     l5278:
 10812     0A0B  0879               	movf	___xxtofl@val+3,w
 10813     0A0C  00A9               	movwf	___xxtofl@arg+3
 10814     0A0D  0878               	movf	___xxtofl@val+2,w
 10815     0A0E  00A8               	movwf	___xxtofl@arg+2
 10816     0A0F  0877               	movf	___xxtofl@val+1,w
 10817     0A10  00A7               	movwf	___xxtofl@arg+1
 10818     0A11  0876               	movf	___xxtofl@val,w
 10819     0A12  00A6               	movwf	___xxtofl@arg
 10820     0A13                     l1088:
 10821     0A13  0879               	movf	___xxtofl@val+3,w
 10822     0A14  0478               	iorwf	___xxtofl@val+2,w
 10823     0A15  0477               	iorwf	___xxtofl@val+1,w
 10824     0A16  0476               	iorwf	___xxtofl@val,w
 10825     0A17  1D03               	skipz
 10826     0A18  2A1A               	goto	u6071
 10827     0A19  2A1B               	goto	u6070
 10828     0A1A                     u6071:
 10829     0A1A  2A24               	goto	l1089
 10830     0A1B                     u6070:
 10831     0A1B                     l5280:
 10832     0A1B  3000               	movlw	0
 10833     0A1C  00F9               	movwf	?___xxtofl+3
 10834     0A1D  3000               	movlw	0
 10835     0A1E  00F8               	movwf	?___xxtofl+2
 10836     0A1F  3000               	movlw	0
 10837     0A20  00F7               	movwf	?___xxtofl+1
 10838     0A21  3000               	movlw	0
 10839     0A22  00F6               	movwf	?___xxtofl
 10840     0A23  2AA4               	goto	l1090
 10841     0A24                     l1089:
 10842     0A24  3096               	movlw	150
 10843     0A25  00A5               	movwf	___xxtofl@exp
 10844     0A26  2A32               	goto	l5286
 10845     0A27                     l5284:
 10846     0A27  3001               	movlw	1
 10847     0A28  07A5               	addwf	___xxtofl@exp,f
 10848     0A29  3001               	movlw	1
 10849     0A2A                     u6085:
 10850     0A2A  1003               	clrc
 10851     0A2B  0CA9               	rrf	___xxtofl@arg+3,f
 10852     0A2C  0CA8               	rrf	___xxtofl@arg+2,f
 10853     0A2D  0CA7               	rrf	___xxtofl@arg+1,f
 10854     0A2E  0CA6               	rrf	___xxtofl@arg,f
 10855     0A2F  3EFF               	addlw	-1
 10856     0A30  1D03               	skipz
 10857     0A31  2A2A               	goto	u6085
 10858     0A32                     l5286:
 10859     0A32  30FE               	movlw	254
 10860     0A33  0529               	andwf	___xxtofl@arg+3,w
 10861     0A34  1D03               	btfss	3,2
 10862     0A35  2A37               	goto	u6091
 10863     0A36  2A38               	goto	u6090
 10864     0A37                     u6091:
 10865     0A37  2A27               	goto	l5284
 10866     0A38                     u6090:
 10867     0A38  2A52               	goto	l1094
 10868     0A39                     l5288:
 10869     0A39  3001               	movlw	1
 10870     0A3A  07A5               	addwf	___xxtofl@exp,f
 10871     0A3B                     l5290:
 10872     0A3B  3001               	movlw	1
 10873     0A3C  07A6               	addwf	___xxtofl@arg,f
 10874     0A3D  3000               	movlw	0
 10875     0A3E  1803               	skipnc
 10876     0A3F  3001               	movlw	1
 10877     0A40  07A7               	addwf	___xxtofl@arg+1,f
 10878     0A41  3000               	movlw	0
 10879     0A42  1803               	skipnc
 10880     0A43  3001               	movlw	1
 10881     0A44  07A8               	addwf	___xxtofl@arg+2,f
 10882     0A45  3000               	movlw	0
 10883     0A46  1803               	skipnc
 10884     0A47  3001               	movlw	1
 10885     0A48  07A9               	addwf	___xxtofl@arg+3,f
 10886     0A49                     l5292:
 10887     0A49  3001               	movlw	1
 10888     0A4A                     u6105:
 10889     0A4A  1003               	clrc
 10890     0A4B  0CA9               	rrf	___xxtofl@arg+3,f
 10891     0A4C  0CA8               	rrf	___xxtofl@arg+2,f
 10892     0A4D  0CA7               	rrf	___xxtofl@arg+1,f
 10893     0A4E  0CA6               	rrf	___xxtofl@arg,f
 10894     0A4F  3EFF               	addlw	-1
 10895     0A50  1D03               	skipz
 10896     0A51  2A4A               	goto	u6105
 10897     0A52                     l1094:
 10898     0A52  30FF               	movlw	255
 10899     0A53  0529               	andwf	___xxtofl@arg+3,w
 10900     0A54  1D03               	btfss	3,2
 10901     0A55  2A57               	goto	u6111
 10902     0A56  2A58               	goto	u6110
 10903     0A57                     u6111:
 10904     0A57  2A39               	goto	l5288
 10905     0A58                     u6110:
 10906     0A58  2A64               	goto	l5296
 10907     0A59                     l5294:
 10908     0A59  3001               	movlw	1
 10909     0A5A  02A5               	subwf	___xxtofl@exp,f
 10910     0A5B  3001               	movlw	1
 10911     0A5C  00A0               	movwf	??___xxtofl
 10912     0A5D                     u6125:
 10913     0A5D  1003               	clrc
 10914     0A5E  0DA6               	rlf	___xxtofl@arg,f
 10915     0A5F  0DA7               	rlf	___xxtofl@arg+1,f
 10916     0A60  0DA8               	rlf	___xxtofl@arg+2,f
 10917     0A61  0DA9               	rlf	___xxtofl@arg+3,f
 10918     0A62  0BA0               	decfsz	??___xxtofl,f
 10919     0A63  2A5D               	goto	u6125
 10920     0A64                     l5296:
 10921     0A64  1BA8               	btfsc	___xxtofl@arg+2,7
 10922     0A65  2A67               	goto	u6131
 10923     0A66  2A68               	goto	u6130
 10924     0A67                     u6131:
 10925     0A67  2A6E               	goto	l1101
 10926     0A68                     u6130:
 10927     0A68                     l5298:
 10928     0A68  3002               	movlw	2
 10929     0A69  0225               	subwf	___xxtofl@exp,w
 10930     0A6A  1803               	skipnc
 10931     0A6B  2A6D               	goto	u6141
 10932     0A6C  2A6E               	goto	u6140
 10933     0A6D                     u6141:
 10934     0A6D  2A59               	goto	l5294
 10935     0A6E                     u6140:
 10936     0A6E                     l1101:
 10937     0A6E  1825               	btfsc	___xxtofl@exp,0
 10938     0A6F  2A71               	goto	u6151
 10939     0A70  2A72               	goto	u6150
 10940     0A71                     u6151:
 10941     0A71  2A7A               	goto	l1102
 10942     0A72                     u6150:
 10943     0A72                     l5300:
 10944     0A72  30FF               	movlw	255
 10945     0A73  05A6               	andwf	___xxtofl@arg,f
 10946     0A74  30FF               	movlw	255
 10947     0A75  05A7               	andwf	___xxtofl@arg+1,f
 10948     0A76  307F               	movlw	127
 10949     0A77  05A8               	andwf	___xxtofl@arg+2,f
 10950     0A78  30FF               	movlw	255
 10951     0A79  05A9               	andwf	___xxtofl@arg+3,f
 10952     0A7A                     l1102:
 10953     0A7A  1003               	clrc
 10954     0A7B  0CA5               	rrf	___xxtofl@exp,f
 10955     0A7C                     l5302:
 10956     0A7C  0825               	movf	___xxtofl@exp,w
 10957     0A7D  00A0               	movwf	??___xxtofl
 10958     0A7E  01A1               	clrf	??___xxtofl+1
 10959     0A7F  01A2               	clrf	??___xxtofl+2
 10960     0A80  01A3               	clrf	??___xxtofl+3
 10961     0A81  3018               	movlw	24
 10962     0A82                     u6165:
 10963     0A82  1003               	clrc
 10964     0A83  0DA0               	rlf	??___xxtofl,f
 10965     0A84  0DA1               	rlf	??___xxtofl+1,f
 10966     0A85  0DA2               	rlf	??___xxtofl+2,f
 10967     0A86  0DA3               	rlf	??___xxtofl+3,f
 10968     0A87                     u6160:
 10969     0A87  3EFF               	addlw	-1
 10970     0A88  1D03               	skipz
 10971     0A89  2A82               	goto	u6165
 10972     0A8A  0820               	movf	??___xxtofl,w
 10973     0A8B  04A6               	iorwf	___xxtofl@arg,f
 10974     0A8C  0821               	movf	??___xxtofl+1,w
 10975     0A8D  04A7               	iorwf	___xxtofl@arg+1,f
 10976     0A8E  0822               	movf	??___xxtofl+2,w
 10977     0A8F  04A8               	iorwf	___xxtofl@arg+2,f
 10978     0A90  0823               	movf	??___xxtofl+3,w
 10979     0A91  04A9               	iorwf	___xxtofl@arg+3,f
 10980     0A92                     l5304:
 10981     0A92  0824               	movf	___xxtofl@sign,w
 10982     0A93  1903               	btfsc	3,2
 10983     0A94  2A96               	goto	u6171
 10984     0A95  2A97               	goto	u6170
 10985     0A96                     u6171:
 10986     0A96  2A9C               	goto	l5310
 10987     0A97                     u6170:
 10988     0A97                     l5306:
 10989     0A97  1FF9               	btfss	___xxtofl@val+3,7
 10990     0A98  2A9A               	goto	u6181
 10991     0A99  2A9B               	goto	u6180
 10992     0A9A                     u6181:
 10993     0A9A  2A9C               	goto	l5310
 10994     0A9B                     u6180:
 10995     0A9B                     l5308:
 10996     0A9B  17A9               	bsf	___xxtofl@arg+3,7
 10997     0A9C                     l5310:
 10998     0A9C  0829               	movf	___xxtofl@arg+3,w
 10999     0A9D  00F9               	movwf	?___xxtofl+3
 11000     0A9E  0828               	movf	___xxtofl@arg+2,w
 11001     0A9F  00F8               	movwf	?___xxtofl+2
 11002     0AA0  0827               	movf	___xxtofl@arg+1,w
 11003     0AA1  00F7               	movwf	?___xxtofl+1
 11004     0AA2  0826               	movf	___xxtofl@arg,w
 11005     0AA3  00F6               	movwf	?___xxtofl
 11006     0AA4                     l1090:
 11007     0AA4  0008               	return
 11008     0AA5                     __end_of___xxtofl:
 11009                           
 11010                           	psect	text51
 11011     178A                     __ptext51:	
 11012 ;; *************** function ___fltol *****************
 11013 ;; Defined at:
 11014 ;;		line 43 in file "C:\Program Files\Microchip\xc8\v3.00\pic\sources\c99\common\fltol.c"
 11015 ;; Parameters:    Size  Location     Type
 11016 ;;  f1              4   36[BANK0 ] unsigned char 
 11017 ;; Auto vars:     Size  Location     Type
 11018 ;;  exp1            1   45[BANK0 ] unsigned char 
 11019 ;;  sign1           1   44[BANK0 ] unsigned char 
 11020 ;; Return value:  Size  Location     Type
 11021 ;;                  4   36[BANK0 ] long 
 11022 ;; Registers used:
 11023 ;;		wreg, status,2, status,0
 11024 ;; Tracked objects:
 11025 ;;		On entry : 0/0
 11026 ;;		On exit  : 0/0
 11027 ;;		Unchanged: 0/0
 11028 ;; Data sizes:     COMMON   BANK0   BANK1   BANK3   BANK2
 11029 ;;      Params:         0       4       0       0       0
 11030 ;;      Locals:         0       2       0       0       0
 11031 ;;      Temps:          0       4       0       0       0
 11032 ;;      Totals:         0      10       0       0       0
 11033 ;;Total ram usage:       10 bytes
 11034 ;; Hardware stack levels used: 1
 11035 ;; Hardware stack levels required when called: 1
 11036 ;; This function calls:
 11037 ;;		Nothing
 11038 ;; This function is called by:
 11039 ;;		_main
 11040 ;; This function uses a non-reentrant model
 11041 ;;
 11042                           
 11043     178A                     ___fltol:	
 11044                           ;psect for function ___fltol
 11045                           
 11046     178A                     l5092:	
 11047                           ;incstack = 0
 11048                           ; Regs used in ___fltol: [wreg+status,2+status,0]
 11049                           
 11050     178A  1003               	clrc
 11051     178B  1283               	bcf	3,5	;RP0=0, select bank0
 11052     178C  1303               	bcf	3,6	;RP1=0, select bank0
 11053     178D  0D46               	rlf	___fltol@f1+2,w
 11054     178E  0D47               	rlf	___fltol@f1+3,w
 11055     178F  00CD               	movwf	___fltol@exp1
 11056     1790  084D               	movf	___fltol@exp1,w
 11057     1791  1D03               	btfss	3,2
 11058     1792  2F94               	goto	u5661
 11059     1793  2F95               	goto	u5660
 11060     1794                     u5661:
 11061     1794  2F9E               	goto	l5098
 11062     1795                     u5660:
 11063     1795                     l5094:
 11064     1795  3000               	movlw	0
 11065     1796  00C7               	movwf	?___fltol+3
 11066     1797  3000               	movlw	0
 11067     1798  00C6               	movwf	?___fltol+2
 11068     1799  3000               	movlw	0
 11069     179A  00C5               	movwf	?___fltol+1
 11070     179B  3000               	movlw	0
 11071     179C  00C4               	movwf	?___fltol
 11072     179D  2FFF               	goto	l841
 11073     179E                     l5098:
 11074     179E  0844               	movf	___fltol@f1,w
 11075     179F  00C8               	movwf	??___fltol
 11076     17A0  0845               	movf	___fltol@f1+1,w
 11077     17A1  00C9               	movwf	??___fltol+1
 11078     17A2  0846               	movf	___fltol@f1+2,w
 11079     17A3  00CA               	movwf	??___fltol+2
 11080     17A4  0847               	movf	___fltol@f1+3,w
 11081     17A5  00CB               	movwf	??___fltol+3
 11082     17A6  301F               	movlw	31
 11083     17A7                     u5675:
 11084     17A7  1003               	clrc
 11085     17A8  0CCB               	rrf	??___fltol+3,f
 11086     17A9  0CCA               	rrf	??___fltol+2,f
 11087     17AA  0CC9               	rrf	??___fltol+1,f
 11088     17AB  0CC8               	rrf	??___fltol,f
 11089     17AC                     u5670:
 11090     17AC  3EFF               	addlw	-1
 11091     17AD  1D03               	skipz
 11092     17AE  2FA7               	goto	u5675
 11093     17AF  0848               	movf	??___fltol,w
 11094     17B0  00CC               	movwf	___fltol@sign1
 11095     17B1                     l5100:
 11096     17B1  17C6               	bsf	___fltol@f1+2,7
 11097     17B2                     l5102:
 11098     17B2  30FF               	movlw	255
 11099     17B3  05C4               	andwf	___fltol@f1,f
 11100     17B4  30FF               	movlw	255
 11101     17B5  05C5               	andwf	___fltol@f1+1,f
 11102     17B6  30FF               	movlw	255
 11103     17B7  05C6               	andwf	___fltol@f1+2,f
 11104     17B8  3000               	movlw	0
 11105     17B9  05C7               	andwf	___fltol@f1+3,f
 11106     17BA                     l5104:
 11107     17BA  3096               	movlw	150
 11108     17BB  02CD               	subwf	___fltol@exp1,f
 11109     17BC                     l5106:
 11110     17BC  1FCD               	btfss	___fltol@exp1,7
 11111     17BD  2FBF               	goto	u5681
 11112     17BE  2FC0               	goto	u5680
 11113     17BF                     u5681:
 11114     17BF  2FD8               	goto	l5116
 11115     17C0                     u5680:
 11116     17C0                     l5108:
 11117     17C0  084D               	movf	___fltol@exp1,w
 11118     17C1  3A80               	xorlw	128
 11119     17C2  3E97               	addlw	151
 11120     17C3  1803               	skipnc
 11121     17C4  2FC6               	goto	u5691
 11122     17C5  2FC7               	goto	u5690
 11123     17C6                     u5691:
 11124     17C6  2FC8               	goto	l5114
 11125     17C7                     u5690:
 11126     17C7  2F95               	goto	l5094
 11127     17C8                     l5114:
 11128     17C8  3001               	movlw	1
 11129     17C9                     u5705:
 11130     17C9  1003               	clrc
 11131     17CA  0CC7               	rrf	___fltol@f1+3,f
 11132     17CB  0CC6               	rrf	___fltol@f1+2,f
 11133     17CC  0CC5               	rrf	___fltol@f1+1,f
 11134     17CD  0CC4               	rrf	___fltol@f1,f
 11135     17CE  3EFF               	addlw	-1
 11136     17CF  1D03               	skipz
 11137     17D0  2FC9               	goto	u5705
 11138     17D1  3001               	movlw	1
 11139     17D2  07CD               	addwf	___fltol@exp1,f
 11140     17D3  1D03               	btfss	3,2
 11141     17D4  2FD6               	goto	u5711
 11142     17D5  2FD7               	goto	u5710
 11143     17D6                     u5711:
 11144     17D6  2FC8               	goto	l5114
 11145     17D7                     u5710:
 11146     17D7  2FEF               	goto	l5124
 11147     17D8                     l5116:
 11148     17D8  3020               	movlw	32
 11149     17D9  024D               	subwf	___fltol@exp1,w
 11150     17DA  1C03               	skipc
 11151     17DB  2FDD               	goto	u5721
 11152     17DC  2FDE               	goto	u5720
 11153     17DD                     u5721:
 11154     17DD  2FEA               	goto	l848
 11155     17DE                     u5720:
 11156     17DE  2F95               	goto	l5094
 11157     17DF                     l5122:
 11158     17DF  3001               	movlw	1
 11159     17E0  00C8               	movwf	??___fltol
 11160     17E1                     u5735:
 11161     17E1  1003               	clrc
 11162     17E2  0DC4               	rlf	___fltol@f1,f
 11163     17E3  0DC5               	rlf	___fltol@f1+1,f
 11164     17E4  0DC6               	rlf	___fltol@f1+2,f
 11165     17E5  0DC7               	rlf	___fltol@f1+3,f
 11166     17E6  0BC8               	decfsz	??___fltol,f
 11167     17E7  2FE1               	goto	u5735
 11168     17E8  3001               	movlw	1
 11169     17E9  02CD               	subwf	___fltol@exp1,f
 11170     17EA                     l848:
 11171     17EA  084D               	movf	___fltol@exp1,w
 11172     17EB  1D03               	btfss	3,2
 11173     17EC  2FEE               	goto	u5741
 11174     17ED  2FEF               	goto	u5740
 11175     17EE                     u5741:
 11176     17EE  2FDF               	goto	l5122
 11177     17EF                     u5740:
 11178     17EF                     l5124:
 11179     17EF  084C               	movf	___fltol@sign1,w
 11180     17F0  1903               	btfsc	3,2
 11181     17F1  2FF3               	goto	u5751
 11182     17F2  2FF4               	goto	u5750
 11183     17F3                     u5751:
 11184     17F3  2FFF               	goto	l851
 11185     17F4                     u5750:
 11186     17F4                     l5126:
 11187     17F4  09C4               	comf	___fltol@f1,f
 11188     17F5  09C5               	comf	___fltol@f1+1,f
 11189     17F6  09C6               	comf	___fltol@f1+2,f
 11190     17F7  09C7               	comf	___fltol@f1+3,f
 11191     17F8  0AC4               	incf	___fltol@f1,f
 11192     17F9  1903               	skipnz
 11193     17FA  0AC5               	incf	___fltol@f1+1,f
 11194     17FB  1903               	skipnz
 11195     17FC  0AC6               	incf	___fltol@f1+2,f
 11196     17FD  1903               	skipnz
 11197     17FE  0AC7               	incf	___fltol@f1+3,f
 11198     17FF                     l851:
 11199     17FF                     l841:
 11200     17FF  0008               	return
 11201     1800                     __end_of___fltol:
 11202                           
 11203                           	psect	text52
 11204     0E36                     __ptext52:	
 11205 ;; *************** function ___fldiv *****************
 11206 ;; Defined at:
 11207 ;;		line 8 in file "C:\Program Files\Microchip\xc8\v3.00\pic\sources\c99\common\sprcdiv.c"
 11208 ;; Parameters:    Size  Location     Type
 11209 ;;  a               4   10[BANK0 ] long 
 11210 ;;  b               4   14[BANK0 ] long 
 11211 ;; Auto vars:     Size  Location     Type
 11212 ;;  grs             4   30[BANK0 ] unsigned long 
 11213 ;;  rem             4   23[BANK0 ] unsigned long 
 11214 ;;  new_exp         2   28[BANK0 ] short 
 11215 ;;  aexp            1   35[BANK0 ] unsigned char 
 11216 ;;  bexp            1   34[BANK0 ] unsigned char 
 11217 ;;  sign            1   27[BANK0 ] unsigned char 
 11218 ;; Return value:  Size  Location     Type
 11219 ;;                  4   10[BANK0 ] unsigned char 
 11220 ;; Registers used:
 11221 ;;		wreg, status,2, status,0, btemp+1
 11222 ;; Tracked objects:
 11223 ;;		On entry : 0/0
 11224 ;;		On exit  : 0/0
 11225 ;;		Unchanged: 0/0
 11226 ;; Data sizes:     COMMON   BANK0   BANK1   BANK3   BANK2
 11227 ;;      Params:         0       8       0       0       0
 11228 ;;      Locals:         0      13       0       0       0
 11229 ;;      Temps:          0       5       0       0       0
 11230 ;;      Totals:         0      26       0       0       0
 11231 ;;Total ram usage:       26 bytes
 11232 ;; Hardware stack levels used: 1
 11233 ;; Hardware stack levels required when called: 1
 11234 ;; This function calls:
 11235 ;;		Nothing
 11236 ;; This function is called by:
 11237 ;;		_main
 11238 ;; This function uses a non-reentrant model
 11239 ;;
 11240                           
 11241     0E36                     ___fldiv:	
 11242                           ;psect for function ___fldiv
 11243                           
 11244     0E36                     l5128:	
 11245                           ;incstack = 0
 11246                           ; Regs used in ___fldiv: [wreg+status,2+status,0+btemp+1]
 11247                           
 11248     0E36  1283               	bcf	3,5	;RP0=0, select bank0
 11249     0E37  1303               	bcf	3,6	;RP1=0, select bank0
 11250     0E38  0831               	movf	___fldiv@b+3,w
 11251     0E39  00BB               	movwf	___fldiv@sign
 11252     0E3A                     l5130:
 11253     0E3A  3080               	movlw	128
 11254     0E3B  05BB               	andwf	___fldiv@sign,f
 11255     0E3C                     l5132:
 11256     0E3C  0831               	movf	___fldiv@b+3,w
 11257     0E3D  00B2               	movwf	??___fldiv
 11258     0E3E  0732               	addwf	??___fldiv,w
 11259     0E3F  00C2               	movwf	___fldiv@bexp
 11260     0E40                     l5134:
 11261     0E40  1FB0               	btfss	___fldiv@b+2,7
 11262     0E41  2E43               	goto	u5761
 11263     0E42  2E44               	goto	u5760
 11264     0E43                     u5761:
 11265     0E43  2E45               	goto	l5138
 11266     0E44                     u5760:
 11267     0E44                     l5136:
 11268     0E44  1442               	bsf	___fldiv@bexp,0
 11269     0E45                     l5138:
 11270     0E45  0842               	movf	___fldiv@bexp,w
 11271     0E46  1903               	btfsc	3,2
 11272     0E47  2E49               	goto	u5771
 11273     0E48  2E4A               	goto	u5770
 11274     0E49                     u5771:
 11275     0E49  2E5A               	goto	l5148
 11276     0E4A                     u5770:
 11277     0E4A                     l5140:
 11278     0E4A  0A42               	incf	___fldiv@bexp,w
 11279     0E4B  1D03               	btfss	3,2
 11280     0E4C  2E4E               	goto	u5781
 11281     0E4D  2E4F               	goto	u5780
 11282     0E4E                     u5781:
 11283     0E4E  2E57               	goto	l5144
 11284     0E4F                     u5780:
 11285     0E4F                     l5142:
 11286     0E4F  3000               	movlw	0
 11287     0E50  00B1               	movwf	___fldiv@b+3
 11288     0E51  3000               	movlw	0
 11289     0E52  00B0               	movwf	___fldiv@b+2
 11290     0E53  3000               	movlw	0
 11291     0E54  00AF               	movwf	___fldiv@b+1
 11292     0E55  3000               	movlw	0
 11293     0E56  00AE               	movwf	___fldiv@b
 11294     0E57                     l5144:
 11295     0E57  17B0               	bsf	___fldiv@b+2,7
 11296     0E58                     l5146:
 11297     0E58  01B1               	clrf	___fldiv@b+3
 11298     0E59  2E62               	goto	l5150
 11299     0E5A                     l5148:
 11300     0E5A  3000               	movlw	0
 11301     0E5B  00B1               	movwf	___fldiv@b+3
 11302     0E5C  3000               	movlw	0
 11303     0E5D  00B0               	movwf	___fldiv@b+2
 11304     0E5E  3000               	movlw	0
 11305     0E5F  00AF               	movwf	___fldiv@b+1
 11306     0E60  3000               	movlw	0
 11307     0E61  00AE               	movwf	___fldiv@b
 11308     0E62                     l5150:
 11309     0E62  082D               	movf	___fldiv@a+3,w
 11310     0E63  3980               	andlw	128
 11311     0E64  06BB               	xorwf	___fldiv@sign,f
 11312     0E65                     l5152:
 11313     0E65  082D               	movf	___fldiv@a+3,w
 11314     0E66  00B2               	movwf	??___fldiv
 11315     0E67  0732               	addwf	??___fldiv,w
 11316     0E68  00C3               	movwf	___fldiv@aexp
 11317     0E69                     l5154:
 11318     0E69  1FAC               	btfss	___fldiv@a+2,7
 11319     0E6A  2E6C               	goto	u5791
 11320     0E6B  2E6D               	goto	u5790
 11321     0E6C                     u5791:
 11322     0E6C  2E6E               	goto	l5158
 11323     0E6D                     u5790:
 11324     0E6D                     l5156:
 11325     0E6D  1443               	bsf	___fldiv@aexp,0
 11326     0E6E                     l5158:
 11327     0E6E  0843               	movf	___fldiv@aexp,w
 11328     0E6F  1903               	btfsc	3,2
 11329     0E70  2E72               	goto	u5801
 11330     0E71  2E73               	goto	u5800
 11331     0E72                     u5801:
 11332     0E72  2E83               	goto	l5168
 11333     0E73                     u5800:
 11334     0E73                     l5160:
 11335     0E73  0A43               	incf	___fldiv@aexp,w
 11336     0E74  1D03               	btfss	3,2
 11337     0E75  2E77               	goto	u5811
 11338     0E76  2E78               	goto	u5810
 11339     0E77                     u5811:
 11340     0E77  2E80               	goto	l5164
 11341     0E78                     u5810:
 11342     0E78                     l5162:
 11343     0E78  3000               	movlw	0
 11344     0E79  00AD               	movwf	___fldiv@a+3
 11345     0E7A  3000               	movlw	0
 11346     0E7B  00AC               	movwf	___fldiv@a+2
 11347     0E7C  3000               	movlw	0
 11348     0E7D  00AB               	movwf	___fldiv@a+1
 11349     0E7E  3000               	movlw	0
 11350     0E7F  00AA               	movwf	___fldiv@a
 11351     0E80                     l5164:
 11352     0E80  17AC               	bsf	___fldiv@a+2,7
 11353     0E81                     l5166:
 11354     0E81  01AD               	clrf	___fldiv@a+3
 11355     0E82  2E8B               	goto	l1004
 11356     0E83                     l5168:
 11357     0E83  3000               	movlw	0
 11358     0E84  00AD               	movwf	___fldiv@a+3
 11359     0E85  3000               	movlw	0
 11360     0E86  00AC               	movwf	___fldiv@a+2
 11361     0E87  3000               	movlw	0
 11362     0E88  00AB               	movwf	___fldiv@a+1
 11363     0E89  3000               	movlw	0
 11364     0E8A  00AA               	movwf	___fldiv@a
 11365     0E8B                     l1004:
 11366     0E8B  082D               	movf	___fldiv@a+3,w
 11367     0E8C  042C               	iorwf	___fldiv@a+2,w
 11368     0E8D  042B               	iorwf	___fldiv@a+1,w
 11369     0E8E  042A               	iorwf	___fldiv@a,w
 11370     0E8F  1D03               	skipz
 11371     0E90  2E92               	goto	u5821
 11372     0E91  2E93               	goto	u5820
 11373     0E92                     u5821:
 11374     0E92  2EAA               	goto	l5178
 11375     0E93                     u5820:
 11376     0E93                     l5170:
 11377     0E93  3000               	movlw	0
 11378     0E94  00B1               	movwf	___fldiv@b+3
 11379     0E95  3000               	movlw	0
 11380     0E96  00B0               	movwf	___fldiv@b+2
 11381     0E97  3000               	movlw	0
 11382     0E98  00AF               	movwf	___fldiv@b+1
 11383     0E99  3000               	movlw	0
 11384     0E9A  00AE               	movwf	___fldiv@b
 11385     0E9B  3080               	movlw	128
 11386     0E9C  04B0               	iorwf	___fldiv@b+2,f
 11387     0E9D  307F               	movlw	127
 11388     0E9E  04B1               	iorwf	___fldiv@b+3,f
 11389     0E9F                     l5172:
 11390     0E9F  083B               	movf	___fldiv@sign,w
 11391     0EA0  04B1               	iorwf	___fldiv@b+3,f
 11392     0EA1                     l5174:
 11393     0EA1  0831               	movf	___fldiv@b+3,w
 11394     0EA2  00AD               	movwf	?___fldiv+3
 11395     0EA3  0830               	movf	___fldiv@b+2,w
 11396     0EA4  00AC               	movwf	?___fldiv+2
 11397     0EA5  082F               	movf	___fldiv@b+1,w
 11398     0EA6  00AB               	movwf	?___fldiv+1
 11399     0EA7  082E               	movf	___fldiv@b,w
 11400     0EA8  00AA               	movwf	?___fldiv
 11401     0EA9  2FFF               	goto	l1006
 11402     0EAA                     l5178:
 11403     0EAA  0842               	movf	___fldiv@bexp,w
 11404     0EAB  1D03               	btfss	3,2
 11405     0EAC  2EAE               	goto	u5831
 11406     0EAD  2EAF               	goto	u5830
 11407     0EAE                     u5831:
 11408     0EAE  2EB8               	goto	l5184
 11409     0EAF                     u5830:
 11410     0EAF                     l5180:
 11411     0EAF  3000               	movlw	0
 11412     0EB0  00AD               	movwf	?___fldiv+3
 11413     0EB1  3000               	movlw	0
 11414     0EB2  00AC               	movwf	?___fldiv+2
 11415     0EB3  3000               	movlw	0
 11416     0EB4  00AB               	movwf	?___fldiv+1
 11417     0EB5  3000               	movlw	0
 11418     0EB6  00AA               	movwf	?___fldiv
 11419     0EB7  2FFF               	goto	l1006
 11420     0EB8                     l5184:
 11421     0EB8  0842               	movf	___fldiv@bexp,w
 11422     0EB9  00B2               	movwf	??___fldiv
 11423     0EBA  01B3               	clrf	??___fldiv+1
 11424     0EBB  0833               	movf	??___fldiv+1,w
 11425     0EBC  00B5               	movwf	??___fldiv+3
 11426     0EBD  0843               	movf	___fldiv@aexp,w
 11427     0EBE  0232               	subwf	??___fldiv,w
 11428     0EBF  00B4               	movwf	??___fldiv+2
 11429     0EC0  1C03               	skipc
 11430     0EC1  03B5               	decf	??___fldiv+3,f
 11431     0EC2  0834               	movf	??___fldiv+2,w
 11432     0EC3  3E7F               	addlw	127
 11433     0EC4  00BC               	movwf	___fldiv@new_exp
 11434     0EC5  0835               	movf	??___fldiv+3,w
 11435     0EC6  1803               	skipnc
 11436     0EC7  3E01               	addlw	1
 11437     0EC8  3E00               	addlw	0
 11438     0EC9  00BD               	movwf	___fldiv@new_exp+1
 11439     0ECA                     l5186:
 11440     0ECA  0831               	movf	___fldiv@b+3,w
 11441     0ECB  00BA               	movwf	___fldiv@rem+3
 11442     0ECC  0830               	movf	___fldiv@b+2,w
 11443     0ECD  00B9               	movwf	___fldiv@rem+2
 11444     0ECE  082F               	movf	___fldiv@b+1,w
 11445     0ECF  00B8               	movwf	___fldiv@rem+1
 11446     0ED0  082E               	movf	___fldiv@b,w
 11447     0ED1  00B7               	movwf	___fldiv@rem
 11448     0ED2                     l5188:
 11449     0ED2  3000               	movlw	0
 11450     0ED3  00B1               	movwf	___fldiv@b+3
 11451     0ED4  3000               	movlw	0
 11452     0ED5  00B0               	movwf	___fldiv@b+2
 11453     0ED6  3000               	movlw	0
 11454     0ED7  00AF               	movwf	___fldiv@b+1
 11455     0ED8  3000               	movlw	0
 11456     0ED9  00AE               	movwf	___fldiv@b
 11457     0EDA                     l5190:
 11458     0EDA  3000               	movlw	0
 11459     0EDB  00C1               	movwf	___fldiv@grs+3
 11460     0EDC  3000               	movlw	0
 11461     0EDD  00C0               	movwf	___fldiv@grs+2
 11462     0EDE  3000               	movlw	0
 11463     0EDF  00BF               	movwf	___fldiv@grs+1
 11464     0EE0  3000               	movlw	0
 11465     0EE1  00BE               	movwf	___fldiv@grs
 11466     0EE2                     l5192:
 11467     0EE2  01C3               	clrf	___fldiv@aexp
 11468     0EE3  2F2C               	goto	l5212
 11469     0EE4                     l5194:
 11470     0EE4  0843               	movf	___fldiv@aexp,w
 11471     0EE5  1903               	btfsc	3,2
 11472     0EE6  2EE8               	goto	u5841
 11473     0EE7  2EE9               	goto	u5840
 11474     0EE8                     u5841:
 11475     0EE8  2F09               	goto	l5204
 11476     0EE9                     u5840:
 11477     0EE9                     l5196:
 11478     0EE9  3001               	movlw	1
 11479     0EEA  00B2               	movwf	??___fldiv
 11480     0EEB                     u5855:
 11481     0EEB  1003               	clrc
 11482     0EEC  0DB7               	rlf	___fldiv@rem,f
 11483     0EED  0DB8               	rlf	___fldiv@rem+1,f
 11484     0EEE  0DB9               	rlf	___fldiv@rem+2,f
 11485     0EEF  0DBA               	rlf	___fldiv@rem+3,f
 11486     0EF0  0BB2               	decfsz	??___fldiv,f
 11487     0EF1  2EEB               	goto	u5855
 11488     0EF2  3001               	movlw	1
 11489     0EF3  00B2               	movwf	??___fldiv
 11490     0EF4                     u5865:
 11491     0EF4  1003               	clrc
 11492     0EF5  0DAE               	rlf	___fldiv@b,f
 11493     0EF6  0DAF               	rlf	___fldiv@b+1,f
 11494     0EF7  0DB0               	rlf	___fldiv@b+2,f
 11495     0EF8  0DB1               	rlf	___fldiv@b+3,f
 11496     0EF9  0BB2               	decfsz	??___fldiv,f
 11497     0EFA  2EF4               	goto	u5865
 11498     0EFB                     l5198:
 11499     0EFB  1FC1               	btfss	___fldiv@grs+3,7
 11500     0EFC  2EFE               	goto	u5871
 11501     0EFD  2EFF               	goto	u5870
 11502     0EFE                     u5871:
 11503     0EFE  2F00               	goto	l5202
 11504     0EFF                     u5870:
 11505     0EFF                     l5200:
 11506     0EFF  142E               	bsf	___fldiv@b,0
 11507     0F00                     l5202:
 11508     0F00  3001               	movlw	1
 11509     0F01  00B2               	movwf	??___fldiv
 11510     0F02                     u5885:
 11511     0F02  1003               	clrc
 11512     0F03  0DBE               	rlf	___fldiv@grs,f
 11513     0F04  0DBF               	rlf	___fldiv@grs+1,f
 11514     0F05  0DC0               	rlf	___fldiv@grs+2,f
 11515     0F06  0DC1               	rlf	___fldiv@grs+3,f
 11516     0F07  0BB2               	decfsz	??___fldiv,f
 11517     0F08  2F02               	goto	u5885
 11518     0F09                     l5204:
 11519     0F09  082D               	movf	___fldiv@a+3,w
 11520     0F0A  023A               	subwf	___fldiv@rem+3,w
 11521     0F0B  1D03               	skipz
 11522     0F0C  2F17               	goto	u5895
 11523     0F0D  082C               	movf	___fldiv@a+2,w
 11524     0F0E  0239               	subwf	___fldiv@rem+2,w
 11525     0F0F  1D03               	skipz
 11526     0F10  2F17               	goto	u5895
 11527     0F11  082B               	movf	___fldiv@a+1,w
 11528     0F12  0238               	subwf	___fldiv@rem+1,w
 11529     0F13  1D03               	skipz
 11530     0F14  2F17               	goto	u5895
 11531     0F15  082A               	movf	___fldiv@a,w
 11532     0F16  0237               	subwf	___fldiv@rem,w
 11533     0F17                     u5895:
 11534     0F17  1C03               	skipc
 11535     0F18  2F1A               	goto	u5891
 11536     0F19  2F1B               	goto	u5890
 11537     0F1A                     u5891:
 11538     0F1A  2F2A               	goto	l5210
 11539     0F1B                     u5890:
 11540     0F1B                     l5206:
 11541     0F1B  1741               	bsf	___fldiv@grs+3,6
 11542     0F1C                     l5208:
 11543     0F1C  082A               	movf	___fldiv@a,w
 11544     0F1D  02B7               	subwf	___fldiv@rem,f
 11545     0F1E  082B               	movf	___fldiv@a+1,w
 11546     0F1F  1C03               	skipc
 11547     0F20  0F2B               	incfsz	___fldiv@a+1,w
 11548     0F21  02B8               	subwf	___fldiv@rem+1,f
 11549     0F22  082C               	movf	___fldiv@a+2,w
 11550     0F23  1C03               	skipc
 11551     0F24  0F2C               	incfsz	___fldiv@a+2,w
 11552     0F25  02B9               	subwf	___fldiv@rem+2,f
 11553     0F26  082D               	movf	___fldiv@a+3,w
 11554     0F27  1C03               	skipc
 11555     0F28  0F2D               	incfsz	___fldiv@a+3,w
 11556     0F29  02BA               	subwf	___fldiv@rem+3,f
 11557     0F2A                     l5210:
 11558     0F2A  3001               	movlw	1
 11559     0F2B  07C3               	addwf	___fldiv@aexp,f
 11560     0F2C                     l5212:
 11561     0F2C  301A               	movlw	26
 11562     0F2D  0243               	subwf	___fldiv@aexp,w
 11563     0F2E  1C03               	skipc
 11564     0F2F  2F31               	goto	u5901
 11565     0F30  2F32               	goto	u5900
 11566     0F31                     u5901:
 11567     0F31  2EE4               	goto	l5194
 11568     0F32                     u5900:
 11569     0F32                     l5214:
 11570     0F32  083A               	movf	___fldiv@rem+3,w
 11571     0F33  0439               	iorwf	___fldiv@rem+2,w
 11572     0F34  0438               	iorwf	___fldiv@rem+1,w
 11573     0F35  0437               	iorwf	___fldiv@rem,w
 11574     0F36  1903               	skipnz
 11575     0F37  2F39               	goto	u5911
 11576     0F38  2F3A               	goto	u5910
 11577     0F39                     u5911:
 11578     0F39  2F59               	goto	l5228
 11579     0F3A                     u5910:
 11580     0F3A                     l5216:
 11581     0F3A  143E               	bsf	___fldiv@grs,0
 11582     0F3B  2F59               	goto	l5228
 11583     0F3C                     l5218:
 11584     0F3C  3001               	movlw	1
 11585     0F3D  00B2               	movwf	??___fldiv
 11586     0F3E                     u5925:
 11587     0F3E  1003               	clrc
 11588     0F3F  0DAE               	rlf	___fldiv@b,f
 11589     0F40  0DAF               	rlf	___fldiv@b+1,f
 11590     0F41  0DB0               	rlf	___fldiv@b+2,f
 11591     0F42  0DB1               	rlf	___fldiv@b+3,f
 11592     0F43  0BB2               	decfsz	??___fldiv,f
 11593     0F44  2F3E               	goto	u5925
 11594     0F45                     l5220:
 11595     0F45  1FC1               	btfss	___fldiv@grs+3,7
 11596     0F46  2F48               	goto	u5931
 11597     0F47  2F49               	goto	u5930
 11598     0F48                     u5931:
 11599     0F48  2F4A               	goto	l5224
 11600     0F49                     u5930:
 11601     0F49                     l5222:
 11602     0F49  142E               	bsf	___fldiv@b,0
 11603     0F4A                     l5224:
 11604     0F4A  3001               	movlw	1
 11605     0F4B  00B2               	movwf	??___fldiv
 11606     0F4C                     u5945:
 11607     0F4C  1003               	clrc
 11608     0F4D  0DBE               	rlf	___fldiv@grs,f
 11609     0F4E  0DBF               	rlf	___fldiv@grs+1,f
 11610     0F4F  0DC0               	rlf	___fldiv@grs+2,f
 11611     0F50  0DC1               	rlf	___fldiv@grs+3,f
 11612     0F51  0BB2               	decfsz	??___fldiv,f
 11613     0F52  2F4C               	goto	u5945
 11614     0F53                     l5226:
 11615     0F53  30FF               	movlw	255
 11616     0F54  07BC               	addwf	___fldiv@new_exp,f
 11617     0F55  1803               	skipnc
 11618     0F56  0ABD               	incf	___fldiv@new_exp+1,f
 11619     0F57  30FF               	movlw	255
 11620     0F58  07BD               	addwf	___fldiv@new_exp+1,f
 11621     0F59                     l5228:
 11622     0F59  1FB0               	btfss	___fldiv@b+2,7
 11623     0F5A  2F5C               	goto	u5951
 11624     0F5B  2F5D               	goto	u5950
 11625     0F5C                     u5951:
 11626     0F5C  2F3C               	goto	l5218
 11627     0F5D                     u5950:
 11628     0F5D                     l5230:
 11629     0F5D  01C3               	clrf	___fldiv@aexp
 11630     0F5E                     l5232:
 11631     0F5E  1FC1               	btfss	___fldiv@grs+3,7
 11632     0F5F  2F61               	goto	u5961
 11633     0F60  2F62               	goto	u5960
 11634     0F61                     u5961:
 11635     0F61  2F7E               	goto	l5240
 11636     0F62                     u5960:
 11637     0F62                     l5234:
 11638     0F62  30FF               	movlw	255
 11639     0F63  053E               	andwf	___fldiv@grs,w
 11640     0F64  00B2               	movwf	??___fldiv
 11641     0F65  30FF               	movlw	255
 11642     0F66  053F               	andwf	___fldiv@grs+1,w
 11643     0F67  00B3               	movwf	??___fldiv+1
 11644     0F68  30FF               	movlw	255
 11645     0F69  0540               	andwf	___fldiv@grs+2,w
 11646     0F6A  00B4               	movwf	??___fldiv+2
 11647     0F6B  307F               	movlw	127
 11648     0F6C  0541               	andwf	___fldiv@grs+3,w
 11649     0F6D  00B5               	movwf	??___fldiv+3
 11650     0F6E  0835               	movf	??___fldiv+3,w
 11651     0F6F  0434               	iorwf	??___fldiv+2,w
 11652     0F70  0433               	iorwf	??___fldiv+1,w
 11653     0F71  0432               	iorwf	??___fldiv,w
 11654     0F72  1903               	skipnz
 11655     0F73  2F75               	goto	u5971
 11656     0F74  2F76               	goto	u5970
 11657     0F75                     u5971:
 11658     0F75  2F79               	goto	l1020
 11659     0F76                     u5970:
 11660     0F76                     l5236:
 11661     0F76  3001               	movlw	1
 11662     0F77  00C3               	movwf	___fldiv@aexp
 11663     0F78  2F7E               	goto	l5240
 11664     0F79                     l1020:
 11665     0F79  1C2E               	btfss	___fldiv@b,0
 11666     0F7A  2F7C               	goto	u5981
 11667     0F7B  2F7D               	goto	u5980
 11668     0F7C                     u5981:
 11669     0F7C  2F7E               	goto	l5240
 11670     0F7D                     u5980:
 11671     0F7D  2F76               	goto	l5236
 11672     0F7E                     l5240:
 11673     0F7E  0843               	movf	___fldiv@aexp,w
 11674     0F7F  1903               	btfsc	3,2
 11675     0F80  2F82               	goto	u5991
 11676     0F81  2F83               	goto	u5990
 11677     0F82                     u5991:
 11678     0F82  2FB4               	goto	l5250
 11679     0F83                     u5990:
 11680     0F83                     l5242:
 11681     0F83  3001               	movlw	1
 11682     0F84  07AE               	addwf	___fldiv@b,f
 11683     0F85  3000               	movlw	0
 11684     0F86  1803               	skipnc
 11685     0F87  3001               	movlw	1
 11686     0F88  07AF               	addwf	___fldiv@b+1,f
 11687     0F89  3000               	movlw	0
 11688     0F8A  1803               	skipnc
 11689     0F8B  3001               	movlw	1
 11690     0F8C  07B0               	addwf	___fldiv@b+2,f
 11691     0F8D  3000               	movlw	0
 11692     0F8E  1803               	skipnc
 11693     0F8F  3001               	movlw	1
 11694     0F90  07B1               	addwf	___fldiv@b+3,f
 11695     0F91                     l5244:
 11696     0F91  1C31               	btfss	___fldiv@b+3,0
 11697     0F92  2F94               	goto	u6001
 11698     0F93  2F95               	goto	u6000
 11699     0F94                     u6001:
 11700     0F94  2FB4               	goto	l5250
 11701     0F95                     u6000:
 11702     0F95                     l5246:
 11703     0F95  082E               	movf	___fldiv@b,w
 11704     0F96  00B2               	movwf	??___fldiv
 11705     0F97  082F               	movf	___fldiv@b+1,w
 11706     0F98  00B3               	movwf	??___fldiv+1
 11707     0F99  0830               	movf	___fldiv@b+2,w
 11708     0F9A  00B4               	movwf	??___fldiv+2
 11709     0F9B  0831               	movf	___fldiv@b+3,w
 11710     0F9C  00B5               	movwf	??___fldiv+3
 11711     0F9D  3001               	movlw	1
 11712     0F9E  00B6               	movwf	??___fldiv+4
 11713     0F9F                     u6015:
 11714     0F9F  0D35               	rlf	??___fldiv+3,w
 11715     0FA0  0CB5               	rrf	??___fldiv+3,f
 11716     0FA1  0CB4               	rrf	??___fldiv+2,f
 11717     0FA2  0CB3               	rrf	??___fldiv+1,f
 11718     0FA3  0CB2               	rrf	??___fldiv,f
 11719     0FA4                     u6010:
 11720     0FA4  0BB6               	decfsz	??___fldiv+4,f
 11721     0FA5  2F9F               	goto	u6015
 11722     0FA6  0835               	movf	??___fldiv+3,w
 11723     0FA7  00B1               	movwf	___fldiv@b+3
 11724     0FA8  0834               	movf	??___fldiv+2,w
 11725     0FA9  00B0               	movwf	___fldiv@b+2
 11726     0FAA  0833               	movf	??___fldiv+1,w
 11727     0FAB  00AF               	movwf	___fldiv@b+1
 11728     0FAC  0832               	movf	??___fldiv,w
 11729     0FAD  00AE               	movwf	___fldiv@b
 11730     0FAE                     l5248:
 11731     0FAE  3001               	movlw	1
 11732     0FAF  07BC               	addwf	___fldiv@new_exp,f
 11733     0FB0  1803               	skipnc
 11734     0FB1  0ABD               	incf	___fldiv@new_exp+1,f
 11735     0FB2  3000               	movlw	0
 11736     0FB3  07BD               	addwf	___fldiv@new_exp+1,f
 11737     0FB4                     l5250:
 11738     0FB4  083D               	movf	___fldiv@new_exp+1,w
 11739     0FB5  3A80               	xorlw	128
 11740     0FB6  00FF               	movwf	btemp+1
 11741     0FB7  3080               	movlw	128
 11742     0FB8  027F               	subwf	btemp+1,w
 11743     0FB9  1D03               	skipz
 11744     0FBA  2FBD               	goto	u6025
 11745     0FBB  30FF               	movlw	255
 11746     0FBC  023C               	subwf	___fldiv@new_exp,w
 11747     0FBD                     u6025:
 11748     0FBD  1C03               	skipc
 11749     0FBE  2FC0               	goto	u6021
 11750     0FBF  2FC1               	goto	u6020
 11751     0FC0                     u6021:
 11752     0FC0  2FCF               	goto	l5254
 11753     0FC1                     u6020:
 11754     0FC1                     l5252:
 11755     0FC1  30FF               	movlw	255
 11756     0FC2  1283               	bcf	3,5	;RP0=0, select bank0
 11757     0FC3  1303               	bcf	3,6	;RP1=0, select bank0
 11758     0FC4  00BC               	movwf	___fldiv@new_exp
 11759     0FC5  3000               	movlw	0
 11760     0FC6  00BD               	movwf	___fldiv@new_exp+1
 11761     0FC7  3000               	movlw	0
 11762     0FC8  00B1               	movwf	___fldiv@b+3
 11763     0FC9  3000               	movlw	0
 11764     0FCA  00B0               	movwf	___fldiv@b+2
 11765     0FCB  3000               	movlw	0
 11766     0FCC  00AF               	movwf	___fldiv@b+1
 11767     0FCD  3000               	movlw	0
 11768     0FCE  00AE               	movwf	___fldiv@b
 11769     0FCF                     l5254:
 11770     0FCF  1283               	bcf	3,5	;RP0=0, select bank0
 11771     0FD0  1303               	bcf	3,6	;RP1=0, select bank0
 11772     0FD1  083D               	movf	___fldiv@new_exp+1,w
 11773     0FD2  3A80               	xorlw	128
 11774     0FD3  00FF               	movwf	btemp+1
 11775     0FD4  3080               	movlw	128
 11776     0FD5  027F               	subwf	btemp+1,w
 11777     0FD6  1D03               	skipz
 11778     0FD7  2FDA               	goto	u6035
 11779     0FD8  3001               	movlw	1
 11780     0FD9  023C               	subwf	___fldiv@new_exp,w
 11781     0FDA                     u6035:
 11782     0FDA  1803               	skipnc
 11783     0FDB  2FDD               	goto	u6031
 11784     0FDC  2FDE               	goto	u6030
 11785     0FDD                     u6031:
 11786     0FDD  2FEB               	goto	l1026
 11787     0FDE                     u6030:
 11788     0FDE                     l5256:
 11789     0FDE  1283               	bcf	3,5	;RP0=0, select bank0
 11790     0FDF  1303               	bcf	3,6	;RP1=0, select bank0
 11791     0FE0  01BC               	clrf	___fldiv@new_exp
 11792     0FE1  01BD               	clrf	___fldiv@new_exp+1
 11793     0FE2                     l5258:
 11794     0FE2  3000               	movlw	0
 11795     0FE3  00B1               	movwf	___fldiv@b+3
 11796     0FE4  3000               	movlw	0
 11797     0FE5  00B0               	movwf	___fldiv@b+2
 11798     0FE6  3000               	movlw	0
 11799     0FE7  00AF               	movwf	___fldiv@b+1
 11800     0FE8  3000               	movlw	0
 11801     0FE9  00AE               	movwf	___fldiv@b
 11802     0FEA                     l5260:
 11803     0FEA  01BB               	clrf	___fldiv@sign
 11804     0FEB                     l1026:
 11805     0FEB  1283               	bcf	3,5	;RP0=0, select bank0
 11806     0FEC  1303               	bcf	3,6	;RP1=0, select bank0
 11807     0FED  083C               	movf	___fldiv@new_exp,w
 11808     0FEE  00C2               	movwf	___fldiv@bexp
 11809     0FEF                     l5262:
 11810     0FEF  1C42               	btfss	___fldiv@bexp,0
 11811     0FF0  2FF2               	goto	u6041
 11812     0FF1  2FF3               	goto	u6040
 11813     0FF2                     u6041:
 11814     0FF2  2FF5               	goto	l5266
 11815     0FF3                     u6040:
 11816     0FF3                     l5264:
 11817     0FF3  17B0               	bsf	___fldiv@b+2,7
 11818     0FF4  2FF7               	goto	l1028
 11819     0FF5                     l5266:
 11820     0FF5  307F               	movlw	127
 11821     0FF6  05B0               	andwf	___fldiv@b+2,f
 11822     0FF7                     l1028:
 11823     0FF7  0842               	movf	___fldiv@bexp,w
 11824     0FF8  00B2               	movwf	??___fldiv
 11825     0FF9  1003               	clrc
 11826     0FFA  0C32               	rrf	??___fldiv,w
 11827     0FFB  00B1               	movwf	___fldiv@b+3
 11828     0FFC  083B               	movf	___fldiv@sign,w
 11829     0FFD  04B1               	iorwf	___fldiv@b+3,f
 11830     0FFE  2EA1               	goto	l5174
 11831     0FFF                     l1006:
 11832     0FFF  0008               	return
 11833     1000                     __end_of___fldiv:
 11834                           
 11835                           	psect	text53
 11836     12B3                     __ptext53:	
 11837 ;; *************** function _isr *****************
 11838 ;; Defined at:
 11839 ;;		line 6 in file "isr.c"
 11840 ;; Parameters:    Size  Location     Type
 11841 ;;		None
 11842 ;; Auto vars:     Size  Location     Type
 11843 ;;		None
 11844 ;; Return value:  Size  Location     Type
 11845 ;;                  1    wreg      void 
 11846 ;; Registers used:
 11847 ;;		wreg, status,2, status,0
 11848 ;; Tracked objects:
 11849 ;;		On entry : 0/0
 11850 ;;		On exit  : 0/0
 11851 ;;		Unchanged: 0/0
 11852 ;; Data sizes:     COMMON   BANK0   BANK1   BANK3   BANK2
 11853 ;;      Params:         0       0       0       0       0
 11854 ;;      Locals:         0       0       0       0       0
 11855 ;;      Temps:          2       0       0       0       0
 11856 ;;      Totals:         2       0       0       0       0
 11857 ;;Total ram usage:        2 bytes
 11858 ;; Hardware stack levels used: 1
 11859 ;; This function calls:
 11860 ;;		Nothing
 11861 ;; This function is called by:
 11862 ;;		Interrupt level 1
 11863 ;; This function uses a non-reentrant model
 11864 ;;
 11865                           
 11866     12B3                     _isr:	
 11867                           ;psect for function _isr
 11868                           
 11869     12B3                     i1l4082:
 11870                           
 11871                           ;isr.c: 8:     static unsigned int count = 0;;isr.c: 10:     if (TMR2IF == 1)
 11872     12B3  1283               	bcf	3,5	;RP0=0, select bank0
 11873     12B4  1303               	bcf	3,6	;RP1=0, select bank0
 11874     12B5  1C8C               	btfss	12,1	;volatile
 11875     12B6  2AB8               	goto	u429_21
 11876     12B7  2AB9               	goto	u429_20
 11877     12B8                     u429_21:
 11878     12B8  2ADD               	goto	i1l534
 11879     12B9                     u429_20:
 11880     12B9                     i1l4084:
 11881                           
 11882                           ;isr.c: 11:     {;isr.c: 12:         if (++count == 1250)
 11883     12B9  3001               	movlw	1
 11884     12BA  1683               	bsf	3,5	;RP0=1, select bank1
 11885     12BB  1303               	bcf	3,6	;RP1=0, select bank1
 11886     12BC  07A3               	addwf	isr@count^(0+128),f
 11887     12BD  1803               	skipnc
 11888     12BE  0AA4               	incf	(isr@count+1)^(0+128),f
 11889     12BF  3000               	movlw	0
 11890     12C0  07A4               	addwf	(isr@count+1)^(0+128),f
 11891     12C1  30E2               	movlw	226
 11892     12C2  0623               	xorwf	isr@count^(0+128),w
 11893     12C3  3004               	movlw	4
 11894     12C4  1903               	skipnz
 11895     12C5  0624               	xorwf	(isr@count+1)^(0+128),w
 11896     12C6  1D03               	btfss	3,2
 11897     12C7  2AC9               	goto	u430_21
 11898     12C8  2ACA               	goto	u430_20
 11899     12C9                     u430_21:
 11900     12C9  2ADA               	goto	i1l4094
 11901     12CA                     u430_20:
 11902     12CA                     i1l4086:
 11903                           
 11904                           ;isr.c: 13:         {;isr.c: 14:             count = 0;
 11905     12CA  01A3               	clrf	isr@count^(0+128)
 11906     12CB  01A4               	clrf	(isr@count+1)^(0+128)
 11907     12CC                     i1l4088:
 11908                           
 11909                           ;isr.c: 15:             if(sec > 0)
 11910     12CC  082D               	movf	_sec^(0+128),w
 11911     12CD  1903               	btfsc	3,2
 11912     12CE  2AD0               	goto	u431_21
 11913     12CF  2AD1               	goto	u431_20
 11914     12D0                     u431_21:
 11915     12D0  2AD3               	goto	i1l532
 11916     12D1                     u431_20:
 11917     12D1                     i1l4090:
 11918                           
 11919                           ;isr.c: 16:             {;isr.c: 17:                 sec--;
 11920     12D1  3001               	movlw	1
 11921     12D2  02AD               	subwf	_sec^(0+128),f
 11922     12D3                     i1l532:	
 11923                           ;isr.c: 18:             }
 11924                           
 11925                           
 11926                           ;isr.c: 19:             if(return_time > 0)
 11927     12D3  082C               	movf	_return_time^(0+128),w
 11928     12D4  1903               	btfsc	3,2
 11929     12D5  2AD7               	goto	u432_21
 11930     12D6  2AD8               	goto	u432_20
 11931     12D7                     u432_21:
 11932     12D7  2ADA               	goto	i1l4094
 11933     12D8                     u432_20:
 11934     12D8                     i1l4092:
 11935                           
 11936                           ;isr.c: 20:             {;isr.c: 21:                 return_time--;
 11937     12D8  3001               	movlw	1
 11938     12D9  02AC               	subwf	_return_time^(0+128),f
 11939     12DA                     i1l4094:
 11940                           
 11941                           ;isr.c: 24:         TMR2IF = 0;
 11942     12DA  1283               	bcf	3,5	;RP0=0, select bank0
 11943     12DB  1303               	bcf	3,6	;RP1=0, select bank0
 11944     12DC  108C               	bcf	12,1	;volatile
 11945     12DD                     i1l534:
 11946     12DD  0871               	movf	??_isr+1,w
 11947     12DE  008A               	movwf	10
 11948     12DF  0E70               	swapf	??_isr,w
 11949     12E0  0083               	movwf	3
 11950     12E1  0EFE               	swapf	btemp,f
 11951     12E2  0E7E               	swapf	btemp,w
 11952     12E3  0009               	retfie
 11953     12E4                     __end_of_isr:
 11954     0002                     ___latbits      equ	2
 11955     007E                     btemp           set	126	;btemp
 11956     007E                     wtemp0          set	126
 11957                           
 11958                           	psect	intentry
 11959     0004                     __pintentry:	
 11960                           ;incstack = 0
 11961                           ; Regs used in _isr: [wreg+status,2+status,0]
 11962                           
 11963     0004                     interrupt_function:
 11964     007E                     saved_w         set	btemp
 11965     0004  00FE               	movwf	btemp
 11966     0005  0E03               	swapf	3,w
 11967     0006  00F0               	movwf	??_isr
 11968     0007  080A               	movf	10,w
 11969     0008  00F1               	movwf	??_isr+1
 11970     0009  160A  118A  2AB3   	ljmp	_isr
 11971                           
 11972                           	psect	idloc
 11973                           
 11974                           ;Config register IDLOC0 @ 0x2000
 11975                           ;	unspecified, using default values
 11976     2000                     	org	8192
 11977     2000  3FFF               	dw	16383
 11978                           
 11979                           ;Config register IDLOC1 @ 0x2001
 11980                           ;	unspecified, using default values
 11981     2001                     	org	8193
 11982     2001  3FFF               	dw	16383
 11983                           
 11984                           ;Config register IDLOC2 @ 0x2002
 11985                           ;	unspecified, using default values
 11986     2002                     	org	8194
 11987     2002  3FFF               	dw	16383
 11988                           
 11989                           ;Config register IDLOC3 @ 0x2003
 11990                           ;	unspecified, using default values
 11991     2003                     	org	8195
 11992     2003  3FFF               	dw	16383
 11993                           
 11994                           	psect	config
 11995                           
 11996                           ;Config register CONFIG @ 0x2007
 11997                           ;	Oscillator Selection bits
 11998                           ;	FOSC = 0x3, unprogrammed default
 11999                           ;	Watchdog Timer Enable bit
 12000                           ;	WDTE = OFF, WDT disabled
 12001                           ;	Power-up Timer Enable bit
 12002                           ;	PWRTE = 0x1, unprogrammed default
 12003                           ;	Brown-out Reset Enable bit
 12004                           ;	BOREN = 0x1, unprogrammed default
 12005                           ;	Low-Voltage (Single-Supply) In-Circuit Serial Programming Enable bit
 12006                           ;	LVP = 0x1, unprogrammed default
 12007                           ;	Data EEPROM Memory Code Protection bit
 12008                           ;	CPD = 0x1, unprogrammed default
 12009                           ;	Flash Program Memory Write Enable bits
 12010                           ;	WRT = 0x3, unprogrammed default
 12011                           ;	In-Circuit Debugger Mode bit
 12012                           ;	DEBUG = 0x1, unprogrammed default
 12013                           ;	Flash Program Memory Code Protection bit
 12014                           ;	CP = 0x1, unprogrammed default
 12015     2007                     	org	8199
 12016     2007  3FFB               	dw	16379

Data Sizes:
    Strings     364
    Constant    0
    Data        33
    BSS         73
    Persistent  0
    Stack       0

Auto Spaces:
    Space          Size  Autos    Used
    COMMON           14     10      12
    BANK0            80     50      51
    BANK1            80      0      78
    BANK3            96     31      56
    BANK2            96      0       0

Pointer List with Targets:

    clcd_print@str	PTR const unsigned char  size(2) Largest target is 17
		 -> get_log(BANK1[17]), main@event(BANK3[3]), STR_10(CODE[15]), STR_11(CODE[17]), 
		 -> STR_12(CODE[17]), STR_13(CODE[9]), STR_14(CODE[10]), STR_15(CODE[13]), 
		 -> STR_16(CODE[9]), STR_17(CODE[13]), STR_18(CODE[15]), STR_19(CODE[14]), 
		 -> STR_20(CODE[16]), STR_21(CODE[9]), STR_22(CODE[5]), STR_23(CODE[15]), 
		 -> STR_24(CODE[14]), STR_25(CODE[15]), STR_26(CODE[17]), STR_27(CODE[14]), 
		 -> STR_28(CODE[13]), STR_29(CODE[13]), STR_30(CODE[8]), STR_31(CODE[6]), 
		 -> STR_34(CODE[10]), STR_35(CODE[12]), STR_36(CODE[16]), STR_37(CODE[16]), 
		 -> STR_38(CODE[13]), STR_39(CODE[14]), 

    display_dashboard@event	PTR unsigned char  size(1) Largest target is 3
		 -> main@event(BANK3[3]), 

    ext_eeprom_24C02_str_write@str	PTR unsigned char  size(2) Largest target is 11
		 -> change_pwd@new_pwd(BANK1[4]), clear_log@temp(BANK0[2]), log(BANK3[11]), STR_8(CODE[5]), 

    log_event@event	PTR unsigned char  size(1) Largest target is 3
		 -> main@event(BANK3[3]), 

    main@F1256	PTR unsigned char [7] size(2) Largest target is 3
		 -> STR_1(CODE[3]), STR_2(CODE[3]), STR_3(CODE[3]), STR_4(CODE[3]), 
		 -> STR_5(CODE[3]), STR_6(CODE[3]), STR_7(CODE[3]), 

    main@gear	PTR unsigned char [7] size(2) Largest target is 3
		 -> STR_1(CODE[3]), STR_2(CODE[3]), STR_3(CODE[3]), STR_4(CODE[3]), 
		 -> STR_5(CODE[3]), STR_6(CODE[3]), STR_7(CODE[3]), 

    menu	PTR unsigned char [5] size(2) Largest target is 13
		 -> STR_13(CODE[9]), STR_14(CODE[10]), STR_15(CODE[13]), STR_16(CODE[9]), 
		 -> STR_17(CODE[13]), 

    puts@s	PTR const unsigned char  size(2) Largest target is 17
		 -> get_log(BANK1[17]), STR_32(CODE[7]), STR_33(CODE[2]), 

    save_time@ntime	PTR unsigned char  size(1) Largest target is 9
		 -> set_time@settime(BANK1[9]), 

    sp__strcpy	PTR unsigned char  size(1) Largest target is 3
		 -> main@event(BANK3[3]), 

    sp__strncpy	PTR unsigned char  size(2) Largest target is 11
		 -> log(BANK3[11]), set_time@settime(BANK1[9]), 

    strcpy@d	PTR unsigned char  size(1) Largest target is 3
		 -> main@event(BANK3[3]), 

    strcpy@dest	PTR unsigned char  size(1) Largest target is 3
		 -> main@event(BANK3[3]), 

    strcpy@src	PTR const unsigned char  size(2) Largest target is 3
		 -> STR_1(CODE[3]), STR_2(CODE[3]), STR_3(CODE[3]), STR_4(CODE[3]), 
		 -> STR_5(CODE[3]), STR_6(CODE[3]), STR_7(CODE[3]), STR_9(CODE[3]), 

    strncmp@l	PTR const unsigned char  size(1) Largest target is 4
		 -> change_pwd@new_pwd(BANK1[4]), login@stored_pwd(BANK0[4]), 

    strncmp@r	PTR const unsigned char  size(1) Largest target is 4
		 -> change_pwd@reenter_pwd(BANK1[4]), login@user_password(BANK1[4]), 

    strncpy@cp	PTR unsigned char  size(2) Largest target is 11
		 -> log(BANK3[11]), set_time@settime(BANK1[9]), 

    strncpy@d	PTR unsigned char  size(2) Largest target is 11
		 -> log(BANK3[11]), set_time@settime(BANK1[9]), 

    strncpy@s	PTR const unsigned char  size(2) Largest target is 7
		 -> main@event(BANK3[3]), time(BANK1[7]), 


Critical Paths under _main in COMMON

    _main->___xxtofl
    _main->_view_log
    _view_log->_clcd_print
    _set_time->___awdiv
    _set_time->_strncpy
    _save_time->___awdiv
    _login->___awdiv
    _log_event->___awdiv
    _log_event->_strncpy
    _store_event->_ext_eeprom_24C02_str_write
    _init_uart->___lldiv
    _init_i2c->___lldiv
    _init_ds1307->_read_ds1307
    _write_ds1307->_i2c_write
    _init_clcd->_init_display_controller
    _init_display_controller->_clcd_write
    _download_log->_clcd_print
    _puts->_putchar
    _fetch_logs->_ext_eeprom_24C02_read
    _ext_eeprom_24C02_read->_i2c_read
    _display_dashboard->___awdiv
    _get_time->_read_ds1307
    _read_ds1307->_i2c_read
    _clear_log->_clcd_print
    _ext_eeprom_24C02_str_write->_ext_eeprom_24C02_byte_write
    _ext_eeprom_24C02_byte_write->_i2c_write
    _clear_screen->_clcd_write
    _clcd_putch->___awdiv
    _clcd_print->_clcd_write
    ___xxtofl->_read_adc
    ___fltol->___xxtofl
    ___fldiv->___xxtofl

Critical Paths under _isr in COMMON

    None.

Critical Paths under _main in BANK0

    _main->___fltol
    _set_time->_save_time
    _menu_screen->_clcd_putch
    _login->_clcd_putch
    _log_event->_strncpy
    _init_config->_init_i2c
    _init_config->_init_uart
    _init_uart->___lldiv
    _init_i2c->___lldiv
    _display_dashboard->_clcd_putch
    _display_time->_clcd_putch
    _change_pwd->_clcd_putch
    ___fltol->___fldiv
    ___fldiv->___xxtofl

Critical Paths under _isr in BANK0

    None.

Critical Paths under _main in BANK1

    None.

Critical Paths under _isr in BANK1

    None.

Critical Paths under _main in BANK3

    None.

Critical Paths under _isr in BANK3

    None.

Critical Paths under _main in BANK2

    None.

Critical Paths under _isr in BANK2

    None.

Call Graph Tables:

 ---------------------------------------------------------------------------------
 (Depth) Function   	        Calls       Base Space   Used Autos Params    Refs
 ---------------------------------------------------------------------------------
 (0) _main                                                35    35      0   30166
                                             46 BANK0      4     4      0
                                              0 BANK3     31    31      0
                            ___fldiv
                            ___fltol
                           ___xxtofl
                         _change_pwd
                         _clcd_print
                         _clcd_write
                          _clear_log
                       _clear_screen
                  _display_dashboard
                       _download_log
         _ext_eeprom_24C02_str_write
                        _init_config
                          _log_event
                              _login
                        _menu_screen
                           _read_adc
                _read_digital_keypad
                           _set_time
                             _strcpy
                           _view_log
 ---------------------------------------------------------------------------------
 (1) _view_log                                             5     4      1    2147
                                              9 COMMON     1     0      1
                                              0 BANK0      4     4      0
                            ___awmod
                         _clcd_print
                       _clear_screen
                         _fetch_logs
 ---------------------------------------------------------------------------------
 (2) _strcpy                                               6     3      3     121
                                              2 COMMON     6     3      3
 ---------------------------------------------------------------------------------
 (1) _set_time                                            16    15      1    6157
                                             14 BANK0     16    15      1
                            ___awdiv
                            ___awmod
                             ___bmul
                         _clcd_print
                         _clcd_putch
                       _clear_screen
                           _get_time
                          _save_time
                            _strncpy
 ---------------------------------------------------------------------------------
 (2) _save_time                                           14    13      1    1816
                                              0 BANK0     14    13      1
                            ___awdiv
                            ___awmod
                             ___bmul
                       _write_ds1307
 ---------------------------------------------------------------------------------
 (1) _read_digital_keypad                                  2     2      0      47
                                              2 COMMON     2     2      0
 ---------------------------------------------------------------------------------
 (1) _read_adc                                             4     2      2      34
                                              2 COMMON     4     2      2
 ---------------------------------------------------------------------------------
 (1) _menu_screen                                          4     3      1    1190
                                              2 BANK0      4     3      1
                         _clcd_print
                         _clcd_putch
                       _clear_screen
 ---------------------------------------------------------------------------------
 (1) _login                                               11    10      1    3100
                                              2 BANK0     11    10      1
                            ___awdiv
                            ___awmod
                         _clcd_print
                         _clcd_putch
                         _clcd_write
                       _clear_screen
              _ext_eeprom_24C02_read
                            _strncmp
 ---------------------------------------------------------------------------------
 (1) _log_event                                            4     2      2    2200
                                              4 BANK0      4     2      2
                            ___awdiv
                            ___awmod
                           _get_time
                        _store_event
                            _strncpy
 ---------------------------------------------------------------------------------
 (2) _strncpy                                             12     6      6     332
                                              2 COMMON     8     2      6
                                              0 BANK0      4     4      0
 ---------------------------------------------------------------------------------
 (2) _store_event                                          1     1      0     487
                                              8 COMMON     1     1      0
                             ___bmul
         _ext_eeprom_24C02_str_write
 ---------------------------------------------------------------------------------
 (1) _init_config                                          0     0      0    1172
                           _init_adc
                          _init_clcd
                _init_digital_keypad
                        _init_ds1307
                           _init_i2c
                        _init_timer2
                          _init_uart
 ---------------------------------------------------------------------------------
 (2) _init_uart                                            8     4      4     287
                                              6 BANK0      8     4      4
                            ___lldiv
 ---------------------------------------------------------------------------------
 (2) _init_timer2                                          0     0      0       0
 ---------------------------------------------------------------------------------
 (2) _init_i2c                                             8     4      4     287
                                              6 BANK0      8     4      4
                            ___lldiv
 ---------------------------------------------------------------------------------
 (3) ___lldiv                                             14     6      8     253
                                              2 COMMON     8     0      8
                                              0 BANK0      6     6      0
 ---------------------------------------------------------------------------------
 (2) _init_ds1307                                          1     1      0     383
                                              6 COMMON     1     1      0
                        _read_ds1307
                       _write_ds1307
 ---------------------------------------------------------------------------------
 (3) _write_ds1307                                         2     1      1     137
                                              3 COMMON     2     1      1
                          _i2c_start
                           _i2c_stop
                          _i2c_write
 ---------------------------------------------------------------------------------
 (2) _init_digital_keypad                                  0     0      0       0
 ---------------------------------------------------------------------------------
 (2) _init_clcd                                            0     0      0     215
            _init_display_controller
 ---------------------------------------------------------------------------------
 (3) _init_display_controller                              2     2      0     215
                                              6 COMMON     2     2      0
                         _clcd_write
 ---------------------------------------------------------------------------------
 (2) _init_adc                                             0     0      0       0
 ---------------------------------------------------------------------------------
 (1) _download_log                                         5     5      0    1700
                                              0 BANK0      5     5      0
                         _clcd_print
                       _clear_screen
                         _fetch_logs
                               _puts
 ---------------------------------------------------------------------------------
 (2) _puts                                                 2     0      2     121
                                              3 COMMON     2     0      2
                            _putchar
 ---------------------------------------------------------------------------------
 (3) _putchar                                              1     1      0      47
                                              2 COMMON     1     1      0
 ---------------------------------------------------------------------------------
 (2) _fetch_logs                                           2     2      0     811
                                              6 COMMON     2     2      0
                             ___bmul
              _ext_eeprom_24C02_read
 ---------------------------------------------------------------------------------
 (3) _ext_eeprom_24C02_read                                2     2      0     209
                                              4 COMMON     2     2      0
                           _i2c_read
                      _i2c_rep_start
                          _i2c_start
                           _i2c_stop
                          _i2c_write
 ---------------------------------------------------------------------------------
 (3) ___bmul                                               3     2      1     195
                                              2 COMMON     3     2      1
 ---------------------------------------------------------------------------------
 (1) _display_dashboard                                    4     2      2    2515
                                              2 BANK0      4     2      2
                            ___awdiv
                            ___awmod
                         _clcd_print
                         _clcd_putch
                       _display_time
 ---------------------------------------------------------------------------------
 (2) _display_time                                         0     0      0     571
                         _clcd_putch
                           _get_time
 ---------------------------------------------------------------------------------
 (2) _get_time                                             1     1      0     209
                                              6 COMMON     1     1      0
                        _read_ds1307
 ---------------------------------------------------------------------------------
 (3) _read_ds1307                                          2     2      0     209
                                              4 COMMON     2     2      0
                           _i2c_read
                      _i2c_rep_start
                          _i2c_start
                           _i2c_stop
                          _i2c_write
 ---------------------------------------------------------------------------------
 (4) _i2c_rep_start                                        0     0      0       0
                          _i2c_start
                           _i2c_stop
 ---------------------------------------------------------------------------------
 (4) _i2c_read                                             2     2      0      81
                                              2 COMMON     2     2      0
                  _i2c_wait_for_idle
 ---------------------------------------------------------------------------------
 (2) ___awmod                                              6     2      4     499
                                              2 COMMON     6     2      4
 ---------------------------------------------------------------------------------
 (3) ___awdiv                                              8     4      4     499
                                              2 COMMON     8     4      4
 ---------------------------------------------------------------------------------
 (1) _clear_log                                            4     4      0    1097
                                              0 BANK0      3     3      0
                         _clcd_print
                       _clear_screen
         _ext_eeprom_24C02_str_write
 ---------------------------------------------------------------------------------
 (1) _change_pwd                                           9     8      1    2210
                                              2 BANK0      9     8      1
                         _clcd_print
                         _clcd_putch
                         _clcd_write
                       _clear_screen
         _ext_eeprom_24C02_str_write
                            _strncmp
 ---------------------------------------------------------------------------------
 (2) _strncmp                                              6     2      4     275
                                              2 COMMON     6     2      4
 ---------------------------------------------------------------------------------
 (3) _ext_eeprom_24C02_str_write                           3     1      2     258
                                              5 COMMON     3     1      2
        _ext_eeprom_24C02_byte_write
 ---------------------------------------------------------------------------------
 (4) _ext_eeprom_24C02_byte_write                          2     1      1     128
                                              3 COMMON     2     1      1
                          _i2c_start
                           _i2c_stop
                          _i2c_write
 ---------------------------------------------------------------------------------
 (4) _i2c_write                                            1     1      0      47
                                              2 COMMON     1     1      0
                  _i2c_wait_for_idle
 ---------------------------------------------------------------------------------
 (4) _i2c_stop                                             0     0      0       0
                  _i2c_wait_for_idle
 ---------------------------------------------------------------------------------
 (4) _i2c_start                                            0     0      0       0
                  _i2c_wait_for_idle
 ---------------------------------------------------------------------------------
 (5) _i2c_wait_for_idle                                    0     0      0       0
 ---------------------------------------------------------------------------------
 (2) _clear_screen                                         2     2      0     215
                                              6 COMMON     2     2      0
                         _clcd_write
 ---------------------------------------------------------------------------------
 (2) _clcd_putch                                           2     1      1     362
                                              0 BANK0      2     1      1
                            ___awdiv (ARG)
                            ___awmod (ARG)
                         _clcd_write
 ---------------------------------------------------------------------------------
 (2) _clcd_print                                           3     0      3     485
                                              6 COMMON     3     0      3
                         _clcd_write
 ---------------------------------------------------------------------------------
 (3) _clcd_write                                           4     3      1     215
                                              2 COMMON     4     3      1
 ---------------------------------------------------------------------------------
 (1) ___xxtofl                                            14    10      4     511
                                              6 COMMON     4     0      4
                                              0 BANK0     10    10      0
                           _read_adc (ARG)
 ---------------------------------------------------------------------------------
 (1) ___fltol                                             10     6      4     340
                                             36 BANK0     10     6      4
                            ___fldiv (ARG)
                           ___xxtofl (ARG)
                           _read_adc (ARG)
 ---------------------------------------------------------------------------------
 (1) ___fldiv                                             26    18      8    1692
                                             10 BANK0     26    18      8
                           ___xxtofl (ARG)
                           _read_adc (ARG)
 ---------------------------------------------------------------------------------
 Estimated maximum stack depth 5
 ---------------------------------------------------------------------------------
 (Depth) Function   	        Calls       Base Space   Used Autos Params    Refs
 ---------------------------------------------------------------------------------
 (8) _isr                                                  2     2      0       0
                                              0 COMMON     2     2      0
 ---------------------------------------------------------------------------------
 Estimated maximum stack depth 8
 ---------------------------------------------------------------------------------

 Call Graph Graphs:

 _main (ROOT)
   ___fldiv
     ___xxtofl (ARG)
       _read_adc (ARG)
     _read_adc (ARG)
   ___fltol
     ___fldiv (ARG)
     ___xxtofl (ARG)
     _read_adc (ARG)
   ___xxtofl
   _change_pwd
     _clcd_print
       _clcd_write
     _clcd_putch
       ___awdiv (ARG)
       ___awmod (ARG)
       _clcd_write (ARG)
     _clcd_write
     _clear_screen
       _clcd_write
     _ext_eeprom_24C02_str_write
       _ext_eeprom_24C02_byte_write
         _i2c_start
           _i2c_wait_for_idle
         _i2c_stop
           _i2c_wait_for_idle
         _i2c_write
           _i2c_wait_for_idle
     _strncmp
   _clcd_print
   _clcd_write
   _clear_log
     _clcd_print
     _clear_screen
     _ext_eeprom_24C02_str_write
   _clear_screen
   _display_dashboard
     ___awdiv
     ___awmod
     _clcd_print
     _clcd_putch
     _display_time
       _clcd_putch
       _get_time
         _read_ds1307
           _i2c_read
             _i2c_wait_for_idle
           _i2c_rep_start
             _i2c_start
             _i2c_stop
           _i2c_start
           _i2c_stop
           _i2c_write
   _download_log
     _clcd_print
     _clear_screen
     _fetch_logs
       ___bmul
       _ext_eeprom_24C02_read
         _i2c_read
         _i2c_rep_start
         _i2c_start
         _i2c_stop
         _i2c_write
     _puts
       _putchar
   _ext_eeprom_24C02_str_write
   _init_config
     _init_adc
     _init_clcd
       _init_display_controller
         _clcd_write
     _init_digital_keypad
     _init_ds1307
       _read_ds1307
       _write_ds1307
         _i2c_start
         _i2c_stop
         _i2c_write
     _init_i2c
       ___lldiv
     _init_timer2
     _init_uart
       ___lldiv
   _log_event
     ___awdiv
     ___awmod
     _get_time
     _store_event
       ___bmul
       _ext_eeprom_24C02_str_write
     _strncpy
   _login
     ___awdiv
     ___awmod
     _clcd_print
     _clcd_putch
     _clcd_write
     _clear_screen
     _ext_eeprom_24C02_read
     _strncmp
   _menu_screen
     _clcd_print
     _clcd_putch
     _clear_screen
   _read_adc
   _read_digital_keypad
   _set_time
     ___awdiv
     ___awmod
     ___bmul
     _clcd_print
     _clcd_putch
     _clear_screen
     _get_time
     _save_time
       ___awdiv
       ___awmod
       ___bmul
       _write_ds1307
     _strncpy
   _strcpy
   _view_log
     ___awmod
     _clcd_print
     _clear_screen
     _fetch_logs

 _isr (ROOT)

Address spaces:
Name               Size   Autos  Total    Usage
BANK3               96     31      56     58.3%
BITBANK3            96      0       0      0.0%
BANK2               96      0       0      0.0%
BITBANK2            96      0       0      0.0%
BANK1               80      0      78     97.5%
BITBANK1            80      0       0      0.0%
BANK0               80     50      51     63.7%
BITBANK0            80      0       0      0.0%
COMMON              14     10      12     85.7%
BITCOMMON           14      0       0      0.0%
DATA                 0      0     197      0.0%
STACK                0      0       0      0.0%


Microchip Technology PIC Macro Assembler V3.00 build 20241204225717 
Symbol Table                                                                                   Mon Mar 24 20:01:36 2025

                       ___fldiv@aexp 0043                         ___fldiv@bexp 0042  
                                  pc 0002                         ___fldiv@sign 003B  
                     ___bmul@product 0073                       clcd_print@addr 0078  
                                 l57 0839                                   l91 024F  
                                 l93 0259                                   l94 025C  
                                 l95 027E                                   l96 028A  
                                 l88 02CD                                   _GO 00FA  
                       ___awdiv@sign 0077                                   fsr 0004  
                                l103 0405                                  l212 1F19  
                                l221 1F02                                  l150 1F18  
                                l215 1F25                                  l144 1380  
                                l224 1EEC                                  l232 1EF7  
                                l153 1FC3                                  l209 1315  
                                l218 1EE3                                  l227 1187  
                                l331 1543                                  l147 1723  
                                l228 118A                                  l252 1229  
                                l404 093B                                  l180 1F75  
                                l229 118C                                  l325 14A0  
                                l174 1ED2                                  l262 1ECB  
                                l350 0E35                                  l159 1283  
                                l255 1FFF                                  l328 165D  
                                l336 13BD                                  l249 1F63  
                                l177 1F67                                  l362 0DC8  
                                l442 0C71                                  l339 15FB  
                                l268 12B2                                  l428 0618  
                                l380 0AF0                                  l517 1F32  
                                l390 08B8                                  l471 1F51  
                                l455 068F                                  l439 0665  
                                l800 16C0                                  l368 09EE  
                                l553 1F08                                  l561 11D3  
                                l554 1F0C                                  l467 07ED  
                                l555 1F0D                                  l387 0B76  
                                l484 1254                                  l493 11FE  
                                l813 159A                                  l549 134A  
                                l398 1453                                  l487 1FE1  
                                l841 17FF                                  l673 1F88  
                                l851 17FF                                  l683 1789  
                                l848 17EA                                  _GIE 005F  
                                _RE1 0049                                  _RE2 004A  
                                _PR2 0092                                  _PEN 048A  
                                _SEN 0488                                  _PSA 040B  
                      ?_display_time 0070                                  _log 01BD  
                                _sec 00AD                                  _isr 12B3  
                     clcd_putch@addr 0020                                  fsr0 0004  
                     clcd_putch@data 0021                                  indf 0000  
                       ___awmod@sign 0077                   view_log@reset_flag 0079  
                       ___fltol@exp1 004D                                 l1020 0F79  
                               l1004 0E8B                                 l1101 0A6E  
                               l1006 0FFF                                 l1102 0A7A  
                               l1113 1408                                 l1026 0FEB  
                               l1028 0FF7                                 l1109 11AD  
                               l1128 14EF                                 l1090 0AA4  
                               l1094 0A52                                 l1088 0A13  
                               l1089 0A24                ??_read_digital_keypad 0072  
                               l4100 1EDB                                 l4102 1EE0  
                               l4110 116D                                 l4104 1EE4  
                               l5000 06A1                                 l4120 118B  
                               l4112 1172                                 l4200 146F  
                               l4106 1EE9                                 l5010 06C4  
                               l5002 06A8                                 l4114 117A  
                               l4210 149B                                 l4202 147B  
                               l5100 17B1                                 l4140 135F  
                               l4132 134C                                 l4124 1EEE  
                               l5020 06E6                                 l5012 06CB  
                               l5004 06AF                                 l4300 16BC  
                               l4116 117E                                 l4108 1EF8  
                               l4212 149F                                 l4204 147F  
                               l4220 1F04                                 l5102 17B2  
                               l4150 1377                                 l4142 1362  
                               l4134 1356                                 l4126 1EF3  
                               l5022 06EC                                 l5030 0708  
                               l5014 06D2                                 l5006 06B6  
                               l4310 154E                                 l4118 1183  
                               l4206 148B                                 l4230 1F80  
                               l4222 1F77                                 l4214 122B  
                               l5200 0EFF                                 l5104 17BA  
                               l4144 136E                                 l4136 1359  
                               l4128 1EF7                                 l4160 11D5  
                               l5040 072D                                 l5032 070E  
                               l5024 06F3                                 l5016 06DC  
                               l5008 06BE                                 l4320 1562  
                               l4312 1550                                 l4304 1544  
                               l4152 1200                                 l4208 148F  
                               l4232 1F87                                 l4224 1F78  
                               l4216 1253                                 l4240 1739  
                               l5210 0F2A                                 l5202 0F00  
                               l5130 0E3A                                 l5122 17DF  
                               l5114 17C8                                 l5106 17BC  
                               l4146 136F                                 l4138 135A  
                               l4162 11D6                                 l5050 0750  
                               l5042 0734                                 l5034 0715  
                               l5026 06FA                                 l5018 06E0  
                               l4330 157F                                 l4322 1569  
                               l4314 1554                                 l4306 1545  
                               l4154 1228                                 l4226 1F7C  
                               l4170 16C1                                 l4250 1771  
                               l4242 1744                                 l5220 0F45  
                               l5204 0F09                                 l5212 0F2C  
                               l5140 0E4A                                 l5132 0E3C  
                               l5124 17EF                                 l5108 17C0  
                               l5116 17D8                                 l5300 0A72  
                               l4148 1374                                 l4164 11E6  
                               l5060 0785                                 l5044 073B  
                               l5036 071D                                 l5052 0757  
                               l5028 0704                                 l4260 165E  
                               l4332 1586                                 l4324 156B  
                               l4316 1559                                 l4308 1549  
                               l4228 1F7E                                 l4180 16EC  
                               l4172 16C9                                 l4252 1772  
                               l4244 1748                                 l4236 1724  
                               l4500 0819                                 l5230 0F5D  
                               l5222 0F49                                 l5214 0F32  
                               l5206 0F1B                                 l5150 0E62  
                               l5142 0E4F                                 l5134 0E40  
                               l5126 17F4                                 l5310 0A9C  
                               l5302 0A7C                                 l4158 1FC5  
                               l4166 11E8                                 l4430 13E8  
                               l4422 13CF                                 l5070 07A0  
                               l5054 075F                                 l5046 0742  
                               l5038 0722                                 l4270 166E  
                               l4262 165F                                 l4326 156F  
                               l4318 155F                                 l4334 158C  
                               l4190 1717                                 l4182 16EF  
                               l4174 16D0                                 l4350 1F59  
                               l4254 177B                                 l4246 1751  
                               l4238 1736                                 l4342 12E4  
                               l4502 081E                                 l5240 0F7E  
                               l5232 0F5E                                 l5224 0F4A  
                               l5216 0F3A                                 l5208 0F1C  
                               l5160 0E73                                 l5152 0E65  
                               l5144 0E57                                 l5136 0E44  
                               l5128 0E36                                 l5304 0A92  
                               l4096 1F19                                 l4168 11EE  
                               l4432 13EE                                 l4424 13D3  
                               l4416 13BE                                 l5072 07AD  
                               l5056 076B                                 l5048 0749  
                               l4280 1680                                 l4272 1673  
                               l4264 1663                                 l4336 1591  
                               l4328 1579                                 l4440 0845  
                               l4192 171E                                 l4184 16F6  
                               l4176 16E0                                 l4360 1F12  
                               l4352 1F5B                                 l4248 1763  
                               l4256 1781                                 l4344 12E7  
                               l4504 0823                                 l4600 0CCE  
                               l5242 0F83                                 l5250 0FB4  
                               l5234 0F62                                 l5226 0F53  
                               l5218 0F3C                                 l5170 0E93  
                               l5162 0E78                                 l5154 0E69  
                               l5146 0E58                                 l5138 0E45  
                               l5306 0A97                                 l4194 1FB2  
                               l4098 1F1F                                 l4434 13FA  
                               l4418 13CC                                 l4426 13D9  
                               l5074 07C3                                 l5066 0789  
                               l5082 07D3                                 l5058 0772  
                               l4290 16A4                                 l4282 1687  
                               l4274 1675                                 l4266 1668  
                               l4338 1596                                 l4450 0861  
                               l4442 084A                                 l4354 1ECC  
                               l4186 1702                                 l4178 16E5  
                               l4362 1F13                                 l4346 1312  
                               l4370 1F26                                 l4506 0837  
                               l4522 1F64                                 l4530 128A  
                               l5260 0FEA                                 l5252 0FC1  
                               l5244 0F91                                 l5236 0F76  
                               l5228 0F59                                 l5180 0EAF  
                               l5172 0E9F                                 l5164 0E80  
                               l5156 0E6D                                 l5148 0E5A  
                               l5092 178A                                 l5308 0A9B  
                               l4372 1255                                 l4380 1F41  
                               l4428 13E1                                 l5084 07DE  
                               l5076 07D1                                 l5068 0798  
                               l4292 16A5                                 l4284 1689  
                               l4276 1677                                 l4268 166A  
                               l4460 088B                                 l4452 086B  
                               l4444 084C                                 l4188 1707  
                               l4356 1F0E                                 l4364 1EC6  
                               l4196 1FE3                                 l4348 1F52  
                               l4508 0838                                 l4620 0D00  
                               l4700 096C                                 l4524 1F6B  
                               l4540 12A1                                 l5262 0FEF  
                               l5254 0FCF                                 l5246 0F95  
                               l5190 0EDA                                 l5174 0EA1  
                               l5166 0E81                                 l5158 0E6E  
                               l5094 1795                                 l4374 125D  
                               l4382 1F48                                 l5086 07EC  
                               l4294 16AC                                 l4286 168D  
                               l4278 167D                                 l4198 1454  
                               l4470 08AD                                 l4462 088D  
                               l4454 0875                                 l4446 0855  
                               l4438 083B                                 l4358 1F11  
                               l4366 1316                                 l4390 1390  
                               l4630 0D31                                 l4622 0D13  
                               l4614 0CDE                                 l4606 0CD5  
                               l4702 0972                                 l4710 0980  
                               l4550 12AD                                 l5264 0FF3  
                               l5256 0FDE                                 l5248 0FAE  
                               l5192 0EE2                                 l5184 0EB8  
                               l5168 0E83                                 l5280 0A1B  
                               l5272 09F2                                 l4376 126D  
                               l4800 144F                                 l4288 169E  
                               l4296 16B2                                 l4384 15FC  
                               l4560 14F0                                 l4472 08B7  
                               l4464 0897                                 l4456 0877  
                               l4448 085F                                 l4480 11C3  
                               l4368 131D                                 l4392 1392  
                               l4640 0D4A                                 l4632 0D3F  
                               l4624 0D18                                 l4616 0CEB  
                               l4608 0CDB                                 l4720 09C3  
                               l4712 0986                                 l4704 0978  
                               l4552 12B1                                 l4536 128F  
                               l4528 1285                                 l5600 0430  
                               l5266 0FF5                                 l5258 0FE2  
                               l5194 0EE4                                 l5186 0ECA  
                               l5178 0EAA                                 l5098 179E  
                               l5290 0A3B                                 l5274 09F7  
                               l4378 1273                                 l4298 16B7  
                               l4562 14FB                                 l4466 08A1  
                               l4458 0881                                 l4474 11AE  
                               l4810 08D6                                 l4802 08B9  
                               l4394 139C                                 l4386 1381  
                               l4650 0D78                                 l4642 0D56  
                               l4626 0D23                                 l4618 0CF3  
                               l4570 0C7C                                 l4722 09D8  
                               l4714 098F                                 l4706 097D  
                               l4538 129A                                 l4490 0C55  
                               l4482 0B77                                 l5602 0432  
                               l5610 043A                                 l4730 0AAE  
                               l5196 0EE9                                 l5188 0ED2  
                               l5292 0A49                                 l5284 0A27  
                               l5276 09FB                                 l4564 1500  
                               l4468 08A3                                 l4476 11AF  
                               l4820 08FE                                 l4812 08E1  
                               l4804 08C1                                 l4396 13AB  
                               l4388 1389                                 l4660 0DDE  
                               l4652 0DB6                                 l4644 0D5D  
                               l4628 0D2A                                 l4572 0C84  
                               l4724 09ED                                 l4716 09A4  
                               l4548 12A3                                 l4492 0C5D  
                               l4484 0BB9                                 l5700 05D8  
                               l5612 0444                                 l5604 0433  
                               l4556 118D                                 l4740 0AD1  
                               l4732 0AB0                                 l5198 0EFB  
                               l5294 0A59                                 l5286 0A32  
                               l5278 0A0B                                 l4478 11BD  
                               l4822 0903                                 l4830 0925  
                               l4814 08EF                                 l4806 08C6  
                               l4398 13B3                                 l4670 0E1F  
                               l4662 0DE9                                 l4654 0DC1  
                               l4646 0D68                                 l4638 0D41  
                               l4590 0CB2                                 l4582 0C95  
                               l4574 0C88                                 l4566 0C75  
                               l4718 09BA                                 l4494 0C67  
                               l4486 0BED                                 l5710 05EB  
                               l5702 05DF                                 l5630 0485  
                               l5622 0458                                 l5614 0449  
                               l5606 0435                                 l4558 118F  
                               l4750 0B0C                                 l4742 0AD6  
                               l4734 0AB3                                 l5296 0A64  
                               l5288 0A39                                 l4824 090B  
                               l4808 08CB                                 l4496 0800  
                               l4672 0E26                                 l4664 0DF4  
                               l4648 0D73                                 l4656 0DCB  
                               l4592 0CB4                                 l4584 0C9D  
                               l4568 0C7B                                 l4576 0C8C  
                               l4680 0945                                 l4488 0C21  
                               l5720 0629                                 l5712 0600  
                               l5704 05E2                                 l5640 04BD  
                               l5624 0460                                 l5632 0491  
                               l5616 0454                                 l5608 0436  
                               l4760 0B38                                 l4752 0B13  
                               l4744 0ADA                                 l4736 0ABA  
                               l4728 0AA8                                 l5800 015B  
                               l5298 0A68                                 l4826 0914  
                               l4818 08F5                                 l4498 0814  
                               l4674 0E2D                                 l4658 0DD7  
                               l4666 0E0F                                 l4586 0CA3  
                               l4594 0CB9                                 l4578 0C93  
                               l4690 0953                                 l4682 0946  
                               l5730 0649                                 l5722 062C  
                               l5706 05E4                                 l5714 0619  
                               l5650 04EA                                 l5634 0498  
                               l5642 04C9                                 l5626 046F  
                               l4770 0B5C                                 l4762 0B40  
                               l4754 0B15                                 l4746 0AF8  
                               l4738 0AC2                                 l5810 0180  
                               l5802 0170                                 l4780 1410  
                               l4828 091D                                 l5572 14D0  
                               l5564 14A1                                 l5580 159B  
                               l4676 0E34                                 l4668 0E14  
                               l4596 0CBF                                 l4588 0CAC  
                               l4692 095B                                 l4684 094A  
                               l5732 0657                                 l5724 0632  
                               l5716 061F                                 l5708 05EA  
                               l5660 0522                                 l5644 04D0  
                               l5652 04F6                                 l5636 04A7  
                               l5628 047E                                 l4772 0B67  
                               l4756 0B17                                 l4748 0B07  
                               l4764 0B4C                                 l5900 02C2  
                               l5820 01A4                                 l5812 0182  
                               l5740 0044                                 l4782 1412  
                               l5574 14D7                                 l5566 14A6  
                               l5590 15F8                                 l5582 15A0  
                               l4598 0CC5                                 l4694 0960  
                               l4686 0951                                 l4678 093F  
                               l5726 0639                                 l5718 0623  
                               l5670 0542                                 l5662 052A  
                               l5646 04D6                                 l5638 04B6  
                               l5654 0505                                 l4774 0B75  
                               l4766 0B51                                 l4758 0B2D  
                               l5910 02ED                                 l5902 02C8  
                               l5830 01C7                                 l5822 01A9  
                               l5806 0175                                 l5750 0073  
                               l5742 0047                                 l4792 1424  
                               l4784 1417                                 l5576 14DD  
                               l5568 14AC                                 l5584 15B1  
                               l4696 0965                                 l5728 063E  
                               l5680 057B                                 l5736 0659  
                               l5672 0548                                 l5664 0536  
                               l5656 050D                                 l5648 04E3  
                               l5592 0410                                 l4768 0B57  
                               l5920 0307                                 l5912 02F0  
                               l5832 01CE                                 l5824 01AB  
                               l5840 01E4                                 l5808 017B  
                               l5816 0198                                 l5904 02CD  
                               l5760 008C                                 l5752 0073  
                               l5744 0059                                 _ADFM 04FF  
                               l4794 142F                                 l4786 1423  
                               l4778 1409                                 l5578 14E1  
                               l5586 15F2                                 l4698 0967  
                               l5690 0599                                 l5682 0587  
                               l5674 0549                                 l5666 053D  
                               l5658 051A                                 l5594 0416  
                               l5930 0331                                 l5922 0312  
                               l5914 02F7                                 l5906 02D8  
                               l5850 020C                                 l5842 01EA  
                               l5834 01D5                                 l5826 01B2  
                               l5818 019E                                 l5770 00F7  
                               l5762 0096                                 l5754 0075  
                               l5746 0059                                 l4980 0669  
                               l4796 1433                                 l5588 15F3  
                               l5692 059A                                 l5684 058E  
                               l5676 055E                                 l5668 0540  
                               l5596 041B                                 l5940 0348  
                               l5932 0336                                 l5924 0319  
                               l5916 02FE                                 l5908 02E8  
                               l5860 0224                                 l5852 0212  
                               l5844 01FB                                 l5836 01DC  
                               l5828 01BC                                 l5772 0108  
                               l5764 00DD                                 l5756 007D  
                               l5748 0070                                 ?_isr 0070  
                               l4990 067C                                 l4982 066F  
                               l4798 1439                                 l5694 05AF  
                               l5686 0591                                 l5678 0576  
                               l5598 042C                                 l5950 036C  
                               l5942 035B                                 l5934 0339  
                               l5918 0302                                 l5870 023D  
                               l5862 0229                                 l5854 0217  
                               l5846 0203                                 l5838 01E0  
                               l5790 0133                                 l5782 011C  
                               l5774 010A                                 l5766 00E8  
                               l5758 0082                                 l4992 0682  
                               l5688 0593                                 l5696 05C7  
                               l5960 0395                                 l5952 0378  
                               l5944 0360                                 l5936 0340  
                               l5928 031E                                 l5880 026E  
                               l5864 022C                                 l5856 021B  
                               l5848 0208                                 l5792 0134  
                               l5776 010C                                 l5768 00F1  
                               l4994 0697                                 l5698 05CC  
                               l5970 03A3                                 l5962 0398  
                               l5954 037E                                 l5890 029C  
                               l5882 0280                                 l5874 0253  
                               l5858 021E                                 l5866 022F  
                               l5794 013F                                 l5786 0125  
                               l5778 010E                                 l4996 069A  
                               l4988 0671                                 l5972 03B6  
                               l5956 038C                                 l5884 0285  
                               l5876 025E                                 l5868 0237  
                               l5796 014F                                 l5788 012D  
                               l4998 069A                                 l5982 03D1  
                               l5974 03B9                                 l5958 0391  
                               l5886 028C                                 l5878 0263  
                               l5894 02A1                                 l5798 0155  
                               l5984 03E4                                 l5976 03BC  
                               l5968 039E                                 l5888 0291  
                               l5896 02B4                                 l5978 03CD  
                               l5898 02BC                                 l5988 03EB  
                               _ADON 00F8                                 STR_1 1163  
                               STR_2 1169                                 STR_3 1154  
                               STR_4 1157                                 STR_5 115A  
                               STR_6 115D                                 STR_7 1160  
                               STR_8 114F                                 STR_9 1166  
                               _BRGH 04C2                                 _CREN 00C4  
                               _T0CS 040D                                 u5000 0CC5  
                               u5001 0CC4                                 u5010 0CDB  
                               u5011 0CDA                                 u5020 0D00  
                               u5100 0972                                 u5021 0CFF  
                               u5101 0971                                 u5030 0D13  
                               u5110 0978                                 u5031 0D12  
                               u5111 0977                                 u6000 0F95  
                               u5040 0D4A                                 u5120 0986  
                               u5200 0B51                                 u6001 0F94  
                               u5041 0D49                                 u5025 0CFC  
                               u5121 0985                                 u5201 0B50  
                               u6010 0FA4                                 u4330 1F1F  
                               u5050 0DC8                                 u5210 0B57  
                               u5130 0AAE                                 u4331 1F1E  
                               u5051 0DC7                                 u5211 0B56  
                               u5131 0AAD                                 u6020 0FC1  
                               u4340 1F25                                 u5220 1410  
                               u4500 1763                                 u5060 0945  
                               u5140 0ABA                                 u6021 0FC0  
                               u4341 1F24                                 u5221 140F  
                               u4405 1472                                 u4501 1762  
                               u5061 0944                                 u5141 0AB9  
                               u6030 0FDE                                 u6110 0A58  
                               u5230 1439                                 u4350 1183  
                               u4430 1F0C                                 u5070 0951  
                               u5150 0AC2                                 u6031 0FDD  
                               u6015 0F9F                                 u6111 0A57  
                               u5231 1438                                 u4351 1182  
                               u4415 1482                                 u4431 1F0B  
                               u5071 0950                                 u5151 0AC1  
                               u6040 0FF3                                 u4360 1353  
                               u4440 1F7C                                 u5240 08C1  
                               u4520 1781                                 u5080 095B  
                               u5160 0AD1                                 u6041 0FF2  
                               u6025 0FBD                                 u6105 0A4A  
                               u4361 134F                                 u4425 1492  
                               u4441 1F7B                                 u5241 08C0  
                               u4521 1780                                 u4505 175F  
                               u5081 095A                                 u5161 0AD0  
                               u6130 0A68                                 u6050 09F7  
                               u4610 16B2                                 u4530 1663  
                               u4450 1F87                                 u5250 08C6  
                               u5090 0960                                 u5170 0AF8  
                               u6035 0FDA                                 u6131 0A67  
                               u6051 09F6                                 u4611 16B1  
                               u4531 1662                                 u4451 1F86  
                               u5251 08C5                                 u4515 1773  
                               u5091 095F                                 u5171 0AF7  
                               _PEIE 005E                                 u6140 0A6E  
                               u6060 09FB                                 u4620 16B7  
                               u4540 166E                                 u4700 158C  
                               u5260 093B                                 u4460 1736  
                               u5180 0B07                                 u6141 0A6D  
                               u6125 0A5D                                 u6061 09FA  
                               u4621 16B6                                 u4605 16A6  
                               u4541 166D                                 u4701 158B  
                               u5261 093A                                 u4461 1735  
                               u5181 0B06                                 u5165 0ACD  
                               u6150 0A72                                 u6070 0A1B  
                               u4374 1356                                 u4390 11FE  
                               u4550 167D                                 u4710 1591  
                               u4630 1549                                 u5190 0B13  
                               u6151 0A71                                 u6071 0A1A  
                               u4391 11FD                                 u4551 167C  
                               u4711 1590                                 u4631 1548  
                               u5191 0B12                                 u7007 00E3  
                               u6160 0A87                                 u4800 13CC  
                               u5600 0715                                 u4640 1554  
                               u4480 1748                                 u4720 12F5  
                               u4385 1366                                 u4801 13CB  
                               u5601 0714                                 u4641 1553  
                               u5265 0937                                 u4481 1747  
                               u5185 0B03                                 u7017 01B8  
                               u6170 0A97                                 u6090 0A38  
                               u4810 13E1                                 u5610 071B  
                               u5530 066F                                 u4570 168D  
                               u4650 155F                                 u4730 132D  
                               u6171 0A96                                 u6091 0A37  
                               u4811 13E0                                 u5611 0719  
                               u5531 066E                                 u4571 168C  
                               u4651 155E                                 u4475 173B  
                               u7107 065F                                 u7027 01D9  
                               u6180 0A9B                                 u4740 1283  
                               u4820 13E8                                 u5620 071C  
                               u5540 068F                                 u4900 128A  
                               u6500 0443                                 _RCEN 048B  
                               u6181 0A9A                                 u6165 0A82  
                               u6085 0A2A                                 u4741 1282  
                               u4821 13E7                                 u5541 068E  
                               u4565 1681                                 u4725 12F0  
                               u7117 0D2E                                 u4901 1289  
                               u7037 0276                                 u5710 17D7  
                               u4830 13EE                                 u5630 075F  
                               u5550 06BE                                 u4590 169E  
                               u4670 156F                                 u4750 1390  
                               u4910 129A                                 u6510 0460  
                               u5711 17D6                                 u4831 13ED  
                               u5631 075E                                 u5551 06BD  
                               u4591 169D                                 u4671 156E  
                               u7207 16F8                                 u4495 174A  
                               u4735 1328                                 u4751 138F  
                               u7127 0D39                                 u4911 1299  
                               u6511 045F                                 u7047 02FB  
                               u5800 0E73                                 u5720 17DE  
                               u4840 13FA                                 u5640 0785  
                               u5560 06C4                                 u4680 1579  
                               u4760 13AB                                 u4920 12A1  
                               u6600 04D6                                 u6520 046F  
                               u5801 0E72                                 u5721 17DD  
                               u5705 17C9                                 u4841 13F9  
                               u5641 0784                                 u5561 06C3  
                               u5545 068B                                 u4585 168E  
                               u4681 1578                                 u4665 1563  
                               u7217 1704                                 u4761 13AA  
                               u7137 0D5A                                 u4921 12A0  
                               u6601 04D5                                 u6521 046E  
                               u7057 0316                                 u5810 0E78  
                               u5650 07AD                                 u5570 06E6  
                               u4850 11D3                                 u6450 14CF  
                               u4930 12AD                                 u6610 04E3  
                               u6530 047E                                 u5811 0E77  
                               u5651 07AC                                 u7307 076F  
                               u5571 06E5                                 u4595 169A  
                               u4851 11D2                                 u7227 1712  
                               u6451 14CE                                 u7147 0DDB  
                               u4931 12AC                                 u6611 04E2  
                               u6531 047D                                 u7067 0344  
                               u5900 0F32                                 u5820 0E93  
                               u5740 17EF                                 u5660 1795  
                               u5580 06EC                                 u6460 14D6  
                               u6700 05EA                                 u6620 04EA  
                               u6540 0485                                 u4940 11AD  
                               u5901 0F31                                 u5821 0E92  
                               u5741 17EE                                 u5661 1794  
                               u7317 07CB                                 u5581 06EB  
                               u4685 1575                                 u7237 1720  
                               u4765 13A7                                 u6461 14D5  
                               u7157 0E09                                 u6701 05E9  
                               u6621 04E9                                 u6541 0484  
                               u6525 046B                                 u4941 11AC  
                               u7077 0386                                 u5910 0F3A  
                               u5830 0EAF                                 u5750 17F4  
                               u5670 17AC                                 u5590 070E  
                               u6470 14EF                                 u4950 0C7B  
                               u6710 061F                                 u6630 051A  
                               u6550 0498                                 u5911 0F39  
                               u5831 0EAE                                 u5751 17F3  
                               u5735 17E1                                 u7327 07E6  
                               u5655 07A9                                 u5591 070D  
                               u4695 1580                                 u7247 08E9  
                               u6471 14EE                                 u7167 0E31  
                               u4951 0C7A                                 u6711 061E  
                               u6631 0519                                 u6615 04DF  
                               u6551 0497                                 u6535 047A  
                               u7087 0B6F                                 u5840 0EE9  
                               u5760 0E44                                 u5680 17C0  
                               u4960 0C93                                 u6720 0629  
                               u6640 0522                                 u6560 04A7  
                               u6480 0416                                 u6800 015B  
                               u5841 0EE8                                 u5761 0E43  
                               u5681 17BF                                 u7337 1F4C  
                               u7257 06A5                                 u7177 16C5  
                               u4961 0C92                                 u4865 0BE4  
                               u7097 0651                                 u6721 0628  
                               u6641 0521                                 u6561 04A6  
                               u6481 0415                                 u6801 015A  
                               u5930 0F49                                 u5770 0E4A  
                               u5690 17C7                                 u4970 0C9D  
                               u4890 1F6B                                 u6730 0632  
                               u6650 052A                                 u6570 04B6  
                               u6490 0442                                 u6810 017B  
                               u5931 0F48                                 u5771 0E49  
                               u5691 17C6                                 u5675 17A7  
                               u7347 135C                                 u7267 06B3  
                               u7187 16D4                                 u4971 0C9C  
                               u4891 1F6A                                 u4875 0C18  
                               u6731 0631                                 u6651 0529  
                               u6635 0516                                 u6571 04B5  
                               u6491 0440                                 u6811 017A  
                               u5780 0E4F                                 u4980 0CA3  
                               u6660 0548                                 u6580 04BD  
                               u6900 0224                                 u6820 0180  
                               u6740 0061                                 u5925 0F3E  
                               u5781 0E4E                                 u7357 1371  
                               u7277 0738                                 u7197 16E2  
                               u4981 0CA2                                 u4885 0C4C  
                               u6661 0547                                 u6581 04BC  
                               u6565 04A3                                 u6901 0223  
                               u6821 017F                                 u5950 0F5D  
                               u5870 0EFF                                 u5790 0E6D  
                               u4990 0CBF                                 u6670 057B  
                               u6590 04D0                                 u6910 0237  
                               u6830 019E                                 u6750 00F7  
                               u5951 0F5C                                 u5871 0EFE  
                               u5855 0EEB                                 u5791 0E6C  
                               u7367 137B                                 u7287 0746  
                               u4991 0CBE                                 u6671 057A  
                               u6591 04CF                                 u6575 04B2  
                               u6911 0236                                 u6831 019D  
                               u6751 00F6                                 u5960 0F62  
                               u6680 0599                                 u6920 023D  
                               u6840 01A4                                 u6760 011B  
                               u5961 0F61                                 u5945 0F4C  
                               u5865 0EF4                                 u7297 0754  
                               u6681 0598                                 u6921 023C  
                               u6841 01A3                                 u6761 011A  
                               u5970 0F76                                 u5890 0F1B  
                               u6690 05CC                                 u6930 024E  
                               u6850 01A9                                 u6770 012D  
                               u5971 0F75                                 u5891 0F1A  
                               u6691 05CB                                 u6931 024D  
                               u6851 01A8                                 u6771 012C  
                               u5980 0F7D                                 u6940 02BC  
                               u6860 01EA                                 u6780 0133  
                               u5981 0F7C                                 u5885 0F02  
                               u6941 02BB                                 u6933 024A  
                               u6861 01E9                                 u6781 0132  
                               u6765 0117                                 u5990 0F83  
                               u6950 02C2                                 u6870 01FB  
                               u6790 0155                                 u5991 0F82  
                               u5895 0F17                                 u6951 02C1  
                               u6871 01FA                                 u6791 0154  
                               u6960 02C8                                 u6880 0203  
                               u6961 02C7                                 u6881 0202  
                               u6873 01F7                                 u6970 03B6  
                               u6890 0212                                 u6971 03B5  
                               u6891 0211                                 u6980 03CD  
                               u6981 03CC                                 u6990 03E4  
                               u6991 03E3                                 _TMR0 0001  
                               _SPEN 00C7                                 _TXIF 0064  
                               _R_nW 04A2                                 _main 0044  
                               _menu 00DB                       log_event@event 0024  
                               _time 00C8                                 btemp 007E  
                               _puts 11AE                       log_event@speed 0025  
                               start 000C                      ___fldiv@new_exp 003C  
                     menu_screen@key 0025                    ___bmul@multiplier 0074  
                     clcd_write@byte 0075                       clcd_write@mode 0072  
                        _store_event 1381                        _i2c_rep_start 1EF8  
                              ??_isr 0070                         ?_init_ds1307 0070  
                      ___fltol@sign1 004C                                ?_main 0070  
                       ?_read_ds1307 0070                                _ACKEN 048C  
                              _ACKDT 048D                       ??_display_time 007A  
                    __end_of___fldiv 1000                      __end_of___awdiv 16C1  
                              STR_10 1072                                STR_11 1011  
                              STR_20 1043                                STR_12 1022  
                              STR_21 112C                                STR_13 1123  
                              STR_22 114A                                STR_30 1135  
                              STR_14 1110                                STR_31 1144  
                              STR_23 1063                                STR_15 10E0  
                              STR_32 113D                                STR_24 10AB  
                              STR_16 111A                                STR_33 1142  
                              STR_25 1072                                STR_17 10D3  
                              STR_18 1002                                STR_34 1106  
                              STR_26 1000                                STR_35 10FA  
                              STR_27 109D                                STR_19 108F  
                              STR_28 10C6                                STR_36 1033  
                    __end_of___awmod 159B                                STR_29 10ED  
                              STR_37 1053                                STR_38 10B9  
                              STR_39 1081                      __end_of___fltol 1800  
                              ?_puts 0073                      __end_of___lldiv 178A  
                        i2c_read@ack 0072                      ___awdiv@divisor 0072  
                              i1l532 12D3                                i1l534 12DD  
                       ?_init_config 0070                      ___awdiv@counter 0076  
                              _SPBRG 0099                                _PORTB 0006  
                              _PORTD 0008                                _SSPM3 00A3  
                              _TRISB 0086                                _TRISD 0088  
                              _SSPEN 00A5                                _TXREG 0019  
                       ?_init_timer2 0070                                _nDONE 00FA  
               __end_of_clear_screen 1F52                                _login 0C72  
                              main@i 01A0                         ?_menu_screen 0022  
                              pclath 000A                                puts@s 0073  
                    __end_of_putchar 1F0E                                status 0003  
                              wtemp0 007E                      __end_of_strncmp 1409  
                  main@menu_position 019E                      __end_of_strncpy 14F0  
                   init_ds1307@dummy 0076                      __initialization 000F  
                     ?_i2c_rep_start 0070                         __end_of_main 040D  
                       __end_of_puts 11D4                     __end_of_i2c_read 118D  
                   __end_of_i2c_stop 1EED                        ?_download_log 0070  
                             ??_main 004E                               ??_puts 0075  
                     save_time@ntime 0020                       clear_log@F1289 00E8  
                             _ADRESH 001E                               ?_login 0022  
                             _ADRESL 009E                     ___awdiv@dividend 0074  
                       i2c_read@data 0073                               i1l4090 12D1  
                             i1l4082 12B3                               i1l4092 12D8  
                             i1l4084 12B9                               i1l4086 12CA  
                             i1l4094 12DA                               i1l4088 12CC  
                             u430_20 12CA                               u430_21 12C9  
                             u431_20 12D1                               u431_21 12D0  
                             u432_20 12D8                               u432_21 12D7  
                       _write_ds1307 1FE2                               u429_20 12B9  
                             u429_21 12B8                               _TMR0IE 005D  
                             _TMR2IE 0461                               _TMR2IF 0061  
                             _TMR2ON 0092                               _SSPADD 0093  
                             _TRISE1 0449                               _TRISE2 044A  
                             _SSPBUF 0013                     __end_of___xxtofl 0AA5  
        __end_of_init_digital_keypad 1ECC                     __end_of_get_time 14A1  
                             ___bmul 1F76              _init_display_controller 16C1  
                  change_pwd@new_pwd 00D3                            ??___fldiv 0032  
                    set_time@min_low 0035                            ??___awdiv 0076  
                          ??___awmod 0076                            ??___fltol 0048  
                    set_time@sec_low 0033                            ??___lldiv 0020  
       ??_ext_eeprom_24C02_str_write 0077                     __end_of_init_i2c 1316  
                   __end_of_init_adc 1ED3                     __end_of_read_adc 1F76  
                     ??_download_log 0020                      set_time@settime 00BF  
                   ___awdiv@quotient 0078                      ___awmod@divisor 0072  
                    ___awmod@counter 0076                               main@gr 01AA  
                             _strcpy 118D         ?_ext_eeprom_24C02_byte_write 0073  
                             login@i 007A                               login@j 002B  
                   __end_of_set_time 0666                               saved_w 007E  
                   __end_of_view_log 0B77                            ??_putchar 0072  
                          ??_strncmp 0076                            ??_strncpy 0020  
                       ___xxtofl@arg 0026                         ___xxtofl@exp 0025  
                       ___xxtofl@val 0076              __end_of__initialization 0040  
               __end_of_display_time 165E                           ___fltol@f1 0044  
                    ??_i2c_rep_start 0072                  ___bmul@multiplicand 0072  
                     __pcstackCOMMON 0070                         __pidataBANK1 1F9C  
                       __pidataBANK3 1F33                        __end_of_login 0E36  
                    store_event@addr 0078                      login@reset_flag 0022  
                      _events_logged 00A5                    __end_of_i2c_start 1EE4  
                  __end_of_i2c_write 1EF8                      change_pwd@i_420 0027  
                    change_pwd@i_422 0029        ??_ext_eeprom_24C02_byte_write 0074  
                    change_pwd@clear 00A7                    _i2c_wait_for_idle 1F19  
                            ??_login 0023                      save_time@minute 002C  
                    save_time@second 002D                change_pwd@reenter_pwd 00CF  
                 ?_i2c_wait_for_idle 0070                           __pbssBANK0 0052  
                         __pbssBANK1 00A0                           __pbssBANK3 01BD  
                          ?_i2c_read 0070                           _change_pwd 0666  
                          ?_i2c_stop 0070                        change_pwd@key 0026  
          ??_init_display_controller 0076                           _clcd_print 1255  
                ??_i2c_wait_for_idle 0072                           _clcd_putch 1FAF  
                         _clcd_write 134B                _ext_eeprom_24C02_read 122A  
                         _clear_flag 00AB                           __pmaintext 0044  
                    read_ds1307@addr 0074                         ?_store_event 0070  
                    read_ds1307@data 0075                         _clear_screen 1F41  
                            ?___bmul 0072                           __pintentry 0004  
                            _ACKSTAT 048E                              ?_strcpy 0072  
                            _T2CKPS0 0090                              _T2CKPS1 0091  
                    login@stored_pwd 0026                           _fetch_logs 083A  
        __end_of_read_digital_keypad 12B3                            ?___xxtofl 0076  
          __end_of_i2c_wait_for_idle 1F26                         init_i2c@baud 0026  
                            _SSPCON2 0091                            ?_get_time 0070  
                         __stringtab 07EE                           ??_i2c_read 0072  
                         ??_i2c_stop 0072                            ?_init_i2c 0026  
               __end_of_download_log 093C                            ?_init_adc 0070  
                          ?_read_adc 0072                    __end_of_clear_log 1454  
                          ?_set_time 002E   __end_of_ext_eeprom_24C02_str_write 11FF  
         _ext_eeprom_24C02_str_write 11D4            ext_eeprom_24C02_read@addr 0074  
          ext_eeprom_24C02_read@data 0075                              ___fldiv 0E36  
                            ___awdiv 165E                              ___awmod 1544  
                          ?_view_log 0079                              ___fltol 178A  
                            ___lldiv 1724                     set_time@min_high 0034  
                   set_time@sec_high 0032                     set_time@hour_low 0037  
                   main@control_flag 01AD                              __ptext1 0AA5  
                            __ptext2 118D                              __ptext3 040D  
                            __ptext4 0B77                              __ptext5 1284  
                            __ptext6 1F64                              __ptext7 093C  
                            __ptext8 0C72                              __ptext9 159B  
                            _get_log 00AE      __end_of_init_display_controller 1724  
                  __end_of_init_clcd 1F19                           ??___xxtofl 0020  
                            _log_pos 00EA                    __end_of_init_uart 134B  
                   ___awmod@dividend 0074                       main@reset_flag 01AC  
                  __end_of_log_event 15FC               display_dashboard@event 0022  
             display_dashboard@speed 0023                              _putchar 1F03  
                            main@key 01A9                              clrloop0 1ED4  
                         ??_get_time 0076                              _strncmp 13BE  
                            _strncpy 14A1                 end_of_initialization 0040  
                         clear_log@i 0022                          ?_change_pwd 0022  
                  __end_of_save_time 0C72                          set_time@key 0038  
                        set_time@min 003A                          set_time@sec 0039  
                         ??_init_i2c 002A                           ??_init_adc 0072  
                         ??_read_adc 0074               ?_ext_eeprom_24C02_read 0070  
                        ?_clcd_print 0076                          ?_clcd_putch 0020  
                    ___lldiv@divisor 0072                          ?_clcd_write 0072  
                    ___lldiv@counter 0025                           ??_set_time 002F  
                         ??_view_log 0020                         __pstringtext 1000  
                            strcpy@d 0077                          ?_fetch_logs 0070  
                       _display_time 15FC                        i2c_write@data 0072  
      ext_eeprom_24C02_str_write@str 0075                        ___xxtofl@sign 0024  
                        ___fldiv@grs 003E                          ___fldiv@rem 0037  
                      clcd_print@str 0076                           main@stored 019F  
                     __end_of___bmul 1F89                          view_log@key 0023  
                     __end_of_strcpy 11AE                  start_initialization 000F  
                          _i2c_start 1EDB                          __end_of_isr 12E4  
                          _i2c_write 1EED                        save_time@bcdh 0028  
                      save_time@bcdm 0029                        save_time@bcds 002A  
                      save_time@hour 002B       ext_eeprom_24C02_str_write@addr 0077  
                      clear_log@temp 0020                          putchar@data 0072  
              __end_of_i2c_rep_start 1F03                             ??___bmul 0073  
                         init_fetch0 1F89                        ??_init_ds1307 0076  
                        __pdataBANK1 00DB                          __pdataBANK3 01AF  
                      ??_read_ds1307 0074                         _download_log 08B9  
                           ??_strcpy 0075                        ??_init_config 007A  
                          ___fldiv@a 002A                            ___fldiv@b 002E  
                      ??_init_timer2 0072                          __pbssCOMMON 007A  
                          ___latbits 0002                        __pcstackBANK0 0020  
                      __pcstackBANK3 0190                           ?_i2c_start 0070  
                         ?_i2c_write 0070                        ??_menu_screen 0023  
                          _clear_log 1409                 change_pwd@reset_flag 0022  
        ?_ext_eeprom_24C02_str_write 0075                             ?___fldiv 002A  
                           ?___awdiv 0072                             ?___awmod 0072  
                           ?___fltol 0044                    _display_dashboard 14F0  
                           ?___lldiv 0072                            _clock_reg 00A0  
                 ?_display_dashboard 0022                            __pstrings 07EE  
__end_of_ext_eeprom_24C02_byte_write 1FE2          _ext_eeprom_24C02_byte_write 1FC4  
                 login@attempts_left 00AA                   set_time@reset_flag 002E  
                __end_of_init_ds1307 1F64                  read_adc@adc_reg_val 0074  
                ??_display_dashboard 0024                  __end_of_read_ds1307 122A  
                           ?_putchar 0070                            _init_clcd 1F0E  
                __end_of_init_config 083A                            _init_uart 1316  
                           ?_strncmp 0072                             ?_strncpy 0072  
                          _log_event 159B                        ?_write_ds1307 0073  
            ??_ext_eeprom_24C02_read 0074                  __end_of_init_timer2 1F33  
                       ??_change_pwd 0023             ?_init_display_controller 0070  
                  interrupt_function 0004                            clear_ram0 1ED3  
                       ??_clcd_print 0079                         ??_clcd_putch 007A  
                __end_of_menu_screen 09EF                         ??_clcd_write 0073  
                          _save_time 0B77                           ?_clear_log 0070  
          __end_of_display_dashboard 1544                            main@F1253 00E5  
                          main@F1256 01AF                        download_log@i 0023  
                        __stringbase 0800                         ??_fetch_logs 0076  
                 __end_of_change_pwd 07EE                            main@delay 01A2  
                          main@event 01A6                            main@speed 01AB  
                        ??_i2c_start 0072                   __end_of_clcd_print 1284  
                        ??_i2c_write 0072                   __end_of_clcd_putch 1FC4  
                 __end_of_clcd_write 1381                           ?_init_clcd 0070  
                         ?_init_uart 0026                       ??_write_ds1307 0074  
                         ?_log_event 0024                  _init_digital_keypad 1EC6  
                           _i2c_read 116C                             _i2c_stop 1EE4  
                         ?_save_time 0020                   login@user_password 00D7  
                       clear_log@key 0070                   __end_of_fetch_logs 08B9  
                      set_time@blink 00A8                        set_time@field 00EC  
               ?_init_digital_keypad 0070                          _init_ds1307 1F52  
                 __end_of__stringtab 0800                          _read_ds1307 11FF  
                        _init_config 0800                             ___xxtofl 09EF  
                  set_time@hour_high 0036                          change_pwd@i 0052  
                        _init_timer2 1F26                             __ptext10 14A1  
                           __ptext11 1381                             __ptext20 1F0E  
                           __ptext12 0800                             __ptext21 16C1  
                           __ptext13 1316                             __ptext30 15FC  
                           __ptext22 1ECC                             __ptext14 1F26  
                           __ptext31 1454                             __ptext23 08B9  
                           __ptext15 12E4                             __ptext40 11D4  
                           __ptext32 11FF                             __ptext24 11AE  
                           __ptext16 1724                             __ptext41 1FC4  
                           __ptext33 1EF8                             __ptext25 1F03  
                           __ptext17 1F52                             __ptext50 09EF  
                           __ptext42 1EED                             __ptext34 116C  
                           __ptext26 083A                             __ptext18 1FE2  
                           __ptext51 178A                             __ptext43 1EE4  
                           __ptext35 1544                             __ptext27 122A  
                           __ptext19 1EC6                             __ptext52 0E36  
                           __ptext44 1EDB                             __ptext36 165E  
                           __ptext28 1F76                             __ptext53 12B3  
                           __ptext45 1F19                             __ptext37 1409  
                           __ptext29 14F0                             __ptext46 1F41  
                           __ptext38 0666                             __ptext47 1FAF  
                           __ptext39 13BE                             __ptext48 1255  
                           __ptext49 134B      ext_eeprom_24C02_byte_write@addr 0074  
    ext_eeprom_24C02_byte_write@data 0073                             _get_time 1454  
                        _menu_screen 093C                           strcpy@dest 0072  
                           _init_i2c 12E4                             _init_adc 1ECC  
                           _read_adc 1F64              read_digital_keypad@mode 0073  
            read_digital_keypad@once 00ED                             _menu_pos 007B  
                          set_time@i 003C                          ??_clear_log 0079  
                      ??_store_event 0078                        ?_clear_screen 0070  
                           _set_time 040D                             _view_log 0AA5  
                    view_log@log_pos 00A9                ??_init_digital_keypad 0072  
                           main@gear 0190                             isr@count 00A3  
                       set_time@hour 003B                             init_ram0 1F8D  
                        ??_init_clcd 0078                          ??_init_uart 002A  
                           login@key 002A                      main@pressed_key 01AE  
                        ??_log_event 0026                             intlevel1 0000  
                      init_uart@baud 0026                     ___lldiv@dividend 0076  
                          strcpy@src 0073                          ??_save_time 0021  
                          stringcode 07F8                       ??_clear_screen 0076  
                          strncpy@cp 0078                 __end_of_write_ds1307 2000  
                _read_digital_keypad 1284                  __end_of_store_event 13BE  
                   ___lldiv@quotient 0021                             strncmp@l 0072  
                           strncmp@n 0074                             strncmp@r 0073  
                           stringtab 07EE                             strncpy@d 0072  
                           strncpy@n 0076                             strncpy@s 0074  
                        _return_time 00AC                 ?_read_digital_keypad 0070  
                     fetch_logs@addr 0077                     write_ds1307@addr 0074  
                   write_ds1307@data 0073                menu_screen@reset_flag 0022  
      __end_of_ext_eeprom_24C02_read 1255                          fetch_logs@i 0076  
